
out.elf:     file format elf32-tradlittlemips


Disassembly of section .reset:

bd007000 <_reset>:
bd007000:	0f401c02 	jal	bd007008 <_startup>
bd007004:	00000000 	nop

bd007008 <_startup>:
bd007008:	401a6000 	mfc0	k0,c0_status
bd00700c:	7f5a04c0 	ext	k0,k0,0x13,0x1
bd007010:	13400005 	beqz	k0,bd007028 <_no_nmi>
bd007014:	00000000 	nop
bd007018:	3c1a9d01 	lui	k0,0x9d01
bd00701c:	275a3d30 	addiu	k0,k0,15664
bd007020:	03400008 	jr	k0
bd007024:	00000000 	nop

bd007028 <_no_nmi>:
bd007028:	3c1da001 	lui	sp,0xa001
bd00702c:	27bdfff8 	addiu	sp,sp,-8
bd007030:	3c1ca000 	lui	gp,0xa000
bd007034:	279c7ff0 	addiu	gp,gp,32752
bd007038:	3c089d01 	lui	t0,0x9d01
bd00703c:	25083ddc 	addiu	t0,t0,15836
bd007040:	0100f809 	jalr	t0
bd007044:	00000000 	nop
bd007048:	3c089d01 	lui	t0,0x9d01
bd00704c:	250829c0 	addiu	t0,t0,10688
bd007050:	0100f809 	jalr	t0
bd007054:	00000000 	nop
bd007058:	3c090000 	lui	t1,0x0
bd00705c:	25290000 	addiu	t1,t1,0
bd007060:	11200010 	beqz	t1,bd0070a4 <_ramfunc_done>
bd007064:	00000000 	nop
bd007068:	3c090001 	lui	t1,0x1
bd00706c:	25290000 	addiu	t1,t1,0
bd007070:	3c0abf88 	lui	t2,0xbf88
bd007074:	254a2010 	addiu	t2,t2,8208
bd007078:	ad490000 	sw	t1,0(t2)
bd00707c:	3c090001 	lui	t1,0x1
bd007080:	25290000 	addiu	t1,t1,0
bd007084:	3c0abf88 	lui	t2,0xbf88
bd007088:	254a2020 	addiu	t2,t2,8224
bd00708c:	ad490000 	sw	t1,0(t2)
bd007090:	3c090001 	lui	t1,0x1
bd007094:	25290000 	addiu	t1,t1,0
bd007098:	3c0abf88 	lui	t2,0xbf88
bd00709c:	254a2030 	addiu	t2,t2,8240
bd0070a0:	ad490000 	sw	t1,0(t2)

bd0070a4 <_ramfunc_done>:
bd0070a4:	40804800 	mtc0	zero,c0_count
bd0070a8:	240affff 	li	t2,-1
bd0070ac:	408a5800 	mtc0	t2,c0_compare
bd0070b0:	3c080040 	lui	t0,0x40
bd0070b4:	400a6000 	mfc0	t2,c0_status
bd0070b8:	010a5025 	or	t2,t0,t2
bd0070bc:	408a6000 	mtc0	t2,c0_status
bd0070c0:	3c099d00 	lui	t1,0x9d00
bd0070c4:	25296000 	addiu	t1,t1,24576
bd0070c8:	000000c0 	ehb
bd0070cc:	40897801 	mtc0	t1,c0_ebase
bd0070d0:	3c090000 	lui	t1,0x0
bd0070d4:	25290001 	addiu	t1,t1,1
bd0070d8:	240a0000 	li	t2,0
bd0070dc:	7d2a4944 	ins	t2,t1,0x5,0x5
bd0070e0:	408a6001 	mtc0	t2,c0_intctl
bd0070e4:	3c090080 	lui	t1,0x80
bd0070e8:	40896800 	mtc0	t1,c0_cause
bd0070ec:	40088000 	mfc0	t0,c0_config
bd0070f0:	7d090580 	ext	t1,t0,0x16,0x1
bd0070f4:	00094c40 	sll	t1,t1,0x11
bd0070f8:	40086000 	mfc0	t0,c0_status
bd0070fc:	3c010058 	lui	at,0x58
bd007100:	01014024 	and	t0,t0,at
bd007104:	01284025 	or	t0,t1,t0
bd007108:	40886000 	mtc0	t0,c0_status
bd00710c:	000000c0 	ehb
bd007110:	3c089d01 	lui	t0,0x9d01
bd007114:	25083de4 	addiu	t0,t0,15844
bd007118:	0100f809 	jalr	t0
bd00711c:	00000000 	nop
bd007120:	40086000 	mfc0	t0,c0_status
bd007124:	3c01ffbf 	lui	at,0xffbf
bd007128:	3421ffff 	ori	at,at,0xffff
bd00712c:	01014024 	and	t0,t0,at
bd007130:	40886000 	mtc0	t0,c0_status
bd007134:	30840000 	andi	a0,a0,0x0
bd007138:	30a50000 	andi	a1,a1,0x0
bd00713c:	3c089d01 	lui	t0,0x9d01
bd007140:	25083088 	addiu	t0,t0,12424
bd007144:	01000008 	jr	t0
bd007148:	00000000 	nop

Disassembly of section .bev_excpt:

bfc07380 <_bev_exception>:
bfc07380:	3c1a9d01 	lui	k0,0x9d01
bfc07384:	275a31cc 	addiu	k0,k0,12748
bfc07388:	03400008 	jr	k0
bfc0738c:	00000000 	nop

Disassembly of section .app_excpt:

9d006180 <_gen_exception>:
9d006180:	3c1a9d01 	lui	k0,0x9d01
9d006184:	275a1750 	addiu	k0,k0,5968
9d006188:	03400008 	jr	k0
9d00618c:	00000000 	nop

Disassembly of section .vector_0:

9d006200 <__vector_dispatch_0>:
9d006200:	0b404c97 	j	9d01325c <_DefaultInterrupt>
9d006204:	00000000 	nop

Disassembly of section .vector_1:

9d006220 <__vector_dispatch_1>:
9d006220:	0b404c97 	j	9d01325c <_DefaultInterrupt>
9d006224:	00000000 	nop

Disassembly of section .vector_2:

9d006240 <__vector_dispatch_2>:
9d006240:	0b404c97 	j	9d01325c <_DefaultInterrupt>
9d006244:	00000000 	nop

Disassembly of section .vector_3:

9d006260 <__vector_dispatch_3>:
9d006260:	0b404c97 	j	9d01325c <_DefaultInterrupt>
9d006264:	00000000 	nop

Disassembly of section .vector_4:

9d006280 <__vector_dispatch_4>:
9d006280:	0b404c97 	j	9d01325c <_DefaultInterrupt>
9d006284:	00000000 	nop

Disassembly of section .vector_5:

9d0062a0 <__vector_dispatch_5>:
9d0062a0:	0b404c97 	j	9d01325c <_DefaultInterrupt>
9d0062a4:	00000000 	nop

Disassembly of section .vector_6:

9d0062c0 <__vector_dispatch_6>:
9d0062c0:	0b404c97 	j	9d01325c <_DefaultInterrupt>
9d0062c4:	00000000 	nop

Disassembly of section .vector_7:

9d0062e0 <__vector_dispatch_7>:
9d0062e0:	0b404c97 	j	9d01325c <_DefaultInterrupt>
9d0062e4:	00000000 	nop

Disassembly of section .vector_8:

9d006300 <__vector_dispatch_8>:
9d006300:	0b401dc4 	j	9d007710 <Controller>
9d006304:	00000000 	nop

Disassembly of section .vector_9:

9d006320 <__vector_dispatch_9>:
9d006320:	0b404c97 	j	9d01325c <_DefaultInterrupt>
9d006324:	00000000 	nop

Disassembly of section .vector_10:

9d006340 <__vector_dispatch_10>:
9d006340:	0b404c97 	j	9d01325c <_DefaultInterrupt>
9d006344:	00000000 	nop

Disassembly of section .vector_11:

9d006360 <__vector_dispatch_11>:
9d006360:	0b404c97 	j	9d01325c <_DefaultInterrupt>
9d006364:	00000000 	nop

Disassembly of section .vector_12:

9d006380 <__vector_dispatch_12>:
9d006380:	0b404c97 	j	9d01325c <_DefaultInterrupt>
9d006384:	00000000 	nop

Disassembly of section .vector_13:

9d0063a0 <__vector_dispatch_13>:
9d0063a0:	0b404c97 	j	9d01325c <_DefaultInterrupt>
9d0063a4:	00000000 	nop

Disassembly of section .vector_14:

9d0063c0 <__vector_dispatch_14>:
9d0063c0:	0b404c97 	j	9d01325c <_DefaultInterrupt>
9d0063c4:	00000000 	nop

Disassembly of section .vector_15:

9d0063e0 <__vector_dispatch_15>:
9d0063e0:	0b404c97 	j	9d01325c <_DefaultInterrupt>
9d0063e4:	00000000 	nop

Disassembly of section .vector_16:

9d006400 <__vector_dispatch_16>:
9d006400:	0b401f68 	j	9d007da0 <PositionController>
9d006404:	00000000 	nop

Disassembly of section .vector_17:

9d006420 <__vector_dispatch_17>:
9d006420:	0b404c97 	j	9d01325c <_DefaultInterrupt>
9d006424:	00000000 	nop

Disassembly of section .vector_18:

9d006440 <__vector_dispatch_18>:
9d006440:	0b404c97 	j	9d01325c <_DefaultInterrupt>
9d006444:	00000000 	nop

Disassembly of section .vector_19:

9d006460 <__vector_dispatch_19>:
9d006460:	0b404c97 	j	9d01325c <_DefaultInterrupt>
9d006464:	00000000 	nop

Disassembly of section .vector_20:

9d006480 <__vector_dispatch_20>:
9d006480:	0b404c97 	j	9d01325c <_DefaultInterrupt>
9d006484:	00000000 	nop

Disassembly of section .vector_21:

9d0064a0 <__vector_dispatch_21>:
9d0064a0:	0b404c97 	j	9d01325c <_DefaultInterrupt>
9d0064a4:	00000000 	nop

Disassembly of section .vector_22:

9d0064c0 <__vector_dispatch_22>:
9d0064c0:	0b404c97 	j	9d01325c <_DefaultInterrupt>
9d0064c4:	00000000 	nop

Disassembly of section .vector_23:

9d0064e0 <__vector_dispatch_23>:
9d0064e0:	0b404c97 	j	9d01325c <_DefaultInterrupt>
9d0064e4:	00000000 	nop

Disassembly of section .vector_24:

9d006500 <__vector_dispatch_24>:
9d006500:	0b404c97 	j	9d01325c <_DefaultInterrupt>
9d006504:	00000000 	nop

Disassembly of section .vector_25:

9d006520 <__vector_dispatch_25>:
9d006520:	0b404c97 	j	9d01325c <_DefaultInterrupt>
9d006524:	00000000 	nop

Disassembly of section .vector_26:

9d006540 <__vector_dispatch_26>:
9d006540:	0b404c97 	j	9d01325c <_DefaultInterrupt>
9d006544:	00000000 	nop

Disassembly of section .vector_27:

9d006560 <__vector_dispatch_27>:
9d006560:	0b404c97 	j	9d01325c <_DefaultInterrupt>
9d006564:	00000000 	nop

Disassembly of section .vector_28:

9d006580 <__vector_dispatch_28>:
9d006580:	0b404c97 	j	9d01325c <_DefaultInterrupt>
9d006584:	00000000 	nop

Disassembly of section .vector_29:

9d0065a0 <__vector_dispatch_29>:
9d0065a0:	0b404c97 	j	9d01325c <_DefaultInterrupt>
9d0065a4:	00000000 	nop

Disassembly of section .vector_30:

9d0065c0 <__vector_dispatch_30>:
9d0065c0:	0b404c97 	j	9d01325c <_DefaultInterrupt>
9d0065c4:	00000000 	nop

Disassembly of section .vector_31:

9d0065e0 <__vector_dispatch_31>:
9d0065e0:	0b404c97 	j	9d01325c <_DefaultInterrupt>
9d0065e4:	00000000 	nop

Disassembly of section .vector_32:

9d006600 <__vector_dispatch_32>:
9d006600:	0b404c97 	j	9d01325c <_DefaultInterrupt>
9d006604:	00000000 	nop

Disassembly of section .vector_33:

9d006620 <__vector_dispatch_33>:
9d006620:	0b404c97 	j	9d01325c <_DefaultInterrupt>
9d006624:	00000000 	nop

Disassembly of section .vector_34:

9d006640 <__vector_dispatch_34>:
9d006640:	0b404c97 	j	9d01325c <_DefaultInterrupt>
9d006644:	00000000 	nop

Disassembly of section .vector_35:

9d006660 <__vector_dispatch_35>:
9d006660:	0b404c97 	j	9d01325c <_DefaultInterrupt>
9d006664:	00000000 	nop

Disassembly of section .vector_36:

9d006680 <__vector_dispatch_36>:
9d006680:	0b404c97 	j	9d01325c <_DefaultInterrupt>
9d006684:	00000000 	nop

Disassembly of section .vector_37:

9d0066a0 <__vector_dispatch_37>:
9d0066a0:	0b403b39 	j	9d00ece4 <U2ISR>
9d0066a4:	00000000 	nop

Disassembly of section .vector_38:

9d0066c0 <__vector_dispatch_38>:
9d0066c0:	0b404c97 	j	9d01325c <_DefaultInterrupt>
9d0066c4:	00000000 	nop

Disassembly of section .vector_39:

9d0066e0 <__vector_dispatch_39>:
9d0066e0:	0b404c97 	j	9d01325c <_DefaultInterrupt>
9d0066e4:	00000000 	nop

Disassembly of section .vector_40:

9d006700 <__vector_dispatch_40>:
9d006700:	0b404c97 	j	9d01325c <_DefaultInterrupt>
9d006704:	00000000 	nop

Disassembly of section .vector_41:

9d006720 <__vector_dispatch_41>:
9d006720:	0b404c97 	j	9d01325c <_DefaultInterrupt>
9d006724:	00000000 	nop

Disassembly of section .vector_42:

9d006740 <__vector_dispatch_42>:
9d006740:	0b404c97 	j	9d01325c <_DefaultInterrupt>
9d006744:	00000000 	nop

Disassembly of section .vector_43:

9d006760 <__vector_dispatch_43>:
9d006760:	0b404c97 	j	9d01325c <_DefaultInterrupt>
9d006764:	00000000 	nop

Disassembly of section .rodata:

9d007490 <.rodata>:
9d007490:	00006425 	0x6425
9d007494:	32433249 	andi	v1,s2,0x3249
9d007498:	73614d20 	0x73614d20
9d00749c:	3a726574 	xori	s2,s3,0x6574
9d0074a0:	69616620 	0x69616620
9d0074a4:	2064656c 	addi	a0,v1,25964
9d0074a8:	72206f74 	0x72206f74
9d0074ac:	69656365 	0x69656365
9d0074b0:	41206576 	0x41206576
9d0074b4:	0a0d4b43 	j	98352d0c <_bmxdudba_address+0x98342d0c>
9d0074b8:	00000000 	nop
	...
9d0074c4:	40080000 	mfc0	t0,c0_index
9d0074c8:	4e4b4e55 	c3	0x4b4e55
9d0074cc:	004e574f 	0x4e574f
9d0074d0:	454c4449 	bc1any4f	$fcc3,9d0185f8 <getpagesize+0x479c>
9d0074d4:	0c000000 	jal	90000000 <_bmxdudba_address+0x8fff0000>
9d0074d8:	53455449 	beql	k0,a1,9d01c600 <getpagesize+0x87a4>
9d0074dc:	0c000054 	jal	90000150 <_bmxdudba_address+0x8fff0150>
9d0074e0:	444c4f48 	0x444c4f48
9d0074e4:	0c000000 	jal	90000000 <_bmxdudba_address+0x8fff0000>
9d0074e8:	43415254 	c0	0x1415254
9d0074ec:	0c00004b 	jal	9000012c <_bmxdudba_address+0x8fff012c>
9d0074f0:	004d5750 	0x4d5750
9d0074f4:	00000061 	0x61
9d0074f8:	0a0d6625 	j	98359894 <_bmxdudba_address+0x98349894>
9d0074fc:	00000000 	nop
9d007500:	0a0d6425 	j	98359094 <_bmxdudba_address+0x98349094>
9d007504:	00000000 	nop
9d007508:	00000062 	0x62
9d00750c:	00006425 	0x6425
9d007510:	25206625 	addiu	zero,t1,26149
9d007514:	00000066 	0x66
9d007518:	203a704b 	addi	k0,at,28747
9d00751c:	202c6625 	addi	t4,at,26149
9d007520:	203a694b 	addi	k0,at,26955
9d007524:	0a0d6625 	j	98359894 <_bmxdudba_address+0x98349894>
9d007528:	00000000 	nop
9d00752c:	25206625 	addiu	zero,t1,26149
9d007530:	66252066 	0x66252066
9d007534:	00000000 	nop
9d007538:	203a704b 	addi	k0,at,28747
9d00753c:	202c6625 	addi	t4,at,26149
9d007540:	203a694b 	addi	k0,at,26955
9d007544:	202c6625 	addi	t4,at,26149
9d007548:	203a644b 	addi	k0,at,25675
9d00754c:	0a0d6625 	j	98359894 <_bmxdudba_address+0x98349894>
9d007550:	00000000 	nop
9d007554:	25206625 	addiu	zero,t1,26149
9d007558:	000a0d66 	0xa0d66
9d00755c:	00006625 	0x6625
9d007560:	0a0d7325 	j	9835cc94 <_bmxdudba_address+0x9834cc94>
9d007564:	00000000 	nop
9d007568:	00000000 	nop
9d00756c:	40590000 	cfc0	t9,c0_index
9d007570:	3e89f6cd 	0x3e89f6cd
	...
9d00757c:	41f00000 	0x41f00000
9d007580:	00464e49 	0x464e49
9d007584:	00666e69 	0x666e69
9d007588:	004e414e 	0x4e414e
9d00758c:	006e616e 	0x6e616e
9d007590:	00000000 	nop
9d007594:	3ff00000 	0x3ff00000
9d007598:	00000000 	nop
9d00759c:	40240000 	0x40240000
9d0075a0:	00000000 	nop
9d0075a4:	43500000 	c0	0x1500000
9d0075a8:	00000000 	nop
9d0075ac:	40140000 	mfc0	s4,c0_index
9d0075b0:	6c696e28 	0x6c696e28
9d0075b4:	00000029 	0x29
9d0075b8:	00000025 	move	zero,zero
9d0075bc:	00666e69 	0x666e69
9d0075c0:	006e616e 	0x6e616e
9d0075c4:	69666e69 	0x69666e69
9d0075c8:	7974696e 	0x7974696e
9d0075cc:	00000000 	nop
9d0075d0:	006e616e 	0x6e616e
9d0075d4:	00000000 	nop
9d0075d8:	ffffffff 	sdc3	$31,-1(ra)
9d0075dc:	7fefffff 	0x7fefffff
9d0075e0:	00000000 	nop
9d0075e4:	00100000 	sll	zero,s0,0x0
9d0075e8:	00000000 	nop
9d0075ec:	41cdcd65 	0x41cdcd65
9d0075f0:	00000000 	nop
9d0075f4:	3ff00000 	0x3ff00000
9d0075f8:	00000000 	nop
9d0075fc:	3fd00000 	0x3fd00000
9d007600:	00000000 	nop
9d007604:	3fe80000 	0x3fe80000
9d007608:	00000000 	nop
9d00760c:	3fe00000 	0x3fe00000
9d007610:	00000000 	nop
9d007614:	43400000 	c0	0x1400000
9d007618:	00000000 	nop
9d00761c:	fff00000 	sdc3	$16,0(ra)
9d007620:	ffffffff 	sdc3	$31,-1(ra)
9d007624:	7ff7ffff 	0x7ff7ffff
9d007628:	00000000 	nop
9d00762c:	7ff00000 	ext	s0,ra,0x0,0x1
9d007630:	00000000 	nop
9d007634:	3fb00000 	0x3fb00000
9d007638:	00000000 	nop
9d00763c:	c08ff000 	ll	t7,-4096(a0)
9d007640:	00000000 	nop
9d007644:	3ff00000 	0x3ff00000
9d007648:	00000000 	nop
9d00764c:	3fe00000 	0x3fe00000
9d007650:	30773b76 	andi	s7,v1,0x3b76
9d007654:	7fde42d1 	pick.ph	t0,s8,s8
9d007658:	00000000 	nop
9d00765c:	43e00000 	c0	0x1e00000
9d007660:	00000000 	nop
9d007664:	c3e00000 	ll	zero,0(ra)
9d007668:	f0000000 	0xf0000000
9d00766c:	341fffff 	li	ra,0xffff
9d007670:	00000000 	nop
9d007674:	07f00000 	bltzal	ra,9d007678 <__vector_dispatch_43+0xf18>
9d007678:	00000000 	nop
9d00767c:	7fe00000 	ext	zero,ra,0x0,0x1
9d007680:	00000000 	nop
9d007684:	03600000 	0x3600000
9d007688:	00000000 	nop
9d00768c:	41f00000 	0x41f00000

Disassembly of section ._debug_exception:

bfc00480 <__DbgExecReturn>:
bfc00480:	409bf800 	mtc0	k1,c0_desave
bfc00484:	000000c0 	ehb
bfc00488:	3c1b9d01 	lui	k1,0x9d01
bfc0048c:	277b3334 	addiu	k1,k1,13108
bfc00490:	13600002 	beqz	k1,bfc0049c <__DbgExecReturn+0x1c>
bfc00494:	00000000 	nop
bfc00498:	409bc000 	mtc0	k1,c0_depc
bfc0049c:	401bf800 	mfc0	k1,c0_desave
bfc004a0:	000000c0 	ehb
bfc004a4:	4200001f 	deret
bfc004a8:	00000000 	nop

Disassembly of section .text:

9d007690 <modeToString>:
static float refTraj[MAX_ARRAY_SIZE];


const char *modeToString(enum mode_t mode)
{
	switch (mode)
9d007690:	2c820005 	sltiu	v0,a0,5
9d007694:	10400019 	beqz	v0,9d0076fc <__jend_modeToString_4+0x30>
9d007698:	3c029d00 	lui	v0,0x9d00
9d00769c:	00041080 	sll	v0,a0,0x2
9d0076a0:	3c049d00 	lui	a0,0x9d00
9d0076a4:	248476b8 	addiu	a0,a0,30392
9d0076a8:	00822021 	addu	a0,a0,v0
9d0076ac:	8c820000 	lw	v0,0(a0)
9d0076b0:	00400008 	jr	v0
9d0076b4:	00000000 	nop

9d0076b8 <__jump_modeToString_4>:
9d0076b8:	9d007704 9d0076cc 9d0076d8 9d0076e4     .w...v...v...v..
9d0076c8:	9d0076f0                                .v..

9d0076cc <__jend_modeToString_4>:
	{
	case IDLE:
		return "IDLE";
	case PWM:
		return "PWM";
9d0076cc:	3c029d00 	lui	v0,0x9d00
9d0076d0:	03e00008 	jr	ra
9d0076d4:	244274f0 	addiu	v0,v0,29936
	case ITEST:
		return "ITEST";
9d0076d8:	3c029d00 	lui	v0,0x9d00
9d0076dc:	03e00008 	jr	ra
9d0076e0:	244274d8 	addiu	v0,v0,29912
	case HOLD:
		return "HOLD";
9d0076e4:	3c029d00 	lui	v0,0x9d00
9d0076e8:	03e00008 	jr	ra
9d0076ec:	244274e0 	addiu	v0,v0,29920
	case TRACK:
		return "TRACK";
9d0076f0:	3c029d00 	lui	v0,0x9d00
9d0076f4:	03e00008 	jr	ra
9d0076f8:	244274e8 	addiu	v0,v0,29928
	default:
		return "UNKNOWN";
9d0076fc:	03e00008 	jr	ra
9d007700:	244274c8 	addiu	v0,v0,29896
		return "IDLE";
9d007704:	3c029d00 	lui	v0,0x9d00
	}
}
9d007708:	03e00008 	jr	ra
9d00770c:	244274d0 	addiu	v0,v0,29904

9d007710 <Controller>:

void __ISR(_TIMER_2_VECTOR, IPL5SOFT) Controller(void)
{
9d007710:	415de800 	rdpgpr	sp,sp
9d007714:	401a7000 	mfc0	k0,c0_epc
9d007718:	401b6000 	mfc0	k1,c0_status
9d00771c:	27bdff70 	addiu	sp,sp,-144
9d007720:	afba008c 	sw	k0,140(sp)
9d007724:	401a6002 	mfc0	k0,c0_srsctl
9d007728:	afbb0088 	sw	k1,136(sp)
9d00772c:	afba0084 	sw	k0,132(sp)
9d007730:	7c1b7844 	ins	k1,zero,0x1,0xf
9d007734:	377b1400 	ori	k1,k1,0x1400
9d007738:	409b6000 	mtc0	k1,c0_status
9d00773c:	afbf0074 	sw	ra,116(sp)
9d007740:	afbe0070 	sw	s8,112(sp)
9d007744:	afb9006c 	sw	t9,108(sp)
9d007748:	afb80068 	sw	t8,104(sp)
9d00774c:	afb40064 	sw	s4,100(sp)
9d007750:	afb30060 	sw	s3,96(sp)
9d007754:	afb2005c 	sw	s2,92(sp)
9d007758:	afb10058 	sw	s1,88(sp)
9d00775c:	afb00054 	sw	s0,84(sp)
9d007760:	afaf0050 	sw	t7,80(sp)
9d007764:	afae004c 	sw	t6,76(sp)
9d007768:	afad0048 	sw	t5,72(sp)
9d00776c:	afac0044 	sw	t4,68(sp)
9d007770:	afab0040 	sw	t3,64(sp)
9d007774:	afaa003c 	sw	t2,60(sp)
9d007778:	afa90038 	sw	t1,56(sp)
9d00777c:	afa80034 	sw	t0,52(sp)
9d007780:	afa70030 	sw	a3,48(sp)
9d007784:	afa6002c 	sw	a2,44(sp)
9d007788:	afa50028 	sw	a1,40(sp)
9d00778c:	afa40024 	sw	a0,36(sp)
9d007790:	afa30020 	sw	v1,32(sp)
9d007794:	afa2001c 	sw	v0,28(sp)
9d007798:	afa10018 	sw	at,24(sp)
9d00779c:	00001012 	mflo	v0
9d0077a0:	afa2007c 	sw	v0,124(sp)
9d0077a4:	00001810 	mfhi	v1
9d0077a8:	afa30078 	sw	v1,120(sp)
9d0077ac:	03a0f025 	move	s8,sp
	enum mode_t currentMode = get_mode();
9d0077b0:	0f404f46 	jal	9d013d18 <get_mode>
9d0077b4:	00000000 	nop
	static int counter = 0;
	static int plotind = 0;
	static int decctr = 0;
	static float amplitude = -200.0;
	static float eint = 0;
	switch (currentMode)
9d0077b8:	2c510005 	sltiu	s1,v0,5
9d0077bc:	1220001e 	beqz	s1,9d007838 <__jend_Controller_13+0x48>
9d0077c0:	00028880 	sll	s1,v0,0x2
9d0077c4:	3c109d00 	lui	s0,0x9d00
9d0077c8:	261077dc 	addiu	s0,s0,30684
9d0077cc:	02118021 	addu	s0,s0,s1
9d0077d0:	8e100000 	lw	s0,0(s0)
9d0077d4:	02000008 	jr	s0
9d0077d8:	00000000 	nop

9d0077dc <__jump_Controller_13>:
9d0077dc:	9d0077f0 9d0078e8 9d007998 9d007b48     .w...x...y..H{..
9d0077ec:	9d007c88                                .|..

9d0077f0 <__jend_Controller_13>:
	{
	case IDLE:
	{
		dutyCycle = 0;
9d0077f0:	af808058 	sw	zero,-32680(gp)
		OC1RS = PR3 * dutyCycle / 100;
9d0077f4:	3c10bf80 	lui	s0,0xbf80
9d0077f8:	8e110a20 	lw	s1,2592(s0)
9d0077fc:	8f908058 	lw	s0,-32680(gp)
9d007800:	00009012 	mflo	s2
9d007804:	afd20010 	sw	s2,16(s8)
9d007808:	72118002 	mul	s0,s0,s1
9d00780c:	3c1151eb 	lui	s1,0x51eb
9d007810:	3631851f 	ori	s1,s1,0x851f
9d007814:	02110019 	multu	s0,s1
9d007818:	00008010 	mfhi	s0
9d00781c:	00108142 	srl	s0,s0,0x5
9d007820:	3c11bf80 	lui	s1,0xbf80
9d007824:	ae303020 	sw	s0,12320(s1)
		LATAbits.LATA0 = 0;
9d007828:	3c10bf88 	lui	s0,0xbf88
9d00782c:	92116030 	lbu	s1,24624(s0)
9d007830:	7c110004 	ins	s1,zero,0x0,0x1
9d007834:	a2116030 	sb	s1,24624(s0)
		break;
	}
	}

	// insert line to clear interrupt flag
	IFS0bits.T2IF = 0;
9d007838:	3c10bf88 	lui	s0,0xbf88
9d00783c:	8e111030 	lw	s1,4144(s0)
9d007840:	7c114a44 	ins	s1,zero,0x9,0x1
9d007844:	ae111030 	sw	s1,4144(s0)
}
9d007848:	03c0e825 	move	sp,s8
9d00784c:	8fa2007c 	lw	v0,124(sp)
9d007850:	00400013 	mtlo	v0
9d007854:	8fa30078 	lw	v1,120(sp)
9d007858:	00600011 	mthi	v1
9d00785c:	8fbf0074 	lw	ra,116(sp)
9d007860:	8fbe0070 	lw	s8,112(sp)
9d007864:	8fb9006c 	lw	t9,108(sp)
9d007868:	8fb80068 	lw	t8,104(sp)
9d00786c:	8fb40064 	lw	s4,100(sp)
9d007870:	8fb30060 	lw	s3,96(sp)
9d007874:	8fb2005c 	lw	s2,92(sp)
9d007878:	8fb10058 	lw	s1,88(sp)
9d00787c:	8fb00054 	lw	s0,84(sp)
9d007880:	8faf0050 	lw	t7,80(sp)
9d007884:	8fae004c 	lw	t6,76(sp)
9d007888:	8fad0048 	lw	t5,72(sp)
9d00788c:	8fac0044 	lw	t4,68(sp)
9d007890:	8fab0040 	lw	t3,64(sp)
9d007894:	8faa003c 	lw	t2,60(sp)
9d007898:	8fa90038 	lw	t1,56(sp)
9d00789c:	8fa80034 	lw	t0,52(sp)
9d0078a0:	8fa70030 	lw	a3,48(sp)
9d0078a4:	8fa6002c 	lw	a2,44(sp)
9d0078a8:	8fa50028 	lw	a1,40(sp)
9d0078ac:	8fa40024 	lw	a0,36(sp)
9d0078b0:	8fa30020 	lw	v1,32(sp)
9d0078b4:	8fa2001c 	lw	v0,28(sp)
9d0078b8:	8fa10018 	lw	at,24(sp)
9d0078bc:	41606000 	di
9d0078c0:	000000c0 	ehb
9d0078c4:	8fba008c 	lw	k0,140(sp)
9d0078c8:	8fbb0088 	lw	k1,136(sp)
9d0078cc:	409a7000 	mtc0	k0,c0_epc
9d0078d0:	8fba0084 	lw	k0,132(sp)
9d0078d4:	27bd0090 	addiu	sp,sp,144
9d0078d8:	409a6002 	mtc0	k0,c0_srsctl
9d0078dc:	41dde800 	wrpgpr	sp,sp
9d0078e0:	409b6000 	mtc0	k1,c0_status
9d0078e4:	42000018 	eret
		if (dutyCycle > 0)
9d0078e8:	8f908058 	lw	s0,-32680(gp)
9d0078ec:	1a000013 	blez	s0,9d00793c <__jend_Controller_13+0x14c>
9d0078f0:	3c10bf80 	lui	s0,0xbf80
			OC1RS = PR3 * dutyCycle / 100;
9d0078f4:	8e110a20 	lw	s1,2592(s0)
9d0078f8:	8f908058 	lw	s0,-32680(gp)
9d0078fc:	00009012 	mflo	s2
9d007900:	afd20010 	sw	s2,16(s8)
9d007904:	72118002 	mul	s0,s0,s1
9d007908:	3c1151eb 	lui	s1,0x51eb
9d00790c:	3631851f 	ori	s1,s1,0x851f
9d007910:	02110019 	multu	s0,s1
9d007914:	00008010 	mfhi	s0
9d007918:	00108142 	srl	s0,s0,0x5
9d00791c:	3c11bf80 	lui	s1,0xbf80
9d007920:	ae303020 	sw	s0,12320(s1)
			LATAbits.LATA0 = 0;
9d007924:	3c10bf88 	lui	s0,0xbf88
9d007928:	92116030 	lbu	s1,24624(s0)
9d00792c:	7c110004 	ins	s1,zero,0x0,0x1
9d007930:	a2116030 	sb	s1,24624(s0)
9d007934:	1000ffc1 	b	9d00783c <__jend_Controller_13+0x4c>
9d007938:	3c10bf88 	lui	s0,0xbf88
		else if (dutyCycle < 0)
9d00793c:	8f908058 	lw	s0,-32680(gp)
9d007940:	0601ffbd 	bgez	s0,9d007838 <__jend_Controller_13+0x48>
9d007944:	3c10bf80 	lui	s0,0xbf80
			OC1RS = -PR3 * dutyCycle / 100;
9d007948:	8e110a20 	lw	s1,2592(s0)
9d00794c:	8f908058 	lw	s0,-32680(gp)
9d007950:	00009012 	mflo	s2
9d007954:	afd20010 	sw	s2,16(s8)
9d007958:	72118002 	mul	s0,s0,s1
9d00795c:	00108023 	negu	s0,s0
9d007960:	3c1151eb 	lui	s1,0x51eb
9d007964:	3631851f 	ori	s1,s1,0x851f
9d007968:	02110019 	multu	s0,s1
9d00796c:	00008010 	mfhi	s0
9d007970:	00108142 	srl	s0,s0,0x5
9d007974:	3c11bf80 	lui	s1,0xbf80
9d007978:	ae303020 	sw	s0,12320(s1)
			LATAbits.LATA0 = 1;
9d00797c:	3c10bf88 	lui	s0,0xbf88
9d007980:	92116030 	lbu	s1,24624(s0)
9d007984:	24120001 	li	s2,1
9d007988:	7e510004 	ins	s1,s2,0x0,0x1
9d00798c:	a2116030 	sb	s1,24624(s0)
	IFS0bits.T2IF = 0;
9d007990:	1000ffaa 	b	9d00783c <__jend_Controller_13+0x4c>
9d007994:	3c10bf88 	lui	s0,0xbf88
		if (counter % 25 == 0)
9d007998:	8f848048 	lw	a0,-32696(gp)
9d00799c:	3c0251eb 	lui	v0,0x51eb
9d0079a0:	3442851f 	ori	v0,v0,0x851f
9d0079a4:	00820018 	mult	a0,v0
9d0079a8:	00001010 	mfhi	v0
9d0079ac:	000210c3 	sra	v0,v0,0x3
9d0079b0:	00041fc3 	sra	v1,a0,0x1f
9d0079b4:	00431023 	subu	v0,v0,v1
9d0079b8:	00021840 	sll	v1,v0,0x1
9d0079bc:	00621821 	addu	v1,v1,v0
9d0079c0:	000318c0 	sll	v1,v1,0x3
9d0079c4:	00621021 	addu	v0,v1,v0
9d0079c8:	14820004 	bne	a0,v0,9d0079dc <__jend_Controller_13+0x1ec>
9d0079cc:	8f828010 	lw	v0,-32752(gp)
			amplitude = -amplitude;
9d0079d0:	3c038000 	lui	v1,0x8000
9d0079d4:	00431026 	xor	v0,v0,v1
9d0079d8:	af828010 	sw	v0,-32752(gp)
		float actualCurrent = INA219_read_current();
9d0079dc:	0f40418b 	jal	9d01062c <INA219_read_current>
9d0079e0:	00000000 	nop
9d0079e4:	00409825 	move	s3,v0
		float e = amplitude - actualCurrent;
9d0079e8:	8f948010 	lw	s4,-32752(gp)
9d0079ec:	00402825 	move	a1,v0
9d0079f0:	0f403deb 	jal	9d00f7ac <__subsf3>
9d0079f4:	02802025 	move	a0,s4
9d0079f8:	00408825 	move	s1,v0
		eint = eint + e;
9d0079fc:	8f858044 	lw	a1,-32700(gp)
9d007a00:	0f403ded 	jal	9d00f7b4 <__addsf3>
9d007a04:	00402025 	move	a0,v0
9d007a08:	00408025 	move	s0,v0
9d007a0c:	af828044 	sw	v0,-32700(gp)
		dutyCycle = (Kp_mA * e) + (Ki_mA * eint);
9d007a10:	8f848024 	lw	a0,-32732(gp)
9d007a14:	8f928020 	lw	s2,-32736(gp)
9d007a18:	0f403ef9 	jal	9d00fbe4 <__mulsf3>
9d007a1c:	02202825 	move	a1,s1
9d007a20:	00408825 	move	s1,v0
9d007a24:	02402825 	move	a1,s2
9d007a28:	0f403ef9 	jal	9d00fbe4 <__mulsf3>
9d007a2c:	02002025 	move	a0,s0
9d007a30:	00402825 	move	a1,v0
9d007a34:	0f403ded 	jal	9d00f7b4 <__addsf3>
9d007a38:	02202025 	move	a0,s1
9d007a3c:	0f404a2e 	jal	9d0128b8 <__fixsfsi>
9d007a40:	00402025 	move	a0,v0
9d007a44:	af828058 	sw	v0,-32680(gp)
		if (dutyCycle > 100.0)
9d007a48:	8f828058 	lw	v0,-32680(gp)
9d007a4c:	28420065 	slti	v0,v0,101
9d007a50:	14400002 	bnez	v0,9d007a5c <__jend_Controller_13+0x26c>
9d007a54:	24020064 	li	v0,100
			dutyCycle = 100.0;
9d007a58:	af828058 	sw	v0,-32680(gp)
		if (dutyCycle <= -100.0)
9d007a5c:	8f828058 	lw	v0,-32680(gp)
9d007a60:	2842ff9d 	slti	v0,v0,-99
9d007a64:	10400002 	beqz	v0,9d007a70 <__jend_Controller_13+0x280>
9d007a68:	2402ff9c 	li	v0,-100
			dutyCycle = -100.0;
9d007a6c:	af828058 	sw	v0,-32680(gp)
		OC1RS = (unsigned int)(abs(dutyCycle)/100.0 * PR3);
9d007a70:	8f828058 	lw	v0,-32680(gp)
9d007a74:	3c03bf80 	lui	v1,0xbf80
9d007a78:	8c720a20 	lw	s2,2592(v1)
9d007a7c:	000227c3 	sra	a0,v0,0x1f
9d007a80:	00821026 	xor	v0,a0,v0
9d007a84:	0f404acb 	jal	9d012b2c <__floatsidf>
9d007a88:	00442023 	subu	a0,v0,a0
9d007a8c:	3c049d00 	lui	a0,0x9d00
9d007a90:	8c867568 	lw	a2,30056(a0)
9d007a94:	8c87756c 	lw	a3,30060(a0)
9d007a98:	00402025 	move	a0,v0
9d007a9c:	0f40321b 	jal	9d00c86c <__divdf3>
9d007aa0:	00602825 	move	a1,v1
9d007aa4:	00408025 	move	s0,v0
9d007aa8:	00608825 	move	s1,v1
9d007aac:	0f404d11 	jal	9d013444 <__floatunsidf>
9d007ab0:	02402025 	move	a0,s2
9d007ab4:	00403025 	move	a2,v0
9d007ab8:	00603825 	move	a3,v1
9d007abc:	02002025 	move	a0,s0
9d007ac0:	0f403a65 	jal	9d00e994 <__muldf3>
9d007ac4:	02202825 	move	a1,s1
9d007ac8:	00402025 	move	a0,v0
9d007acc:	0f404984 	jal	9d012610 <__fixunsdfsi>
9d007ad0:	00602825 	move	a1,v1
9d007ad4:	3c10bf80 	lui	s0,0xbf80
9d007ad8:	ae023020 	sw	v0,12320(s0)
		LATAbits.LATA0 = (dutyCycle >= 0) ? 0 : 1;
9d007adc:	8f908058 	lw	s0,-32680(gp)
9d007ae0:	001087c2 	srl	s0,s0,0x1f
9d007ae4:	3c11bf88 	lui	s1,0xbf88
9d007ae8:	92326030 	lbu	s2,24624(s1)
9d007aec:	7e120004 	ins	s2,s0,0x0,0x1
9d007af0:	a2326030 	sb	s2,24624(s1)
		refCurrent[counter] = amplitude;
9d007af4:	8f908048 	lw	s0,-32696(gp)
9d007af8:	00109080 	sll	s2,s0,0x2
9d007afc:	3c11a000 	lui	s1,0xa000
9d007b00:	26312ec8 	addiu	s1,s1,11976
9d007b04:	02518821 	addu	s1,s2,s1
9d007b08:	ae340000 	sw	s4,0(s1)
		actCurrent[counter] = actualCurrent;
9d007b0c:	3c11a000 	lui	s1,0xa000
9d007b10:	26312d38 	addiu	s1,s1,11576
9d007b14:	02519021 	addu	s2,s2,s1
9d007b18:	ae530000 	sw	s3,0(s2)
		counter++;
9d007b1c:	26100001 	addiu	s0,s0,1
9d007b20:	af908048 	sw	s0,-32696(gp)
		if (counter >= 100)
9d007b24:	2a100064 	slti	s0,s0,100
9d007b28:	1600ff44 	bnez	s0,9d00783c <__jend_Controller_13+0x4c>
9d007b2c:	3c10bf88 	lui	s0,0xbf88
			set_mode(IDLE);
9d007b30:	0f404f49 	jal	9d013d24 <set_mode>
9d007b34:	00002025 	move	a0,zero
			counter = 0;
9d007b38:	af808048 	sw	zero,-32696(gp)
			eint = 0;
9d007b3c:	00008025 	move	s0,zero
9d007b40:	1000ff3d 	b	9d007838 <__jend_Controller_13+0x48>
9d007b44:	af908044 	sw	s0,-32700(gp)
		float actualCurrent = INA219_read_current();
9d007b48:	0f40418b 	jal	9d01062c <INA219_read_current>
9d007b4c:	00000000 	nop
		float e = commandedCurrent - actualCurrent;
9d007b50:	8f848050 	lw	a0,-32688(gp)
9d007b54:	0f403deb 	jal	9d00f7ac <__subsf3>
9d007b58:	00402825 	move	a1,v0
9d007b5c:	00408825 	move	s1,v0
		eint = eint + e;
9d007b60:	8f858044 	lw	a1,-32700(gp)
9d007b64:	0f403ded 	jal	9d00f7b4 <__addsf3>
9d007b68:	00402025 	move	a0,v0
9d007b6c:	00408025 	move	s0,v0
9d007b70:	af828044 	sw	v0,-32700(gp)
		dutyCycle = (Kp_mA * e) + (Ki_mA * eint);
9d007b74:	8f848024 	lw	a0,-32732(gp)
9d007b78:	8f928020 	lw	s2,-32736(gp)
9d007b7c:	0f403ef9 	jal	9d00fbe4 <__mulsf3>
9d007b80:	02202825 	move	a1,s1
9d007b84:	00408825 	move	s1,v0
9d007b88:	02402825 	move	a1,s2
9d007b8c:	0f403ef9 	jal	9d00fbe4 <__mulsf3>
9d007b90:	02002025 	move	a0,s0
9d007b94:	00402825 	move	a1,v0
9d007b98:	0f403ded 	jal	9d00f7b4 <__addsf3>
9d007b9c:	02202025 	move	a0,s1
9d007ba0:	0f404a2e 	jal	9d0128b8 <__fixsfsi>
9d007ba4:	00402025 	move	a0,v0
9d007ba8:	af828058 	sw	v0,-32680(gp)
		if (dutyCycle > 100.0)
9d007bac:	8f828058 	lw	v0,-32680(gp)
9d007bb0:	28420065 	slti	v0,v0,101
9d007bb4:	14400002 	bnez	v0,9d007bc0 <__jend_Controller_13+0x3d0>
9d007bb8:	24020064 	li	v0,100
			dutyCycle = 100.0;
9d007bbc:	af828058 	sw	v0,-32680(gp)
		if (dutyCycle <= -100.0)
9d007bc0:	8f828058 	lw	v0,-32680(gp)
9d007bc4:	2842ff9d 	slti	v0,v0,-99
9d007bc8:	10400002 	beqz	v0,9d007bd4 <__jend_Controller_13+0x3e4>
9d007bcc:	2402ff9c 	li	v0,-100
			dutyCycle = -100.0;
9d007bd0:	af828058 	sw	v0,-32680(gp)
		OC1RS = (unsigned int)(abs(dutyCycle)/100.0 * PR3);
9d007bd4:	8f828058 	lw	v0,-32680(gp)
9d007bd8:	3c03bf80 	lui	v1,0xbf80
9d007bdc:	8c720a20 	lw	s2,2592(v1)
9d007be0:	000227c3 	sra	a0,v0,0x1f
9d007be4:	00821026 	xor	v0,a0,v0
9d007be8:	0f404acb 	jal	9d012b2c <__floatsidf>
9d007bec:	00442023 	subu	a0,v0,a0
9d007bf0:	3c049d00 	lui	a0,0x9d00
9d007bf4:	8c867568 	lw	a2,30056(a0)
9d007bf8:	8c87756c 	lw	a3,30060(a0)
9d007bfc:	00402025 	move	a0,v0
9d007c00:	0f40321b 	jal	9d00c86c <__divdf3>
9d007c04:	00602825 	move	a1,v1
9d007c08:	00408025 	move	s0,v0
9d007c0c:	00608825 	move	s1,v1
9d007c10:	0f404d11 	jal	9d013444 <__floatunsidf>
9d007c14:	02402025 	move	a0,s2
9d007c18:	00403025 	move	a2,v0
9d007c1c:	00603825 	move	a3,v1
9d007c20:	02002025 	move	a0,s0
9d007c24:	0f403a65 	jal	9d00e994 <__muldf3>
9d007c28:	02202825 	move	a1,s1
9d007c2c:	00402025 	move	a0,v0
9d007c30:	0f404984 	jal	9d012610 <__fixunsdfsi>
9d007c34:	00602825 	move	a1,v1
9d007c38:	3c10bf80 	lui	s0,0xbf80
9d007c3c:	ae023020 	sw	v0,12320(s0)
		LATAbits.LATA0 = (dutyCycle >= 0) ? 0 : 1;
9d007c40:	8f908058 	lw	s0,-32680(gp)
9d007c44:	001087c2 	srl	s0,s0,0x1f
9d007c48:	3c11bf88 	lui	s1,0xbf88
9d007c4c:	92326030 	lbu	s2,24624(s1)
9d007c50:	7e120004 	ins	s2,s0,0x0,0x1
9d007c54:	a2326030 	sb	s2,24624(s1)
		counter++;
9d007c58:	8f908048 	lw	s0,-32696(gp)
9d007c5c:	26100001 	addiu	s0,s0,1
9d007c60:	af908048 	sw	s0,-32696(gp)
		if(counter >= 10000){
9d007c64:	2a102710 	slti	s0,s0,10000
9d007c68:	1600fef4 	bnez	s0,9d00783c <__jend_Controller_13+0x4c>
9d007c6c:	3c10bf88 	lui	s0,0xbf88
			set_mode(IDLE);
9d007c70:	0f404f49 	jal	9d013d24 <set_mode>
9d007c74:	00002025 	move	a0,zero
			counter = 0;
9d007c78:	af808048 	sw	zero,-32696(gp)
			eint = 0;
9d007c7c:	00008025 	move	s0,zero
9d007c80:	1000feed 	b	9d007838 <__jend_Controller_13+0x48>
9d007c84:	af908044 	sw	s0,-32700(gp)
		float actualCurrent = INA219_read_current();
9d007c88:	0f40418b 	jal	9d01062c <INA219_read_current>
9d007c8c:	00000000 	nop
		float e = commandedCurrent - actualCurrent;
9d007c90:	8f848050 	lw	a0,-32688(gp)
9d007c94:	0f403deb 	jal	9d00f7ac <__subsf3>
9d007c98:	00402825 	move	a1,v0
9d007c9c:	00408825 	move	s1,v0
		eint = eint + e;
9d007ca0:	8f858044 	lw	a1,-32700(gp)
9d007ca4:	0f403ded 	jal	9d00f7b4 <__addsf3>
9d007ca8:	00402025 	move	a0,v0
9d007cac:	00408025 	move	s0,v0
9d007cb0:	af828044 	sw	v0,-32700(gp)
		dutyCycle = (Kp_mA * e) + (Ki_mA * eint);
9d007cb4:	8f848024 	lw	a0,-32732(gp)
9d007cb8:	8f928020 	lw	s2,-32736(gp)
9d007cbc:	0f403ef9 	jal	9d00fbe4 <__mulsf3>
9d007cc0:	02202825 	move	a1,s1
9d007cc4:	00408825 	move	s1,v0
9d007cc8:	02402825 	move	a1,s2
9d007ccc:	0f403ef9 	jal	9d00fbe4 <__mulsf3>
9d007cd0:	02002025 	move	a0,s0
9d007cd4:	00402825 	move	a1,v0
9d007cd8:	0f403ded 	jal	9d00f7b4 <__addsf3>
9d007cdc:	02202025 	move	a0,s1
9d007ce0:	0f404a2e 	jal	9d0128b8 <__fixsfsi>
9d007ce4:	00402025 	move	a0,v0
9d007ce8:	af828058 	sw	v0,-32680(gp)
		if (dutyCycle > 100.0)
9d007cec:	8f828058 	lw	v0,-32680(gp)
9d007cf0:	28420065 	slti	v0,v0,101
9d007cf4:	14400002 	bnez	v0,9d007d00 <__jend_Controller_13+0x510>
9d007cf8:	24020064 	li	v0,100
			dutyCycle = 100.0;
9d007cfc:	af828058 	sw	v0,-32680(gp)
		if (dutyCycle <= -100.0)
9d007d00:	8f828058 	lw	v0,-32680(gp)
9d007d04:	2842ff9d 	slti	v0,v0,-99
9d007d08:	10400002 	beqz	v0,9d007d14 <__jend_Controller_13+0x524>
9d007d0c:	2402ff9c 	li	v0,-100
			dutyCycle = -100.0;
9d007d10:	af828058 	sw	v0,-32680(gp)
		OC1RS = (unsigned int)(abs(dutyCycle)/100.0 * PR3);
9d007d14:	8f828058 	lw	v0,-32680(gp)
9d007d18:	3c03bf80 	lui	v1,0xbf80
9d007d1c:	8c720a20 	lw	s2,2592(v1)
9d007d20:	000227c3 	sra	a0,v0,0x1f
9d007d24:	00821026 	xor	v0,a0,v0
9d007d28:	0f404acb 	jal	9d012b2c <__floatsidf>
9d007d2c:	00442023 	subu	a0,v0,a0
9d007d30:	3c049d00 	lui	a0,0x9d00
9d007d34:	8c867568 	lw	a2,30056(a0)
9d007d38:	8c87756c 	lw	a3,30060(a0)
9d007d3c:	00402025 	move	a0,v0
9d007d40:	0f40321b 	jal	9d00c86c <__divdf3>
9d007d44:	00602825 	move	a1,v1
9d007d48:	00408025 	move	s0,v0
9d007d4c:	00608825 	move	s1,v1
9d007d50:	0f404d11 	jal	9d013444 <__floatunsidf>
9d007d54:	02402025 	move	a0,s2
9d007d58:	00403025 	move	a2,v0
9d007d5c:	00603825 	move	a3,v1
9d007d60:	02002025 	move	a0,s0
9d007d64:	0f403a65 	jal	9d00e994 <__muldf3>
9d007d68:	02202825 	move	a1,s1
9d007d6c:	00402025 	move	a0,v0
9d007d70:	0f404984 	jal	9d012610 <__fixunsdfsi>
9d007d74:	00602825 	move	a1,v1
9d007d78:	3c10bf80 	lui	s0,0xbf80
9d007d7c:	ae023020 	sw	v0,12320(s0)
		LATAbits.LATA0 = (dutyCycle >= 0) ? 0 : 1;
9d007d80:	8f908058 	lw	s0,-32680(gp)
9d007d84:	001087c2 	srl	s0,s0,0x1f
9d007d88:	3c11bf88 	lui	s1,0xbf88
9d007d8c:	92326030 	lbu	s2,24624(s1)
9d007d90:	7e120004 	ins	s2,s0,0x0,0x1
9d007d94:	a2326030 	sb	s2,24624(s1)
		break;
9d007d98:	1000fea8 	b	9d00783c <__jend_Controller_13+0x4c>
9d007d9c:	3c10bf88 	lui	s0,0xbf88

9d007da0 <PositionController>:

void __ISR(_TIMER_4_VECTOR, IPL6SOFT) PositionController(void)
{
9d007da0:	415de800 	rdpgpr	sp,sp
9d007da4:	401a7000 	mfc0	k0,c0_epc
9d007da8:	401b6000 	mfc0	k1,c0_status
9d007dac:	27bdff60 	addiu	sp,sp,-160
9d007db0:	afba009c 	sw	k0,156(sp)
9d007db4:	401a6002 	mfc0	k0,c0_srsctl
9d007db8:	afbb0098 	sw	k1,152(sp)
9d007dbc:	afba0094 	sw	k0,148(sp)
9d007dc0:	7c1b7844 	ins	k1,zero,0x1,0xf
9d007dc4:	377b1800 	ori	k1,k1,0x1800
9d007dc8:	409b6000 	mtc0	k1,c0_status
9d007dcc:	afbf0084 	sw	ra,132(sp)
9d007dd0:	afbe0080 	sw	s8,128(sp)
9d007dd4:	afb9007c 	sw	t9,124(sp)
9d007dd8:	afb80078 	sw	t8,120(sp)
9d007ddc:	afb70074 	sw	s7,116(sp)
9d007de0:	afb60070 	sw	s6,112(sp)
9d007de4:	afb5006c 	sw	s5,108(sp)
9d007de8:	afb40068 	sw	s4,104(sp)
9d007dec:	afb30064 	sw	s3,100(sp)
9d007df0:	afb20060 	sw	s2,96(sp)
9d007df4:	afb1005c 	sw	s1,92(sp)
9d007df8:	afb00058 	sw	s0,88(sp)
9d007dfc:	afaf0054 	sw	t7,84(sp)
9d007e00:	afae0050 	sw	t6,80(sp)
9d007e04:	afad004c 	sw	t5,76(sp)
9d007e08:	afac0048 	sw	t4,72(sp)
9d007e0c:	afab0044 	sw	t3,68(sp)
9d007e10:	afaa0040 	sw	t2,64(sp)
9d007e14:	afa9003c 	sw	t1,60(sp)
9d007e18:	afa80038 	sw	t0,56(sp)
9d007e1c:	afa70034 	sw	a3,52(sp)
9d007e20:	afa60030 	sw	a2,48(sp)
9d007e24:	afa5002c 	sw	a1,44(sp)
9d007e28:	afa40028 	sw	a0,40(sp)
9d007e2c:	afa30024 	sw	v1,36(sp)
9d007e30:	afa20020 	sw	v0,32(sp)
9d007e34:	afa1001c 	sw	at,28(sp)
9d007e38:	00001012 	mflo	v0
9d007e3c:	afa2008c 	sw	v0,140(sp)
9d007e40:	00001810 	mfhi	v1
9d007e44:	afa30088 	sw	v1,136(sp)
9d007e48:	03a0f025 	move	s8,sp
	static float eprev = 0.0;
	static float eint = 0.0;
	static int index = 0;
	enum mode_t picMode = get_mode();
9d007e4c:	0f404f46 	jal	9d013d18 <get_mode>
9d007e50:	24110003 	li	s1,3
	if(picMode == HOLD){
9d007e54:	14510070 	bne	v0,s1,9d008018 <PositionController+0x278>
9d007e58:	3c049d00 	lui	a0,0x9d00
		WriteUART2("a");
9d007e5c:	0f403ba0 	jal	9d00ee80 <WriteUART2>
9d007e60:	248474f4 	addiu	a0,a0,29940
		while (!get_encoder_flag())
9d007e64:	0f403b30 	jal	9d00ecc0 <get_encoder_flag>
9d007e68:	00000000 	nop
9d007e6c:	1040fffd 	beqz	v0,9d007e64 <PositionController+0xc4>
9d007e70:	00000000 	nop
		{
		}
		set_encoder_flag(0);
9d007e74:	0f403b33 	jal	9d00eccc <set_encoder_flag>
9d007e78:	00002025 	move	a0,zero
		int cnt = get_encoder_count();
9d007e7c:	0f403b36 	jal	9d00ecd8 <get_encoder_count>
9d007e80:	00000000 	nop
		float degreesPerCount = 360.0 / (CPR * 4);
		float encoderAngle = cnt * degreesPerCount;
9d007e84:	0f404bf4 	jal	9d012fd0 <__floatsisf>
9d007e88:	00402025 	move	a0,v0
9d007e8c:	3c049d00 	lui	a0,0x9d00
9d007e90:	8c857570 	lw	a1,30064(a0)
9d007e94:	0f403ef9 	jal	9d00fbe4 <__mulsf3>
9d007e98:	00402025 	move	a0,v0
9d007e9c:	00409825 	move	s3,v0
		
		float e = desiredAngle - encoderAngle;
9d007ea0:	8f848054 	lw	a0,-32684(gp)
9d007ea4:	0f403deb 	jal	9d00f7ac <__subsf3>
9d007ea8:	00402825 	move	a1,v0
9d007eac:	00408025 	move	s0,v0
		float edot = e - eprev;
9d007eb0:	8f858040 	lw	a1,-32704(gp)
9d007eb4:	0f403deb 	jal	9d00f7ac <__subsf3>
9d007eb8:	00402025 	move	a0,v0
9d007ebc:	0040a025 	move	s4,v0
		eint = eint + e;
9d007ec0:	8f85803c 	lw	a1,-32708(gp)
9d007ec4:	0f403ded 	jal	9d00f7b4 <__addsf3>
9d007ec8:	02002025 	move	a0,s0
9d007ecc:	0040a825 	move	s5,v0
9d007ed0:	af82803c 	sw	v0,-32708(gp)
		commandedCurrent = (Kp_pos*e) + (Ki_pos*eint) + (Kd_pos*edot);
9d007ed4:	8f84801c 	lw	a0,-32740(gp)
9d007ed8:	8f968018 	lw	s6,-32744(gp)
9d007edc:	8f928014 	lw	s2,-32748(gp)
9d007ee0:	0f403ef9 	jal	9d00fbe4 <__mulsf3>
9d007ee4:	02002825 	move	a1,s0
9d007ee8:	00408825 	move	s1,v0
9d007eec:	02c02825 	move	a1,s6
9d007ef0:	0f403ef9 	jal	9d00fbe4 <__mulsf3>
9d007ef4:	02a02025 	move	a0,s5
9d007ef8:	00402825 	move	a1,v0
9d007efc:	0f403ded 	jal	9d00f7b4 <__addsf3>
9d007f00:	02202025 	move	a0,s1
9d007f04:	00408825 	move	s1,v0
9d007f08:	02802825 	move	a1,s4
9d007f0c:	0f403ef9 	jal	9d00fbe4 <__mulsf3>
9d007f10:	02402025 	move	a0,s2
9d007f14:	00402825 	move	a1,v0
9d007f18:	0f403ded 	jal	9d00f7b4 <__addsf3>
9d007f1c:	02202025 	move	a0,s1
9d007f20:	af828050 	sw	v0,-32688(gp)
		eprev = e;
9d007f24:	af908040 	sw	s0,-32704(gp)
		curAngle[index] = encoderAngle;
9d007f28:	8f918038 	lw	s1,-32712(gp)
9d007f2c:	00119080 	sll	s2,s1,0x2
9d007f30:	3c10a000 	lui	s0,0xa000
9d007f34:	261020b8 	addiu	s0,s0,8376
9d007f38:	02508021 	addu	s0,s2,s0
9d007f3c:	ae130000 	sw	s3,0(s0)
		refAngle[index] = desiredAngle;
9d007f40:	8f938054 	lw	s3,-32684(gp)
9d007f44:	3c10a000 	lui	s0,0xa000
9d007f48:	261026f8 	addiu	s0,s0,9976
9d007f4c:	02509021 	addu	s2,s2,s0
9d007f50:	ae530000 	sw	s3,0(s2)
		index++;
9d007f54:	26310001 	addiu	s1,s1,1
9d007f58:	af918038 	sw	s1,-32712(gp)
			set_mode(HOLD);
			eint = 0;
		}
	}

	IFS0bits.T4IF = 0;
9d007f5c:	3c10bf88 	lui	s0,0xbf88
9d007f60:	8e111030 	lw	s1,4144(s0)
9d007f64:	7c119cc4 	ins	s1,zero,0x13,0x1
9d007f68:	ae111030 	sw	s1,4144(s0)
}
9d007f6c:	03c0e825 	move	sp,s8
9d007f70:	8fa2008c 	lw	v0,140(sp)
9d007f74:	00400013 	mtlo	v0
9d007f78:	8fa30088 	lw	v1,136(sp)
9d007f7c:	00600011 	mthi	v1
9d007f80:	8fbf0084 	lw	ra,132(sp)
9d007f84:	8fbe0080 	lw	s8,128(sp)
9d007f88:	8fb9007c 	lw	t9,124(sp)
9d007f8c:	8fb80078 	lw	t8,120(sp)
9d007f90:	8fb70074 	lw	s7,116(sp)
9d007f94:	8fb60070 	lw	s6,112(sp)
9d007f98:	8fb5006c 	lw	s5,108(sp)
9d007f9c:	8fb40068 	lw	s4,104(sp)
9d007fa0:	8fb30064 	lw	s3,100(sp)
9d007fa4:	8fb20060 	lw	s2,96(sp)
9d007fa8:	8fb1005c 	lw	s1,92(sp)
9d007fac:	8fb00058 	lw	s0,88(sp)
9d007fb0:	8faf0054 	lw	t7,84(sp)
9d007fb4:	8fae0050 	lw	t6,80(sp)
9d007fb8:	8fad004c 	lw	t5,76(sp)
9d007fbc:	8fac0048 	lw	t4,72(sp)
9d007fc0:	8fab0044 	lw	t3,68(sp)
9d007fc4:	8faa0040 	lw	t2,64(sp)
9d007fc8:	8fa9003c 	lw	t1,60(sp)
9d007fcc:	8fa80038 	lw	t0,56(sp)
9d007fd0:	8fa70034 	lw	a3,52(sp)
9d007fd4:	8fa60030 	lw	a2,48(sp)
9d007fd8:	8fa5002c 	lw	a1,44(sp)
9d007fdc:	8fa40028 	lw	a0,40(sp)
9d007fe0:	8fa30024 	lw	v1,36(sp)
9d007fe4:	8fa20020 	lw	v0,32(sp)
9d007fe8:	8fa1001c 	lw	at,28(sp)
9d007fec:	41606000 	di
9d007ff0:	000000c0 	ehb
9d007ff4:	8fba009c 	lw	k0,156(sp)
9d007ff8:	8fbb0098 	lw	k1,152(sp)
9d007ffc:	409a7000 	mtc0	k0,c0_epc
9d008000:	8fba0094 	lw	k0,148(sp)
9d008004:	27bd00a0 	addiu	sp,sp,160
9d008008:	409a6002 	mtc0	k0,c0_srsctl
9d00800c:	41dde800 	wrpgpr	sp,sp
9d008010:	409b6000 	mtc0	k1,c0_status
9d008014:	42000018 	eret
	if(picMode == IDLE){
9d008018:	14400005 	bnez	v0,9d008030 <PositionController+0x290>
9d00801c:	00008025 	move	s0,zero
		index = 0;
9d008020:	af808038 	sw	zero,-32712(gp)
		eint = 0.0;
9d008024:	af90803c 	sw	s0,-32708(gp)
		eprev = 0.0;
9d008028:	1000ffcc 	b	9d007f5c <PositionController+0x1bc>
9d00802c:	af908040 	sw	s0,-32704(gp)
	if(picMode == TRACK){
9d008030:	24110004 	li	s1,4
9d008034:	1451ffc9 	bne	v0,s1,9d007f5c <PositionController+0x1bc>
9d008038:	3c049d00 	lui	a0,0x9d00
		WriteUART2("a");
9d00803c:	0f403ba0 	jal	9d00ee80 <WriteUART2>
9d008040:	248474f4 	addiu	a0,a0,29940
		while (!get_encoder_flag())
9d008044:	0f403b30 	jal	9d00ecc0 <get_encoder_flag>
9d008048:	00000000 	nop
9d00804c:	1040fffd 	beqz	v0,9d008044 <PositionController+0x2a4>
9d008050:	00000000 	nop
		set_encoder_flag(0);
9d008054:	0f403b33 	jal	9d00eccc <set_encoder_flag>
9d008058:	00002025 	move	a0,zero
		int cnt = get_encoder_count();
9d00805c:	0f403b36 	jal	9d00ecd8 <get_encoder_count>
9d008060:	00000000 	nop
		float encoderAngle = cnt * degreesPerCount;
9d008064:	0f404bf4 	jal	9d012fd0 <__floatsisf>
9d008068:	00402025 	move	a0,v0
9d00806c:	3c049d00 	lui	a0,0x9d00
9d008070:	8c857570 	lw	a1,30064(a0)
9d008074:	0f403ef9 	jal	9d00fbe4 <__mulsf3>
9d008078:	00402025 	move	a0,v0
9d00807c:	0040a025 	move	s4,v0
		float desAngle = refTraj[index];
9d008080:	8f908038 	lw	s0,-32712(gp)
9d008084:	00108880 	sll	s1,s0,0x2
9d008088:	3c04a000 	lui	a0,0xa000
9d00808c:	24840178 	addiu	a0,a0,376
9d008090:	02242021 	addu	a0,s1,a0
		float e = desAngle - encoderAngle;
9d008094:	00402825 	move	a1,v0
9d008098:	0f403deb 	jal	9d00f7ac <__subsf3>
9d00809c:	8c840000 	lw	a0,0(a0)
9d0080a0:	00409025 	move	s2,v0
		float edot = e - eprev;
9d0080a4:	8f858040 	lw	a1,-32704(gp)
9d0080a8:	0f403deb 	jal	9d00f7ac <__subsf3>
9d0080ac:	00402025 	move	a0,v0
9d0080b0:	afc20010 	sw	v0,16(s8)
		eint = eint + e;
9d0080b4:	8f85803c 	lw	a1,-32708(gp)
9d0080b8:	0f403ded 	jal	9d00f7b4 <__addsf3>
9d0080bc:	02402025 	move	a0,s2
9d0080c0:	0040b025 	move	s6,v0
9d0080c4:	af82803c 	sw	v0,-32708(gp)
		commandedCurrent = (Kp_pos*e) + (Ki_pos*eint) + (Kd_pos*edot);
9d0080c8:	8f84801c 	lw	a0,-32740(gp)
9d0080cc:	8f978018 	lw	s7,-32744(gp)
9d0080d0:	8f938014 	lw	s3,-32748(gp)
9d0080d4:	0f403ef9 	jal	9d00fbe4 <__mulsf3>
9d0080d8:	02402825 	move	a1,s2
9d0080dc:	0040a825 	move	s5,v0
9d0080e0:	02e02825 	move	a1,s7
9d0080e4:	0f403ef9 	jal	9d00fbe4 <__mulsf3>
9d0080e8:	02c02025 	move	a0,s6
9d0080ec:	00402825 	move	a1,v0
9d0080f0:	0f403ded 	jal	9d00f7b4 <__addsf3>
9d0080f4:	02a02025 	move	a0,s5
9d0080f8:	0040a825 	move	s5,v0
9d0080fc:	8fc50010 	lw	a1,16(s8)
9d008100:	0f403ef9 	jal	9d00fbe4 <__mulsf3>
9d008104:	02602025 	move	a0,s3
9d008108:	00402825 	move	a1,v0
9d00810c:	0f403ded 	jal	9d00f7b4 <__addsf3>
9d008110:	02a02025 	move	a0,s5
9d008114:	af828050 	sw	v0,-32688(gp)
		eprev = e;
9d008118:	af928040 	sw	s2,-32704(gp)
		motorAngle[index] = encoderAngle;
9d00811c:	3c12a000 	lui	s2,0xa000
9d008120:	26521118 	addiu	s2,s2,4376
9d008124:	02328821 	addu	s1,s1,s2
9d008128:	ae340000 	sw	s4,0(s1)
		index++;
9d00812c:	26100001 	addiu	s0,s0,1
9d008130:	af908038 	sw	s0,-32712(gp)
		if(index >= trajectorySize){
9d008134:	8f91804c 	lw	s1,-32692(gp)
9d008138:	0211802a 	slt	s0,s0,s1
9d00813c:	1600ff88 	bnez	s0,9d007f60 <PositionController+0x1c0>
9d008140:	3c10bf88 	lui	s0,0xbf88
			desiredAngle = refTraj[trajectorySize - 1];
9d008144:	8f84804c 	lw	a0,-32692(gp)
9d008148:	2484ffff 	addiu	a0,a0,-1
9d00814c:	00042080 	sll	a0,a0,0x2
9d008150:	3c10a000 	lui	s0,0xa000
9d008154:	26100178 	addiu	s0,s0,376
9d008158:	00902021 	addu	a0,a0,s0
9d00815c:	8c840000 	lw	a0,0(a0)
9d008160:	af848054 	sw	a0,-32684(gp)
			set_mode(HOLD);
9d008164:	0f404f49 	jal	9d013d24 <set_mode>
9d008168:	24040003 	li	a0,3
			eint = 0;
9d00816c:	00008025 	move	s0,zero
9d008170:	1000ff7a 	b	9d007f5c <PositionController+0x1bc>
9d008174:	af90803c 	sw	s0,-32708(gp)

9d008178 <Setup_Timer4>:

void Setup_Timer4(){
9d008178:	27bdfff8 	addiu	sp,sp,-8
9d00817c:	afbf0004 	sw	ra,4(sp)
	PR4 = 7500 - 1; // 200Hz ISR
9d008180:	3c02bf80 	lui	v0,0xbf80
9d008184:	24031d4b 	li	v1,7499
9d008188:	ac430c20 	sw	v1,3104(v0)
	__builtin_disable_interrupts();
9d00818c:	41626000 	di	v0
9d008190:	000000c0 	ehb
	T4CONbits.TCKPS = 0b101; // prescaler 32
9d008194:	3c02bf80 	lui	v0,0xbf80
9d008198:	94430c00 	lhu	v1,3072(v0)
9d00819c:	24040005 	li	a0,5
9d0081a0:	7c833104 	ins	v1,a0,0x4,0x3
9d0081a4:	a4430c00 	sh	v1,3072(v0)
	IPC4bits.T4IP = 6;
9d0081a8:	3c03bf88 	lui	v1,0xbf88
9d0081ac:	8c6410d0 	lw	a0,4304(v1)
9d0081b0:	24050006 	li	a1,6
9d0081b4:	7ca42084 	ins	a0,a1,0x2,0x3
9d0081b8:	ac6410d0 	sw	a0,4304(v1)
	IPC4bits.T4IS = 0;
9d0081bc:	8c6410d0 	lw	a0,4304(v1)
9d0081c0:	7c040804 	ins	a0,zero,0x0,0x2
9d0081c4:	ac6410d0 	sw	a0,4304(v1)
	IFS0bits.T4IF = 0;
9d0081c8:	3c03bf88 	lui	v1,0xbf88
9d0081cc:	8c641030 	lw	a0,4144(v1)
9d0081d0:	7c049cc4 	ins	a0,zero,0x13,0x1
9d0081d4:	ac641030 	sw	a0,4144(v1)
	IEC0bits.T4IE = 1;
9d0081d8:	3c03bf88 	lui	v1,0xbf88
9d0081dc:	8c651060 	lw	a1,4192(v1)
9d0081e0:	24040001 	li	a0,1
9d0081e4:	7c859cc4 	ins	a1,a0,0x13,0x1
9d0081e8:	ac651060 	sw	a1,4192(v1)
	T4CONbits.ON = 1;
9d0081ec:	94430c00 	lhu	v1,3072(v0)
9d0081f0:	7c837bc4 	ins	v1,a0,0xf,0x1
9d0081f4:	a4430c00 	sh	v1,3072(v0)
	TMR4 = 0;
9d0081f8:	3c02bf80 	lui	v0,0xbf80
9d0081fc:	ac400c10 	sw	zero,3088(v0)
	__builtin_enable_interrupts();
9d008200:	41626020 	ei	v0
}
9d008204:	8fbf0004 	lw	ra,4(sp)
9d008208:	03e00008 	jr	ra
9d00820c:	27bd0008 	addiu	sp,sp,8

9d008210 <Setup_PWM>:

void Setup_PWM()
{
9d008210:	27bdfff8 	addiu	sp,sp,-8
9d008214:	afbf0004 	sw	ra,4(sp)
	PR3 = 2400 - 1; // 20kHz PWM Waveform
9d008218:	3c02bf80 	lui	v0,0xbf80
9d00821c:	2403095f 	li	v1,2399
9d008220:	ac430a20 	sw	v1,2592(v0)
	__builtin_disable_interrupts();
9d008224:	41626000 	di	v0
9d008228:	000000c0 	ehb
	T2CONbits.TCKPS = 0;
9d00822c:	3c04bf80 	lui	a0,0xbf80
9d008230:	94820800 	lhu	v0,2048(a0)
9d008234:	7c023104 	ins	v0,zero,0x4,0x3
9d008238:	a4820800 	sh	v0,2048(a0)
	PR2 = 9600 - 1; // 5kHz ISR
9d00823c:	3c02bf80 	lui	v0,0xbf80
9d008240:	2403257f 	li	v1,9599
9d008244:	ac430820 	sw	v1,2080(v0)
	TMR2 = 0;
9d008248:	3c02bf80 	lui	v0,0xbf80
9d00824c:	ac400810 	sw	zero,2064(v0)
	// setting priority for the interrup timer
	IPC2bits.T2IP = 5;
9d008250:	3c02bf88 	lui	v0,0xbf88
9d008254:	8c4310b0 	lw	v1,4272(v0)
9d008258:	24060005 	li	a2,5
9d00825c:	7cc32084 	ins	v1,a2,0x2,0x3
9d008260:	ac4310b0 	sw	v1,4272(v0)
	IPC2bits.T2IS = 0;
9d008264:	8c4310b0 	lw	v1,4272(v0)
9d008268:	7c030804 	ins	v1,zero,0x0,0x2
9d00826c:	ac4310b0 	sw	v1,4272(v0)
	IFS0bits.T2IF = 0;
9d008270:	3c02bf88 	lui	v0,0xbf88
9d008274:	8c431030 	lw	v1,4144(v0)
9d008278:	7c034a44 	ins	v1,zero,0x9,0x1
9d00827c:	ac431030 	sw	v1,4144(v0)
	IEC0bits.T2IE = 1;
9d008280:	3c02bf88 	lui	v0,0xbf88
9d008284:	8c451060 	lw	a1,4192(v0)
9d008288:	24030001 	li	v1,1
9d00828c:	7c654a44 	ins	a1,v1,0x9,0x1
9d008290:	ac451060 	sw	a1,4192(v0)
	RPB15Rbits.RPB15R = 0b0101;
9d008294:	3c02bf81 	lui	v0,0xbf81
9d008298:	9045fb68 	lbu	a1,-1176(v0)
9d00829c:	7cc51804 	ins	a1,a2,0x0,0x4
9d0082a0:	a045fb68 	sb	a1,-1176(v0)
	OC1CONbits.OCTSEL = 1;
9d0082a4:	3c02bf80 	lui	v0,0xbf80
9d0082a8:	94453000 	lhu	a1,12288(v0)
9d0082ac:	7c6518c4 	ins	a1,v1,0x3,0x1
9d0082b0:	a4453000 	sh	a1,12288(v0)
	T3CONbits.TCKPS = 0;	// Timer3 prescaler N=1 (1:1)
9d0082b4:	3c05bf80 	lui	a1,0xbf80
9d0082b8:	94a60a00 	lhu	a2,2560(a1)
9d0082bc:	7c063104 	ins	a2,zero,0x4,0x3
9d0082c0:	a4a60a00 	sh	a2,2560(a1)
	TMR3 = 0;				// initial TMR3 count is 0
9d0082c4:	3c06bf80 	lui	a2,0xbf80
9d0082c8:	acc00a10 	sw	zero,2576(a2)
	OC1CONbits.OCM = 0b110; // PWM mode without fault pin; other OC1CON bits are defaults
9d0082cc:	94463000 	lhu	a2,12288(v0)
9d0082d0:	24070006 	li	a3,6
9d0082d4:	7ce61004 	ins	a2,a3,0x0,0x3
9d0082d8:	a4463000 	sh	a2,12288(v0)
	OC1RS = 0;				// duty cycle = OC1RS/(PR3+1)
9d0082dc:	3c06bf80 	lui	a2,0xbf80
9d0082e0:	acc03020 	sw	zero,12320(a2)
	OC1R = 0;				// initialize before turning OC1 on; afterward it is read-only
9d0082e4:	3c06bf80 	lui	a2,0xbf80
9d0082e8:	acc03010 	sw	zero,12304(a2)
	T3CONbits.ON = 1;		// turn on Timer3
9d0082ec:	94a60a00 	lhu	a2,2560(a1)
9d0082f0:	7c667bc4 	ins	a2,v1,0xf,0x1
9d0082f4:	a4a60a00 	sh	a2,2560(a1)
	OC1CONbits.ON = 1;		// turn on OC1
9d0082f8:	94453000 	lhu	a1,12288(v0)
9d0082fc:	7c657bc4 	ins	a1,v1,0xf,0x1
9d008300:	a4453000 	sh	a1,12288(v0)
	T2CONbits.ON = 1;
9d008304:	94820800 	lhu	v0,2048(a0)
9d008308:	7c627bc4 	ins	v0,v1,0xf,0x1
9d00830c:	a4820800 	sh	v0,2048(a0)
	__builtin_enable_interrupts();
9d008310:	41626020 	ei	v0
}
9d008314:	8fbf0004 	lw	ra,4(sp)
9d008318:	03e00008 	jr	ra
9d00831c:	27bd0008 	addiu	sp,sp,8

9d008320 <main>:

int main()
{
9d008320:	27bdfea8 	addiu	sp,sp,-344
9d008324:	afbf0154 	sw	ra,340(sp)
9d008328:	afbe0150 	sw	s8,336(sp)
9d00832c:	afb7014c 	sw	s7,332(sp)
9d008330:	afb60148 	sw	s6,328(sp)
9d008334:	afb50144 	sw	s5,324(sp)
9d008338:	afb40140 	sw	s4,320(sp)
9d00833c:	afb3013c 	sw	s3,316(sp)
9d008340:	afb20138 	sw	s2,312(sp)
9d008344:	afb10134 	sw	s1,308(sp)
	char buffer[BUF_SIZE];
	UART2_Startup();   // Pico and PIC32 communcation
9d008348:	0f403bb0 	jal	9d00eec0 <UART2_Startup>
9d00834c:	afb00130 	sw	s0,304(sp)
	NU32DIP_Startup(); // cache on, min flash wait, interrupts on, LED/button init, UART init
9d008350:	0f403e89 	jal	9d00fa24 <NU32DIP_Startup>
9d008354:	00000000 	nop
	INA219_Startup();  // current sensor startup
9d008358:	0f404159 	jal	9d010564 <INA219_Startup>
9d00835c:	00000000 	nop
	Setup_PWM();
9d008360:	0f402084 	jal	9d008210 <Setup_PWM>
9d008364:	00000000 	nop
	Setup_Timer4();
9d008368:	0f40205e 	jal	9d008178 <Setup_Timer4>
9d00836c:	00000000 	nop
	TRISBbits.TRISB10 = 0; // set pin B10 as output
9d008370:	3c02bf88 	lui	v0,0xbf88
9d008374:	94436110 	lhu	v1,24848(v0)
9d008378:	7c035284 	ins	v1,zero,0xa,0x1
9d00837c:	a4436110 	sh	v1,24848(v0)
	LATBbits.LATB10 = 0; // set the initial bit state
9d008380:	3c02bf88 	lui	v0,0xbf88
9d008384:	94436130 	lhu	v1,24880(v0)
9d008388:	7c035284 	ins	v1,zero,0xa,0x1
9d00838c:	a4436130 	sh	v1,24880(v0)
	TRISAbits.TRISA0 = 0; // set pin A0 as output
9d008390:	3c03bf88 	lui	v1,0xbf88
9d008394:	90646010 	lbu	a0,24592(v1)
9d008398:	7c040004 	ins	a0,zero,0x0,0x1
9d00839c:	a0646010 	sb	a0,24592(v1)
	LATAbits.LATA0 = 0;	  // set the initial direction of the motor rotation (depends on pin state)
9d0083a0:	3c03bf88 	lui	v1,0xbf88
9d0083a4:	90646030 	lbu	a0,24624(v1)
9d0083a8:	7c040004 	ins	a0,zero,0x0,0x1
9d0083ac:	a0646030 	sb	a0,24624(v1)
	NU32DIP_YELLOW = 1;	  // turn off the LEDs
9d0083b0:	94436130 	lhu	v1,24880(v0)
9d0083b4:	24040001 	li	a0,1
9d0083b8:	7c832944 	ins	v1,a0,0x5,0x1
9d0083bc:	a4436130 	sh	v1,24880(v0)
	NU32DIP_GREEN = 1;
9d0083c0:	94436130 	lhu	v1,24880(v0)
9d0083c4:	7c832104 	ins	v1,a0,0x4,0x1
9d0083c8:	a4436130 	sh	v1,24880(v0)
	set_mode(IDLE);
9d0083cc:	0f404f49 	jal	9d013d24 <set_mode>
9d0083d0:	00002025 	move	a0,zero
	__builtin_disable_interrupts();
9d0083d4:	41626000 	di	v0
9d0083d8:	000000c0 	ehb
	// in future, initialize modules or peripherals here
	__builtin_enable_interrupts();
9d0083dc:	41626020 	ei	v0

	while (1)
	{
		NU32DIP_ReadUART1(buffer, BUF_SIZE); // we expect the next character to be a menu command
		NU32DIP_GREEN = 1;					 // clear the error LED
9d0083e0:	3c11bf88 	lui	s1,0xbf88
		switch (buffer[0])
9d0083e4:	3c029d01 	lui	v0,0x9d01
9d0083e8:	244284d0 	addiu	v0,v0,-31536
9d0083ec:	afa200f8 	sw	v0,248(sp)
		}
		case 'r':
		{
			// read the current mode of the PIC32
			enum mode_t currentMode = get_mode();
			sprintf(buffer, "%s\r\n", modeToString(currentMode));
9d0083f0:	3c029d00 	lui	v0,0x9d00
9d0083f4:	afa200fc 	sw	v0,252(sp)
			sprintf(buffer, "%d\r\n", trajectorySize);
9d0083f8:	3c109d00 	lui	s0,0x9d00
9d0083fc:	3c12a000 	lui	s2,0xa000
9d008400:	3c02a000 	lui	v0,0xa000
9d008404:	afa20100 	sw	v0,256(sp)
					sprintf(buffer, "%f %f\r\n", refTraj[i], motorAngle[i]);
9d008408:	3c029d00 	lui	v0,0x9d00
9d00840c:	24427554 	addiu	v0,v0,30036
9d008410:	afa200e8 	sw	v0,232(sp)
			sscanf(buffer, "%d", &trajectorySize);
9d008414:	3c139d00 	lui	s3,0x9d00
				sscanf(buffer, "%f", &refTraj[index]);
9d008418:	3c029d00 	lui	v0,0x9d00
9d00841c:	2442755c 	addiu	v0,v0,30044
9d008420:	afa200ec 	sw	v0,236(sp)
9d008424:	3c02a000 	lui	v0,0xa000
9d008428:	afa20104 	sw	v0,260(sp)
9d00842c:	3c02a000 	lui	v0,0xa000
9d008430:	afa20108 	sw	v0,264(sp)
9d008434:	3c02a000 	lui	v0,0xa000
9d008438:	afa2010c 	sw	v0,268(sp)
9d00843c:	3c02a000 	lui	v0,0xa000
9d008440:	afa20110 	sw	v0,272(sp)
			sprintf(buffer, "Kp: %f, Ki: %f, Kd: %f\r\n", Kp_pos, Ki_pos, Kd_pos);
9d008444:	3c029d00 	lui	v0,0x9d00
9d008448:	afa20114 	sw	v0,276(sp)
			sscanf(buffer, "%f %f %f", &Kp_pos, &Ki_pos, &Kd_pos);
9d00844c:	3c029d00 	lui	v0,0x9d00
9d008450:	afa20118 	sw	v0,280(sp)
			sprintf(buffer, "Kp: %f, Ki: %f\r\n", Kp_mA, Ki_mA);
9d008454:	3c029d00 	lui	v0,0x9d00
9d008458:	afa2011c 	sw	v0,284(sp)
			sscanf(buffer, "%f %f", &Kp_mA, &Ki_mA);
9d00845c:	3c029d00 	lui	v0,0x9d00
9d008460:	afa20120 	sw	v0,288(sp)
			WriteUART2("b");
9d008464:	3c029d00 	lui	v0,0x9d00
9d008468:	afa20124 	sw	v0,292(sp)
			WriteUART2("a");
9d00846c:	3c029d00 	lui	v0,0x9d00
9d008470:	afa200f4 	sw	v0,244(sp)
			float encoderAngle = cnt * degreesPerCount;
9d008474:	3c029d00 	lui	v0,0x9d00
9d008478:	afa20128 	sw	v0,296(sp)
			sprintf(buffer, "%f\r\n", encoderAngle);
9d00847c:	3c029d00 	lui	v0,0x9d00
9d008480:	afa200f0 	sw	v0,240(sp)
		NU32DIP_ReadUART1(buffer, BUF_SIZE); // we expect the next character to be a menu command
9d008484:	240500c8 	li	a1,200
9d008488:	0f403ed1 	jal	9d00fb44 <NU32DIP_ReadUART1>
9d00848c:	27a40020 	addiu	a0,sp,32
		NU32DIP_GREEN = 1;					 // clear the error LED
9d008490:	96226130 	lhu	v0,24880(s1)
9d008494:	24030001 	li	v1,1
9d008498:	7c622104 	ins	v0,v1,0x4,0x1
9d00849c:	a6226130 	sh	v0,24880(s1)
		switch (buffer[0])
9d0084a0:	93a20020 	lbu	v0,32(sp)
9d0084a4:	2442ff9f 	addiu	v0,v0,-97
9d0084a8:	304300ff 	andi	v1,v0,0xff
9d0084ac:	2c630012 	sltiu	v1,v1,18
9d0084b0:	10600189 	beqz	v1,9d008ad8 <__jend_main_44+0x5c0>
9d0084b4:	304200ff 	andi	v0,v0,0xff
9d0084b8:	00021080 	sll	v0,v0,0x2
9d0084bc:	8fa300f8 	lw	v1,248(sp)
9d0084c0:	00621021 	addu	v0,v1,v0
9d0084c4:	8c420000 	lw	v0,0(v0)
9d0084c8:	00400008 	jr	v0
9d0084cc:	00000000 	nop

9d0084d0 <__jump_main_44>:
9d0084d0:	9d008518 9d008558 9d008590 9d0085dc     ....X...........
9d0084e0:	9d008650 9d008664 9d008690 9d0086bc     P...d...........
9d0084f0:	9d00870c 9d008740 9d0087a4 9d008844     ....@.......D...
9d008500:	9d008900 9d008964 9d0089c8 9d008a84     ....d...........
9d008510:	9d008a94 9d008aa4                       ........

9d008518 <__jend_main_44>:
			float adcReading = readINA219(INA219_REG_CURRENT);
9d008518:	0f404169 	jal	9d0105a4 <readINA219>
9d00851c:	24040004 	li	a0,4
9d008520:	0f404bf4 	jal	9d012fd0 <__floatsisf>
9d008524:	00402025 	move	a0,v0
			sprintf(buffer, "%f\r\n", adcReading);
9d008528:	0f404784 	jal	9d011e10 <__extendsfdf2>
9d00852c:	00402025 	move	a0,v0
9d008530:	00403025 	move	a2,v0
9d008534:	00603825 	move	a3,v1
9d008538:	8fa200f0 	lw	v0,240(sp)
9d00853c:	244574f8 	addiu	a1,v0,29944
9d008540:	0f404e5e 	jal	9d013978 <_dsprintf_cdeEfFgGns>
9d008544:	27a40020 	addiu	a0,sp,32
			NU32DIP_WriteUART1(buffer);
9d008548:	0f403eea 	jal	9d00fba8 <NU32DIP_WriteUART1>
9d00854c:	27a40020 	addiu	a0,sp,32
			break;
9d008550:	1000ffcd 	b	9d008488 <main+0x168>
9d008554:	240500c8 	li	a1,200
			float currentReading = INA219_read_current();
9d008558:	0f40418b 	jal	9d01062c <INA219_read_current>
9d00855c:	00000000 	nop
			sprintf(buffer, "%f\r\n", currentReading);
9d008560:	0f404784 	jal	9d011e10 <__extendsfdf2>
9d008564:	00402025 	move	a0,v0
9d008568:	00403025 	move	a2,v0
9d00856c:	00603825 	move	a3,v1
9d008570:	8fa200f0 	lw	v0,240(sp)
9d008574:	244574f8 	addiu	a1,v0,29944
9d008578:	0f404e5e 	jal	9d013978 <_dsprintf_cdeEfFgGns>
9d00857c:	27a40020 	addiu	a0,sp,32
			NU32DIP_WriteUART1(buffer);
9d008580:	0f403eea 	jal	9d00fba8 <NU32DIP_WriteUART1>
9d008584:	27a40020 	addiu	a0,sp,32
			break;
9d008588:	1000ffbf 	b	9d008488 <main+0x168>
9d00858c:	240500c8 	li	a1,200
			WriteUART2("a");
9d008590:	8fa200f4 	lw	v0,244(sp)
9d008594:	0f403ba0 	jal	9d00ee80 <WriteUART2>
9d008598:	244474f4 	addiu	a0,v0,29940
			while (!get_encoder_flag())
9d00859c:	0f403b30 	jal	9d00ecc0 <get_encoder_flag>
9d0085a0:	00000000 	nop
9d0085a4:	1040fffd 	beqz	v0,9d00859c <__jend_main_44+0x84>
9d0085a8:	00000000 	nop
			set_encoder_flag(0);
9d0085ac:	0f403b33 	jal	9d00eccc <set_encoder_flag>
9d0085b0:	00002025 	move	a0,zero
			sprintf(buffer, "%d\r\n", get_encoder_count());
9d0085b4:	0f403b36 	jal	9d00ecd8 <get_encoder_count>
9d0085b8:	00000000 	nop
9d0085bc:	00403025 	move	a2,v0
9d0085c0:	26057500 	addiu	a1,s0,29952
9d0085c4:	0f404e5e 	jal	9d013978 <_dsprintf_cdeEfFgGns>
9d0085c8:	27a40020 	addiu	a0,sp,32
			NU32DIP_WriteUART1(buffer);
9d0085cc:	0f403eea 	jal	9d00fba8 <NU32DIP_WriteUART1>
9d0085d0:	27a40020 	addiu	a0,sp,32
			break;
9d0085d4:	1000ffac 	b	9d008488 <main+0x168>
9d0085d8:	240500c8 	li	a1,200
			WriteUART2("a");
9d0085dc:	8fa200f4 	lw	v0,244(sp)
9d0085e0:	0f403ba0 	jal	9d00ee80 <WriteUART2>
9d0085e4:	244474f4 	addiu	a0,v0,29940
			while (!get_encoder_flag())
9d0085e8:	0f403b30 	jal	9d00ecc0 <get_encoder_flag>
9d0085ec:	00000000 	nop
9d0085f0:	1040fffd 	beqz	v0,9d0085e8 <__jend_main_44+0xd0>
9d0085f4:	00000000 	nop
			set_encoder_flag(0);
9d0085f8:	0f403b33 	jal	9d00eccc <set_encoder_flag>
9d0085fc:	00002025 	move	a0,zero
			int cnt = get_encoder_count();
9d008600:	0f403b36 	jal	9d00ecd8 <get_encoder_count>
9d008604:	00000000 	nop
			float encoderAngle = cnt * degreesPerCount;
9d008608:	0f404bf4 	jal	9d012fd0 <__floatsisf>
9d00860c:	00402025 	move	a0,v0
9d008610:	8fa30128 	lw	v1,296(sp)
9d008614:	8c657570 	lw	a1,30064(v1)
9d008618:	0f403ef9 	jal	9d00fbe4 <__mulsf3>
9d00861c:	00402025 	move	a0,v0
			sprintf(buffer, "%f\r\n", encoderAngle);
9d008620:	0f404784 	jal	9d011e10 <__extendsfdf2>
9d008624:	00402025 	move	a0,v0
9d008628:	00403025 	move	a2,v0
9d00862c:	00603825 	move	a3,v1
9d008630:	8fa200f0 	lw	v0,240(sp)
9d008634:	244574f8 	addiu	a1,v0,29944
9d008638:	0f404e5e 	jal	9d013978 <_dsprintf_cdeEfFgGns>
9d00863c:	27a40020 	addiu	a0,sp,32
			NU32DIP_WriteUART1(buffer);
9d008640:	0f403eea 	jal	9d00fba8 <NU32DIP_WriteUART1>
9d008644:	27a40020 	addiu	a0,sp,32
			break;
9d008648:	1000ff8f 	b	9d008488 <main+0x168>
9d00864c:	240500c8 	li	a1,200
			WriteUART2("b");
9d008650:	8fa20124 	lw	v0,292(sp)
9d008654:	0f403ba0 	jal	9d00ee80 <WriteUART2>
9d008658:	24447508 	addiu	a0,v0,29960
			break;
9d00865c:	1000ff8a 	b	9d008488 <main+0x168>
9d008660:	240500c8 	li	a1,200
			NU32DIP_ReadUART1(buffer, BUF_SIZE);
9d008664:	240500c8 	li	a1,200
9d008668:	0f403ed1 	jal	9d00fb44 <NU32DIP_ReadUART1>
9d00866c:	27a40020 	addiu	a0,sp,32
			sscanf(buffer, "%d", &dutyCycle);
9d008670:	27868058 	addiu	a2,gp,-32680
9d008674:	2665750c 	addiu	a1,s3,29964
9d008678:	0f404e68 	jal	9d0139a0 <_dsscanf_deEfFgGn>
9d00867c:	27a40020 	addiu	a0,sp,32
			set_mode(PWM);
9d008680:	0f404f49 	jal	9d013d24 <set_mode>
9d008684:	24040001 	li	a0,1
			break;
9d008688:	1000ff7f 	b	9d008488 <main+0x168>
9d00868c:	240500c8 	li	a1,200
			NU32DIP_ReadUART1(buffer, BUF_SIZE);
9d008690:	240500c8 	li	a1,200
9d008694:	0f403ed1 	jal	9d00fb44 <NU32DIP_ReadUART1>
9d008698:	27a40020 	addiu	a0,sp,32
			sscanf(buffer, "%f %f", &Kp_mA, &Ki_mA);
9d00869c:	27878020 	addiu	a3,gp,-32736
9d0086a0:	27868024 	addiu	a2,gp,-32732
9d0086a4:	8fa20120 	lw	v0,288(sp)
9d0086a8:	24457510 	addiu	a1,v0,29968
9d0086ac:	0f404e68 	jal	9d0139a0 <_dsscanf_deEfFgGn>
9d0086b0:	27a40020 	addiu	a0,sp,32
			break;
9d0086b4:	1000ff74 	b	9d008488 <main+0x168>
9d0086b8:	240500c8 	li	a1,200
			sprintf(buffer, "Kp: %f, Ki: %f\r\n", Kp_mA, Ki_mA);
9d0086bc:	8f848024 	lw	a0,-32732(gp)
9d0086c0:	8f968020 	lw	s6,-32736(gp)
9d0086c4:	0f404784 	jal	9d011e10 <__extendsfdf2>
9d0086c8:	00000000 	nop
9d0086cc:	0040a025 	move	s4,v0
9d0086d0:	0060a825 	move	s5,v1
9d0086d4:	0f404784 	jal	9d011e10 <__extendsfdf2>
9d0086d8:	02c02025 	move	a0,s6
9d0086dc:	afa20010 	sw	v0,16(sp)
9d0086e0:	afa30014 	sw	v1,20(sp)
9d0086e4:	02803025 	move	a2,s4
9d0086e8:	02a03825 	move	a3,s5
9d0086ec:	8fa2011c 	lw	v0,284(sp)
9d0086f0:	24457518 	addiu	a1,v0,29976
9d0086f4:	0f404e5e 	jal	9d013978 <_dsprintf_cdeEfFgGns>
9d0086f8:	27a40020 	addiu	a0,sp,32
			NU32DIP_WriteUART1(buffer);
9d0086fc:	0f403eea 	jal	9d00fba8 <NU32DIP_WriteUART1>
9d008700:	27a40020 	addiu	a0,sp,32
			break;
9d008704:	1000ff60 	b	9d008488 <main+0x168>
9d008708:	240500c8 	li	a1,200
			NU32DIP_ReadUART1(buffer, BUF_SIZE);
9d00870c:	240500c8 	li	a1,200
9d008710:	0f403ed1 	jal	9d00fb44 <NU32DIP_ReadUART1>
9d008714:	27a40020 	addiu	a0,sp,32
			sscanf(buffer, "%f %f %f", &Kp_pos, &Ki_pos, &Kd_pos);
9d008718:	27828014 	addiu	v0,gp,-32748
9d00871c:	afa20010 	sw	v0,16(sp)
9d008720:	27878018 	addiu	a3,gp,-32744
9d008724:	2786801c 	addiu	a2,gp,-32740
9d008728:	8fa20118 	lw	v0,280(sp)
9d00872c:	2445752c 	addiu	a1,v0,29996
9d008730:	0f404e68 	jal	9d0139a0 <_dsscanf_deEfFgGn>
9d008734:	27a40020 	addiu	a0,sp,32
			break;
9d008738:	1000ff53 	b	9d008488 <main+0x168>
9d00873c:	240500c8 	li	a1,200
			sprintf(buffer, "Kp: %f, Ki: %f, Kd: %f\r\n", Kp_pos, Ki_pos, Kd_pos);
9d008740:	8f84801c 	lw	a0,-32740(gp)
9d008744:	8f968018 	lw	s6,-32744(gp)
9d008748:	8f978014 	lw	s7,-32748(gp)
9d00874c:	0f404784 	jal	9d011e10 <__extendsfdf2>
9d008750:	00000000 	nop
9d008754:	0040a025 	move	s4,v0
9d008758:	0060a825 	move	s5,v1
9d00875c:	0f404784 	jal	9d011e10 <__extendsfdf2>
9d008760:	02e02025 	move	a0,s7
9d008764:	afa20018 	sw	v0,24(sp)
9d008768:	afa3001c 	sw	v1,28(sp)
9d00876c:	0f404784 	jal	9d011e10 <__extendsfdf2>
9d008770:	02c02025 	move	a0,s6
9d008774:	afa20010 	sw	v0,16(sp)
9d008778:	afa30014 	sw	v1,20(sp)
9d00877c:	02803025 	move	a2,s4
9d008780:	02a03825 	move	a3,s5
9d008784:	8fa20114 	lw	v0,276(sp)
9d008788:	24457538 	addiu	a1,v0,30008
9d00878c:	0f404e5e 	jal	9d013978 <_dsprintf_cdeEfFgGns>
9d008790:	27a40020 	addiu	a0,sp,32
			NU32DIP_WriteUART1(buffer);
9d008794:	0f403eea 	jal	9d00fba8 <NU32DIP_WriteUART1>
9d008798:	27a40020 	addiu	a0,sp,32
			break;
9d00879c:	1000ff3a 	b	9d008488 <main+0x168>
9d0087a0:	240500c8 	li	a1,200
			set_mode(ITEST);
9d0087a4:	0f404f49 	jal	9d013d24 <set_mode>
9d0087a8:	24040002 	li	a0,2
			enum mode_t currentMode = get_mode();
9d0087ac:	0f404f46 	jal	9d013d18 <get_mode>
9d0087b0:	00000000 	nop
			while (currentMode != IDLE)
9d0087b4:	10400005 	beqz	v0,9d0087cc <__jend_main_44+0x2b4>
9d0087b8:	24060064 	li	a2,100
				currentMode = get_mode();
9d0087bc:	0f404f46 	jal	9d013d18 <get_mode>
9d0087c0:	00000000 	nop
			while (currentMode != IDLE)
9d0087c4:	1440fffd 	bnez	v0,9d0087bc <__jend_main_44+0x2a4>
9d0087c8:	24060064 	li	a2,100
			sprintf(buffer, "%d\r\n", PLOTPTS);
9d0087cc:	26057500 	addiu	a1,s0,29952
9d0087d0:	0f404e5e 	jal	9d013978 <_dsprintf_cdeEfFgGns>
9d0087d4:	27a40020 	addiu	a0,sp,32
			NU32DIP_WriteUART1(buffer);
9d0087d8:	0f403eea 	jal	9d00fba8 <NU32DIP_WriteUART1>
9d0087dc:	27a40020 	addiu	a0,sp,32
			if (currentMode == IDLE)
9d0087e0:	8fa2010c 	lw	v0,268(sp)
9d0087e4:	24542ec8 	addiu	s4,v0,11976
9d0087e8:	8fa20110 	lw	v0,272(sp)
9d0087ec:	24552d38 	addiu	s5,v0,11576
9d0087f0:	269e0190 	addiu	s8,s4,400
					sprintf(buffer, "%f %f\r\n", refCurrent[i], actCurrent[i]);
9d0087f4:	0f404784 	jal	9d011e10 <__extendsfdf2>
9d0087f8:	8e840000 	lw	a0,0(s4)
9d0087fc:	0040b025 	move	s6,v0
9d008800:	0060b825 	move	s7,v1
9d008804:	0f404784 	jal	9d011e10 <__extendsfdf2>
9d008808:	8ea40000 	lw	a0,0(s5)
9d00880c:	afa20010 	sw	v0,16(sp)
9d008810:	afa30014 	sw	v1,20(sp)
9d008814:	02c03025 	move	a2,s6
9d008818:	02e03825 	move	a3,s7
9d00881c:	8fa500e8 	lw	a1,232(sp)
9d008820:	0f404e5e 	jal	9d013978 <_dsprintf_cdeEfFgGns>
9d008824:	27a40020 	addiu	a0,sp,32
					NU32DIP_WriteUART1(buffer);
9d008828:	0f403eea 	jal	9d00fba8 <NU32DIP_WriteUART1>
9d00882c:	27a40020 	addiu	a0,sp,32
9d008830:	26940004 	addiu	s4,s4,4
				for (int i = 0; i < PLOTPTS; i++)
9d008834:	17d4ffef 	bne	s8,s4,9d0087f4 <__jend_main_44+0x2dc>
9d008838:	26b50004 	addiu	s5,s5,4
		NU32DIP_ReadUART1(buffer, BUF_SIZE); // we expect the next character to be a menu command
9d00883c:	1000ff12 	b	9d008488 <main+0x168>
9d008840:	240500c8 	li	a1,200
			NU32DIP_ReadUART1(buffer, BUF_SIZE);
9d008844:	240500c8 	li	a1,200
9d008848:	0f403ed1 	jal	9d00fb44 <NU32DIP_ReadUART1>
9d00884c:	27a40020 	addiu	a0,sp,32
			sscanf(buffer, "%f", &desiredAngle);
9d008850:	27868054 	addiu	a2,gp,-32684
9d008854:	8fa500ec 	lw	a1,236(sp)
9d008858:	0f404e68 	jal	9d0139a0 <_dsscanf_deEfFgGn>
9d00885c:	27a40020 	addiu	a0,sp,32
			set_mode(HOLD);
9d008860:	0f404f49 	jal	9d013d24 <set_mode>
9d008864:	24040003 	li	a0,3
			enum mode_t currentMode = get_mode();
9d008868:	0f404f46 	jal	9d013d18 <get_mode>
9d00886c:	00000000 	nop
			while (currentMode != IDLE)
9d008870:	10400005 	beqz	v0,9d008888 <__jend_main_44+0x370>
9d008874:	24060190 	li	a2,400
				currentMode = get_mode();
9d008878:	0f404f46 	jal	9d013d18 <get_mode>
9d00887c:	00000000 	nop
			while (currentMode != IDLE)
9d008880:	1440fffd 	bnez	v0,9d008878 <__jend_main_44+0x360>
9d008884:	24060190 	li	a2,400
			sprintf(buffer, "%d\r\n", MAXPLOTPTS);
9d008888:	26057500 	addiu	a1,s0,29952
9d00888c:	0f404e5e 	jal	9d013978 <_dsprintf_cdeEfFgGns>
9d008890:	27a40020 	addiu	a0,sp,32
			NU32DIP_WriteUART1(buffer);
9d008894:	0f403eea 	jal	9d00fba8 <NU32DIP_WriteUART1>
9d008898:	27a40020 	addiu	a0,sp,32
			if (currentMode == IDLE)
9d00889c:	8fa20104 	lw	v0,260(sp)
9d0088a0:	245426f8 	addiu	s4,v0,9976
9d0088a4:	8fa20108 	lw	v0,264(sp)
9d0088a8:	245520b8 	addiu	s5,v0,8376
9d0088ac:	269e0640 	addiu	s8,s4,1600
					sprintf(buffer, "%f %f\r\n", refAngle[i], curAngle[i]);
9d0088b0:	0f404784 	jal	9d011e10 <__extendsfdf2>
9d0088b4:	8e840000 	lw	a0,0(s4)
9d0088b8:	0040b025 	move	s6,v0
9d0088bc:	0060b825 	move	s7,v1
9d0088c0:	0f404784 	jal	9d011e10 <__extendsfdf2>
9d0088c4:	8ea40000 	lw	a0,0(s5)
9d0088c8:	afa20010 	sw	v0,16(sp)
9d0088cc:	afa30014 	sw	v1,20(sp)
9d0088d0:	02c03025 	move	a2,s6
9d0088d4:	02e03825 	move	a3,s7
9d0088d8:	8fa500e8 	lw	a1,232(sp)
9d0088dc:	0f404e5e 	jal	9d013978 <_dsprintf_cdeEfFgGns>
9d0088e0:	27a40020 	addiu	a0,sp,32
					NU32DIP_WriteUART1(buffer);
9d0088e4:	0f403eea 	jal	9d00fba8 <NU32DIP_WriteUART1>
9d0088e8:	27a40020 	addiu	a0,sp,32
9d0088ec:	26940004 	addiu	s4,s4,4
				for (int i = 0; i < MAXPLOTPTS; i++)
9d0088f0:	17d4ffef 	bne	s8,s4,9d0088b0 <__jend_main_44+0x398>
9d0088f4:	26b50004 	addiu	s5,s5,4
		NU32DIP_ReadUART1(buffer, BUF_SIZE); // we expect the next character to be a menu command
9d0088f8:	1000fee3 	b	9d008488 <main+0x168>
9d0088fc:	240500c8 	li	a1,200
			NU32DIP_ReadUART1(buffer, BUF_SIZE);
9d008900:	240500c8 	li	a1,200
9d008904:	0f403ed1 	jal	9d00fb44 <NU32DIP_ReadUART1>
9d008908:	27a40020 	addiu	a0,sp,32
			sscanf(buffer, "%d", &trajectorySize);
9d00890c:	2786804c 	addiu	a2,gp,-32692
9d008910:	2665750c 	addiu	a1,s3,29964
9d008914:	0f404e68 	jal	9d0139a0 <_dsscanf_deEfFgGn>
9d008918:	27a40020 	addiu	a0,sp,32
			for(index = 0; index < trajectorySize; index++){
9d00891c:	8f82804c 	lw	v0,-32692(gp)
9d008920:	1840fed8 	blez	v0,9d008484 <main+0x164>
9d008924:	26550178 	addiu	s5,s2,376
9d008928:	0000a025 	move	s4,zero
				NU32DIP_ReadUART1(buffer,BUF_SIZE);
9d00892c:	240500c8 	li	a1,200
9d008930:	0f403ed1 	jal	9d00fb44 <NU32DIP_ReadUART1>
9d008934:	27a40020 	addiu	a0,sp,32
				sscanf(buffer, "%f", &refTraj[index]);
9d008938:	02a03025 	move	a2,s5
9d00893c:	8fa500ec 	lw	a1,236(sp)
9d008940:	0f404e68 	jal	9d0139a0 <_dsscanf_deEfFgGn>
9d008944:	27a40020 	addiu	a0,sp,32
			for(index = 0; index < trajectorySize; index++){
9d008948:	26940001 	addiu	s4,s4,1
9d00894c:	8f82804c 	lw	v0,-32692(gp)
9d008950:	0282102a 	slt	v0,s4,v0
9d008954:	1440fff5 	bnez	v0,9d00892c <__jend_main_44+0x414>
9d008958:	26b50004 	addiu	s5,s5,4
		NU32DIP_ReadUART1(buffer, BUF_SIZE); // we expect the next character to be a menu command
9d00895c:	1000feca 	b	9d008488 <main+0x168>
9d008960:	240500c8 	li	a1,200
			NU32DIP_ReadUART1(buffer, BUF_SIZE);
9d008964:	240500c8 	li	a1,200
9d008968:	0f403ed1 	jal	9d00fb44 <NU32DIP_ReadUART1>
9d00896c:	27a40020 	addiu	a0,sp,32
			sscanf(buffer, "%d", &trajectorySize);
9d008970:	2786804c 	addiu	a2,gp,-32692
9d008974:	2665750c 	addiu	a1,s3,29964
9d008978:	0f404e68 	jal	9d0139a0 <_dsscanf_deEfFgGn>
9d00897c:	27a40020 	addiu	a0,sp,32
			for(index = 0; index < trajectorySize; index++){
9d008980:	8f82804c 	lw	v0,-32692(gp)
9d008984:	1840febf 	blez	v0,9d008484 <main+0x164>
9d008988:	26550178 	addiu	s5,s2,376
9d00898c:	0000a025 	move	s4,zero
				NU32DIP_ReadUART1(buffer,BUF_SIZE);
9d008990:	240500c8 	li	a1,200
9d008994:	0f403ed1 	jal	9d00fb44 <NU32DIP_ReadUART1>
9d008998:	27a40020 	addiu	a0,sp,32
				sscanf(buffer, "%f", &refTraj[index]);
9d00899c:	02a03025 	move	a2,s5
9d0089a0:	8fa500ec 	lw	a1,236(sp)
9d0089a4:	0f404e68 	jal	9d0139a0 <_dsscanf_deEfFgGn>
9d0089a8:	27a40020 	addiu	a0,sp,32
			for(index = 0; index < trajectorySize; index++){
9d0089ac:	26940001 	addiu	s4,s4,1
9d0089b0:	8f82804c 	lw	v0,-32692(gp)
9d0089b4:	0282102a 	slt	v0,s4,v0
9d0089b8:	1440fff5 	bnez	v0,9d008990 <__jend_main_44+0x478>
9d0089bc:	26b50004 	addiu	s5,s5,4
		NU32DIP_ReadUART1(buffer, BUF_SIZE); // we expect the next character to be a menu command
9d0089c0:	1000feb1 	b	9d008488 <main+0x168>
9d0089c4:	240500c8 	li	a1,200
			set_mode(TRACK);
9d0089c8:	0f404f49 	jal	9d013d24 <set_mode>
9d0089cc:	24040004 	li	a0,4
			enum mode_t currentMode = get_mode();
9d0089d0:	0f404f46 	jal	9d013d18 <get_mode>
9d0089d4:	00000000 	nop
			while(currentMode != HOLD){
9d0089d8:	24030003 	li	v1,3
9d0089dc:	10430006 	beq	v0,v1,9d0089f8 <__jend_main_44+0x4e0>
9d0089e0:	00000000 	nop
9d0089e4:	24140003 	li	s4,3
				currentMode = get_mode();
9d0089e8:	0f404f46 	jal	9d013d18 <get_mode>
9d0089ec:	00000000 	nop
			while(currentMode != HOLD){
9d0089f0:	1454fffd 	bne	v0,s4,9d0089e8 <__jend_main_44+0x4d0>
9d0089f4:	00000000 	nop
			sprintf(buffer, "%d\r\n", trajectorySize);
9d0089f8:	8f86804c 	lw	a2,-32692(gp)
9d0089fc:	26057500 	addiu	a1,s0,29952
9d008a00:	0f404e5e 	jal	9d013978 <_dsprintf_cdeEfFgGns>
9d008a04:	27a40020 	addiu	a0,sp,32
			NU32DIP_WriteUART1(buffer);
9d008a08:	0f403eea 	jal	9d00fba8 <NU32DIP_WriteUART1>
9d008a0c:	27a40020 	addiu	a0,sp,32
				for (int i = 0; i < trajectorySize; i++)
9d008a10:	8f82804c 	lw	v0,-32692(gp)
9d008a14:	1840fe9b 	blez	v0,9d008484 <main+0x164>
9d008a18:	265e0178 	addiu	s8,s2,376
9d008a1c:	8fa20100 	lw	v0,256(sp)
9d008a20:	24551118 	addiu	s5,v0,4376
9d008a24:	0000a025 	move	s4,zero
					sprintf(buffer, "%f %f\r\n", refTraj[i], motorAngle[i]);
9d008a28:	0f404784 	jal	9d011e10 <__extendsfdf2>
9d008a2c:	8fc40000 	lw	a0,0(s8)
9d008a30:	0040b025 	move	s6,v0
9d008a34:	0060b825 	move	s7,v1
9d008a38:	0f404784 	jal	9d011e10 <__extendsfdf2>
9d008a3c:	8ea40000 	lw	a0,0(s5)
9d008a40:	afa20010 	sw	v0,16(sp)
9d008a44:	afa30014 	sw	v1,20(sp)
9d008a48:	02c03025 	move	a2,s6
9d008a4c:	02e03825 	move	a3,s7
9d008a50:	8fa500e8 	lw	a1,232(sp)
9d008a54:	0f404e5e 	jal	9d013978 <_dsprintf_cdeEfFgGns>
9d008a58:	27a40020 	addiu	a0,sp,32
					NU32DIP_WriteUART1(buffer);
9d008a5c:	0f403eea 	jal	9d00fba8 <NU32DIP_WriteUART1>
9d008a60:	27a40020 	addiu	a0,sp,32
				for (int i = 0; i < trajectorySize; i++)
9d008a64:	26940001 	addiu	s4,s4,1
9d008a68:	8f82804c 	lw	v0,-32692(gp)
9d008a6c:	27de0004 	addiu	s8,s8,4
9d008a70:	0282102a 	slt	v0,s4,v0
9d008a74:	1440ffec 	bnez	v0,9d008a28 <__jend_main_44+0x510>
9d008a78:	26b50004 	addiu	s5,s5,4
		NU32DIP_ReadUART1(buffer, BUF_SIZE); // we expect the next character to be a menu command
9d008a7c:	1000fe82 	b	9d008488 <main+0x168>
9d008a80:	240500c8 	li	a1,200
			set_mode(IDLE);
9d008a84:	0f404f49 	jal	9d013d24 <set_mode>
9d008a88:	00002025 	move	a0,zero
			break;
9d008a8c:	1000fe7e 	b	9d008488 <main+0x168>
9d008a90:	240500c8 	li	a1,200
			set_mode(currentMode);
9d008a94:	0f404f49 	jal	9d013d24 <set_mode>
9d008a98:	00002025 	move	a0,zero
			break;
9d008a9c:	1000fe7a 	b	9d008488 <main+0x168>
9d008aa0:	240500c8 	li	a1,200
			enum mode_t currentMode = get_mode();
9d008aa4:	0f404f46 	jal	9d013d18 <get_mode>
9d008aa8:	00000000 	nop
			sprintf(buffer, "%s\r\n", modeToString(currentMode));
9d008aac:	0f401da4 	jal	9d007690 <modeToString>
9d008ab0:	00402025 	move	a0,v0
9d008ab4:	00403025 	move	a2,v0
9d008ab8:	8fa200fc 	lw	v0,252(sp)
9d008abc:	24457560 	addiu	a1,v0,30048
9d008ac0:	0f404e5e 	jal	9d013978 <_dsprintf_cdeEfFgGns>
9d008ac4:	27a40020 	addiu	a0,sp,32
			NU32DIP_WriteUART1(buffer);
9d008ac8:	0f403eea 	jal	9d00fba8 <NU32DIP_WriteUART1>
9d008acc:	27a40020 	addiu	a0,sp,32
			break;
9d008ad0:	1000fe6d 	b	9d008488 <main+0x168>
9d008ad4:	240500c8 	li	a1,200
		}

		default:
		{
			NU32DIP_GREEN = 0; // turn on LED2 to indicate an error
9d008ad8:	96226130 	lhu	v0,24880(s1)
9d008adc:	7c022104 	ins	v0,zero,0x4,0x1
9d008ae0:	a6226130 	sh	v0,24880(s1)
			break;
9d008ae4:	1000fe68 	b	9d008488 <main+0x168>
9d008ae8:	240500c8 	li	a1,200

Disassembly of section .text.decfloat:

9d008aec <decfloat>:
9d008aec:	27bdfdb0 	addiu	sp,sp,-592
9d008af0:	afb30234 	sw	s3,564(sp)
9d008af4:	afb1022c 	sw	s1,556(sp)
9d008af8:	afbf024c 	sw	ra,588(sp)
9d008afc:	afbe0248 	sw	s8,584(sp)
9d008b00:	afb70244 	sw	s7,580(sp)
9d008b04:	afb60240 	sw	s6,576(sp)
9d008b08:	afb5023c 	sw	s5,572(sp)
9d008b0c:	afb40238 	sw	s4,568(sp)
9d008b10:	afb20230 	sw	s2,560(sp)
9d008b14:	afb00228 	sw	s0,552(sp)
9d008b18:	00808825 	move	s1,a0
9d008b1c:	00a01025 	move	v0,a1
9d008b20:	afa60258 	sw	a2,600(sp)
9d008b24:	afa7025c 	sw	a3,604(sp)
9d008b28:	00009825 	move	s3,zero
9d008b2c:	24030030 	li	v1,48
9d008b30:	1043004a 	beq	v0,v1,9d008c5c <decfloat+0x170>
9d008b34:	2403002e 	li	v1,46
9d008b38:	1443006b 	bne	v0,v1,9d008ce8 <decfloat+0x1fc>
9d008b3c:	00009025 	move	s2,zero
9d008b40:	8e22003c 	lw	v0,60(s1)
9d008b44:	8e23004c 	lw	v1,76(s1)
9d008b48:	0043182b 	sltu	v1,v0,v1
9d008b4c:	10600050 	beqz	v1,9d008c90 <decfloat+0x1a4>
9d008b50:	24430001 	addiu	v1,v0,1
9d008b54:	ae23003c 	sw	v1,60(s1)
9d008b58:	90420000 	lbu	v0,0(v0)
9d008b5c:	00008025 	move	s0,zero
9d008b60:	0000a025 	move	s4,zero
9d008b64:	24030030 	li	v1,48
9d008b68:	1043004d 	beq	v0,v1,9d008ca0 <decfloat+0x1b4>
9d008b6c:	24120001 	li	s2,1
9d008b70:	afa00010 	sw	zero,16(sp)
9d008b74:	0000b825 	move	s7,zero
9d008b78:	0000f025 	move	s8,zero
9d008b7c:	00003025 	move	a2,zero
9d008b80:	0000b025 	move	s6,zero
9d008b84:	0000a825 	move	s5,zero
9d008b88:	2444ffd0 	addiu	a0,v0,-48
9d008b8c:	2c85000a 	sltiu	a1,a0,10
9d008b90:	54a00058 	bnezl	a1,9d008cf4 <decfloat+0x208>
9d008b94:	2405002e 	li	a1,46
9d008b98:	2404002e 	li	a0,46
9d008b9c:	10440057 	beq	v0,a0,9d008cfc <decfloat+0x210>
9d008ba0:	00000000 	nop
9d008ba4:	03d2800a 	movz	s0,s8,s2
9d008ba8:	00d2a00a 	movz	s4,a2,s2
9d008bac:	1260030b 	beqz	s3,9d0097dc <decfloat+0xcf0>
9d008bb0:	34430020 	ori	v1,v0,0x20
9d008bb4:	24040065 	li	a0,101
9d008bb8:	14640325 	bne	v1,a0,9d009850 <decfloat+0xd64>
9d008bbc:	8fa50264 	lw	a1,612(sp)
9d008bc0:	02202025 	move	a0,s1
9d008bc4:	0f403d43 	jal	9d00f50c <scanexp>
9d008bc8:	afa60210 	sw	a2,528(sp)
9d008bcc:	1440000e 	bnez	v0,9d008c08 <decfloat+0x11c>
9d008bd0:	8fa60210 	lw	a2,528(sp)
9d008bd4:	3c048000 	lui	a0,0x8000
9d008bd8:	5464000c 	bnel	v1,a0,9d008c0c <decfloat+0x120>
9d008bdc:	02021021 	addu	v0,s0,v0
9d008be0:	8fa30264 	lw	v1,612(sp)
9d008be4:	1060030a 	beqz	v1,9d009810 <decfloat+0xd24>
9d008be8:	00002825 	move	a1,zero
9d008bec:	8e24004c 	lw	a0,76(s1)
9d008bf0:	10800005 	beqz	a0,9d008c08 <decfloat+0x11c>
9d008bf4:	00001825 	move	v1,zero
9d008bf8:	8e23003c 	lw	v1,60(s1)
9d008bfc:	2463ffff 	addiu	v1,v1,-1
9d008c00:	ae23003c 	sw	v1,60(s1)
9d008c04:	00401825 	move	v1,v0
9d008c08:	02021021 	addu	v0,s0,v0
9d008c0c:	0050202b 	sltu	a0,v0,s0
9d008c10:	0283a021 	addu	s4,s4,v1
9d008c14:	00408025 	move	s0,v0
9d008c18:	0094a021 	addu	s4,a0,s4
9d008c1c:	8fa40260 	lw	a0,608(sp)
9d008c20:	8fb10010 	lw	s1,16(sp)
9d008c24:	0f404acb 	jal	9d012b2c <__floatsidf>
9d008c28:	afa60210 	sw	a2,528(sp)
9d008c2c:	00409025 	move	s2,v0
9d008c30:	00609825 	move	s3,v1
9d008c34:	16200064 	bnez	s1,9d008dc8 <decfloat+0x2dc>
9d008c38:	8fa60210 	lw	a2,528(sp)
9d008c3c:	00003025 	move	a2,zero
9d008c40:	00003825 	move	a3,zero
9d008c44:	00402025 	move	a0,v0
9d008c48:	00602825 	move	a1,v1
9d008c4c:	0f403a65 	jal	9d00e994 <__muldf3>
9d008c50:	00000000 	nop
9d008c54:	100002f3 	b	9d009824 <decfloat+0xd38>
9d008c58:	8fbf024c 	lw	ra,588(sp)
9d008c5c:	8e22003c 	lw	v0,60(s1)
9d008c60:	8e23004c 	lw	v1,76(s1)
9d008c64:	0043182b 	sltu	v1,v0,v1
9d008c68:	10600005 	beqz	v1,9d008c80 <decfloat+0x194>
9d008c6c:	24430001 	addiu	v1,v0,1
9d008c70:	ae23003c 	sw	v1,60(s1)
9d008c74:	90420000 	lbu	v0,0(v0)
9d008c78:	1000ffac 	b	9d008b2c <decfloat+0x40>
9d008c7c:	24130001 	li	s3,1
9d008c80:	0f4046ff 	jal	9d011bfc <__shgetc>
9d008c84:	02202025 	move	a0,s1
9d008c88:	1000ffa8 	b	9d008b2c <decfloat+0x40>
9d008c8c:	24130001 	li	s3,1
9d008c90:	0f4046ff 	jal	9d011bfc <__shgetc>
9d008c94:	02202025 	move	a0,s1
9d008c98:	1000ffb1 	b	9d008b60 <decfloat+0x74>
9d008c9c:	00008025 	move	s0,zero
9d008ca0:	8e22003c 	lw	v0,60(s1)
9d008ca4:	8e23004c 	lw	v1,76(s1)
9d008ca8:	0043182b 	sltu	v1,v0,v1
9d008cac:	1060000a 	beqz	v1,9d008cd8 <decfloat+0x1ec>
9d008cb0:	24430001 	addiu	v1,v0,1
9d008cb4:	ae23003c 	sw	v1,60(s1)
9d008cb8:	90420000 	lbu	v0,0(v0)
9d008cbc:	2604ffff 	addiu	a0,s0,-1
9d008cc0:	0090182b 	sltu	v1,a0,s0
9d008cc4:	2694ffff 	addiu	s4,s4,-1
9d008cc8:	00808025 	move	s0,a0
9d008ccc:	0074a021 	addu	s4,v1,s4
9d008cd0:	1000ffa4 	b	9d008b64 <decfloat+0x78>
9d008cd4:	24130001 	li	s3,1
9d008cd8:	0f4046ff 	jal	9d011bfc <__shgetc>
9d008cdc:	02202025 	move	a0,s1
9d008ce0:	1000fff7 	b	9d008cc0 <decfloat+0x1d4>
9d008ce4:	2604ffff 	addiu	a0,s0,-1
9d008ce8:	00008025 	move	s0,zero
9d008cec:	1000ffa0 	b	9d008b70 <decfloat+0x84>
9d008cf0:	0000a025 	move	s4,zero
9d008cf4:	1445000d 	bne	v0,a1,9d008d2c <decfloat+0x240>
9d008cf8:	27c50001 	addiu	a1,s8,1
9d008cfc:	16400030 	bnez	s2,9d008dc0 <decfloat+0x2d4>
9d008d00:	24120001 	li	s2,1
9d008d04:	03c08025 	move	s0,s8
9d008d08:	00c0a025 	move	s4,a2
9d008d0c:	8e22003c 	lw	v0,60(s1)
9d008d10:	8e24004c 	lw	a0,76(s1)
9d008d14:	0044202b 	sltu	a0,v0,a0
9d008d18:	10800024 	beqz	a0,9d008dac <decfloat+0x2c0>
9d008d1c:	24440001 	addiu	a0,v0,1
9d008d20:	ae24003c 	sw	a0,60(s1)
9d008d24:	1000ff98 	b	9d008b88 <decfloat+0x9c>
9d008d28:	90420000 	lbu	v0,0(v0)
9d008d2c:	00be382b 	sltu	a3,a1,s8
9d008d30:	00a0f025 	move	s8,a1
9d008d34:	2ac5007d 	slti	a1,s6,125
9d008d38:	10a00015 	beqz	a1,9d008d90 <decfloat+0x2a4>
9d008d3c:	00e63021 	addu	a2,a3,a2
9d008d40:	38420030 	xori	v0,v0,0x30
9d008d44:	03c2b80b 	movn	s7,s8,v0
9d008d48:	12a00007 	beqz	s5,9d008d68 <decfloat+0x27c>
9d008d4c:	00161080 	sll	v0,s6,0x2
9d008d50:	27a30010 	addiu	v1,sp,16
9d008d54:	00622821 	addu	a1,v1,v0
9d008d58:	8ca50000 	lw	a1,0(a1)
9d008d5c:	2407000a 	li	a3,10
9d008d60:	70e51802 	mul	v1,a3,a1
9d008d64:	00642021 	addu	a0,v1,a0
9d008d68:	27a30010 	addiu	v1,sp,16
9d008d6c:	00621021 	addu	v0,v1,v0
9d008d70:	ac440000 	sw	a0,0(v0)
9d008d74:	26b50001 	addiu	s5,s5,1
9d008d78:	24020009 	li	v0,9
9d008d7c:	16a2ffe3 	bne	s5,v0,9d008d0c <decfloat+0x220>
9d008d80:	24130001 	li	s3,1
9d008d84:	26d60001 	addiu	s6,s6,1
9d008d88:	1000ffe0 	b	9d008d0c <decfloat+0x220>
9d008d8c:	0000a825 	move	s5,zero
9d008d90:	24040030 	li	a0,48
9d008d94:	1044ffdd 	beq	v0,a0,9d008d0c <decfloat+0x220>
9d008d98:	8fa20200 	lw	v0,512(sp)
9d008d9c:	2417045c 	li	s7,1116
9d008da0:	34420001 	ori	v0,v0,0x1
9d008da4:	1000ffd9 	b	9d008d0c <decfloat+0x220>
9d008da8:	afa20200 	sw	v0,512(sp)
9d008dac:	02202025 	move	a0,s1
9d008db0:	0f4046ff 	jal	9d011bfc <__shgetc>
9d008db4:	afa60210 	sw	a2,528(sp)
9d008db8:	1000ff73 	b	9d008b88 <decfloat+0x9c>
9d008dbc:	8fa60210 	lw	a2,528(sp)
9d008dc0:	1000ff7a 	b	9d008bac <decfloat+0xc0>
9d008dc4:	2402002e 	li	v0,46
9d008dc8:	17d00016 	bne	s8,s0,9d008e24 <decfloat+0x338>
9d008dcc:	8fa2025c 	lw	v0,604(sp)
9d008dd0:	14d40015 	bne	a2,s4,9d008e28 <decfloat+0x33c>
9d008dd4:	8fa3025c 	lw	v1,604(sp)
9d008dd8:	1e800014 	bgtz	s4,9d008e2c <decfloat+0x340>
9d008ddc:	000217c2 	srl	v0,v0,0x1f
9d008de0:	16800003 	bnez	s4,9d008df0 <decfloat+0x304>
9d008de4:	2e02000a 	sltiu	v0,s0,10
9d008de8:	1040000f 	beqz	v0,9d008e28 <decfloat+0x33c>
9d008dec:	8fa2025c 	lw	v0,604(sp)
9d008df0:	8fa20258 	lw	v0,600(sp)
9d008df4:	2842001f 	slti	v0,v0,31
9d008df8:	10400005 	beqz	v0,9d008e10 <decfloat+0x324>
9d008dfc:	00000000 	nop
9d008e00:	8fa20258 	lw	v0,600(sp)
9d008e04:	00511006 	srlv	v0,s1,v0
9d008e08:	54400006 	bnezl	v0,9d008e24 <decfloat+0x338>
9d008e0c:	8fa2025c 	lw	v0,604(sp)
9d008e10:	0f404d11 	jal	9d013444 <__floatunsidf>
9d008e14:	02202025 	move	a0,s1
9d008e18:	02403025 	move	a2,s2
9d008e1c:	1000ff89 	b	9d008c44 <decfloat+0x158>
9d008e20:	02603825 	move	a3,s3
9d008e24:	8fa3025c 	lw	v1,604(sp)
9d008e28:	000217c2 	srl	v0,v0,0x1f
9d008e2c:	00431021 	addu	v0,v0,v1
9d008e30:	00021043 	sra	v0,v0,0x1
9d008e34:	00021023 	negu	v0,v0
9d008e38:	00021fc3 	sra	v1,v0,0x1f
9d008e3c:	0074202a 	slt	a0,v1,s4
9d008e40:	54800006 	bnezl	a0,9d008e5c <decfloat+0x370>
9d008e44:	3c109d00 	lui	s0,0x9d00
9d008e48:	1683000f 	bne	s4,v1,9d008e88 <decfloat+0x39c>
9d008e4c:	0050102b 	sltu	v0,v0,s0
9d008e50:	5040000e 	beqzl	v0,9d008e8c <decfloat+0x3a0>
9d008e54:	8fa2025c 	lw	v0,604(sp)
9d008e58:	3c109d00 	lui	s0,0x9d00
9d008e5c:	8e0675d8 	lw	a2,30168(s0)
9d008e60:	8e0775dc 	lw	a3,30172(s0)
9d008e64:	3c02a000 	lui	v0,0xa000
9d008e68:	24030022 	li	v1,34
9d008e6c:	ac433080 	sw	v1,12416(v0)
9d008e70:	02402025 	move	a0,s2
9d008e74:	0f403a65 	jal	9d00e994 <__muldf3>
9d008e78:	02602825 	move	a1,s3
9d008e7c:	8e0675d8 	lw	a2,30168(s0)
9d008e80:	1000ff70 	b	9d008c44 <decfloat+0x158>
9d008e84:	8e0775dc 	lw	a3,30172(s0)
9d008e88:	8fa2025c 	lw	v0,604(sp)
9d008e8c:	2442ff96 	addiu	v0,v0,-106
9d008e90:	00021fc3 	sra	v1,v0,0x1f
9d008e94:	0283202a 	slt	a0,s4,v1
9d008e98:	54800006 	bnezl	a0,9d008eb4 <decfloat+0x3c8>
9d008e9c:	3c109d00 	lui	s0,0x9d00
9d008ea0:	1474000f 	bne	v1,s4,9d008ee0 <decfloat+0x3f4>
9d008ea4:	0202102b 	sltu	v0,s0,v0
9d008ea8:	1040000d 	beqz	v0,9d008ee0 <decfloat+0x3f4>
9d008eac:	00000000 	nop
9d008eb0:	3c109d00 	lui	s0,0x9d00
9d008eb4:	8e0675e0 	lw	a2,30176(s0)
9d008eb8:	8e0775e4 	lw	a3,30180(s0)
9d008ebc:	3c02a000 	lui	v0,0xa000
9d008ec0:	24030022 	li	v1,34
9d008ec4:	ac433080 	sw	v1,12416(v0)
9d008ec8:	02402025 	move	a0,s2
9d008ecc:	0f403a65 	jal	9d00e994 <__muldf3>
9d008ed0:	02602825 	move	a1,s3
9d008ed4:	8e0675e0 	lw	a2,30176(s0)
9d008ed8:	1000ff5a 	b	9d008c44 <decfloat+0x158>
9d008edc:	8e0775e4 	lw	a3,30180(s0)
9d008ee0:	12a00008 	beqz	s5,9d008f04 <decfloat+0x418>
9d008ee4:	00161080 	sll	v0,s6,0x2
9d008ee8:	27a30010 	addiu	v1,sp,16
9d008eec:	00621021 	addu	v0,v1,v0
9d008ef0:	2404000a 	li	a0,10
9d008ef4:	2aa30009 	slti	v1,s5,9
9d008ef8:	54600027 	bnezl	v1,9d008f98 <decfloat+0x4ac>
9d008efc:	8c430000 	lw	v1,0(v0)
9d008f00:	26d60001 	addiu	s6,s6,1
9d008f04:	2ae20009 	slti	v0,s7,9
9d008f08:	10400047 	beqz	v0,9d009028 <decfloat+0x53c>
9d008f0c:	0200a025 	move	s4,s0
9d008f10:	0217b82a 	slt	s7,s0,s7
9d008f14:	16e00044 	bnez	s7,9d009028 <decfloat+0x53c>
9d008f18:	2a020012 	slti	v0,s0,18
9d008f1c:	10400042 	beqz	v0,9d009028 <decfloat+0x53c>
9d008f20:	24020009 	li	v0,9
9d008f24:	1202ffba 	beq	s0,v0,9d008e10 <decfloat+0x324>
9d008f28:	8fb10010 	lw	s1,16(sp)
9d008f2c:	2a020009 	slti	v0,s0,9
9d008f30:	5040001d 	beqzl	v0,9d008fa8 <decfloat+0x4bc>
9d008f34:	2602fff7 	addiu	v0,s0,-9
9d008f38:	0f404d11 	jal	9d013444 <__floatunsidf>
9d008f3c:	02202025 	move	a0,s1
9d008f40:	00602825 	move	a1,v1
9d008f44:	02403025 	move	a2,s2
9d008f48:	02603825 	move	a3,s3
9d008f4c:	0f403a65 	jal	9d00e994 <__muldf3>
9d008f50:	00402025 	move	a0,v0
9d008f54:	00409025 	move	s2,v0
9d008f58:	24020008 	li	v0,8
9d008f5c:	00508023 	subu	s0,v0,s0
9d008f60:	3c029d01 	lui	v0,0x9d01
9d008f64:	24423850 	addiu	v0,v0,14416
9d008f68:	00108080 	sll	s0,s0,0x2
9d008f6c:	02028021 	addu	s0,s0,v0
9d008f70:	8e040000 	lw	a0,0(s0)
9d008f74:	0f404acb 	jal	9d012b2c <__floatsidf>
9d008f78:	00609825 	move	s3,v1
9d008f7c:	00403025 	move	a2,v0
9d008f80:	00603825 	move	a3,v1
9d008f84:	02402025 	move	a0,s2
9d008f88:	0f40321b 	jal	9d00c86c <__divdf3>
9d008f8c:	02602825 	move	a1,s3
9d008f90:	10000224 	b	9d009824 <decfloat+0xd38>
9d008f94:	8fbf024c 	lw	ra,588(sp)
9d008f98:	26b50001 	addiu	s5,s5,1
9d008f9c:	70641802 	mul	v1,v1,a0
9d008fa0:	1000ffd4 	b	9d008ef4 <decfloat+0x408>
9d008fa4:	ac430000 	sw	v1,0(v0)
9d008fa8:	00021880 	sll	v1,v0,0x2
9d008fac:	00431023 	subu	v0,v0,v1
9d008fb0:	8fa30258 	lw	v1,600(sp)
9d008fb4:	00431021 	addu	v0,v0,v1
9d008fb8:	2843001f 	slti	v1,v0,31
9d008fbc:	50600005 	beqzl	v1,9d008fd4 <decfloat+0x4e8>
9d008fc0:	2610fff6 	addiu	s0,s0,-10
9d008fc4:	00511006 	srlv	v0,s1,v0
9d008fc8:	54400018 	bnezl	v0,9d00902c <decfloat+0x540>
9d008fcc:	26c3ffff 	addiu	v1,s6,-1
9d008fd0:	2610fff6 	addiu	s0,s0,-10
9d008fd4:	3c029d01 	lui	v0,0x9d01
9d008fd8:	24423850 	addiu	v0,v0,14416
9d008fdc:	00108080 	sll	s0,s0,0x2
9d008fe0:	02028021 	addu	s0,s0,v0
9d008fe4:	0f404acb 	jal	9d012b2c <__floatsidf>
9d008fe8:	8e040000 	lw	a0,0(s0)
9d008fec:	02202025 	move	a0,s1
9d008ff0:	0040a025 	move	s4,v0
9d008ff4:	0f404d11 	jal	9d013444 <__floatunsidf>
9d008ff8:	0060a825 	move	s5,v1
9d008ffc:	00402025 	move	a0,v0
9d009000:	02403025 	move	a2,s2
9d009004:	02603825 	move	a3,s3
9d009008:	0f403a65 	jal	9d00e994 <__muldf3>
9d00900c:	00602825 	move	a1,v1
9d009010:	00403025 	move	a2,v0
9d009014:	00603825 	move	a3,v1
9d009018:	02802025 	move	a0,s4
9d00901c:	1000ff0b 	b	9d008c4c <decfloat+0x160>
9d009020:	02a02825 	move	a1,s5
9d009024:	0060b025 	move	s6,v1
9d009028:	26c3ffff 	addiu	v1,s6,-1
9d00902c:	00031080 	sll	v0,v1,0x2
9d009030:	27a40010 	addiu	a0,sp,16
9d009034:	00821021 	addu	v0,a0,v0
9d009038:	8c420000 	lw	v0,0(v0)
9d00903c:	1040fff9 	beqz	v0,9d009024 <decfloat+0x538>
9d009040:	24090009 	li	t1,9
9d009044:	0209001a 	div	zero,s0,t1
9d009048:	012001f4 	teq	t1,zero,0x7
9d00904c:	00004810 	mfhi	t1
9d009050:	1120001c 	beqz	t1,9d0090c4 <decfloat+0x5d8>
9d009054:	3c0c0089 	lui	t4,0x89
9d009058:	06020001 	bltzl	s0,9d009060 <decfloat+0x574>
9d00905c:	25290009 	addiu	t1,t1,9
9d009060:	24020008 	li	v0,8
9d009064:	00491023 	subu	v0,v0,t1
9d009068:	3c039d01 	lui	v1,0x9d01
9d00906c:	24633850 	addiu	v1,v1,14416
9d009070:	00021080 	sll	v0,v0,0x2
9d009074:	00431021 	addu	v0,v0,v1
9d009078:	8c460000 	lw	a2,0(v0)
9d00907c:	3c073b9a 	lui	a3,0x3b9a
9d009080:	27a50010 	addiu	a1,sp,16
9d009084:	00001825 	move	v1,zero
9d009088:	00005025 	move	t2,zero
9d00908c:	00002025 	move	a0,zero
9d009090:	34e7ca00 	ori	a3,a3,0xca00
9d009094:	54960052 	bnel	a0,s6,9d0091e0 <decfloat+0x6f4>
9d009098:	8ca20000 	lw	v0,0(a1)
9d00909c:	10600005 	beqz	v1,9d0090b4 <decfloat+0x5c8>
9d0090a0:	00161080 	sll	v0,s6,0x2
9d0090a4:	27a40010 	addiu	a0,sp,16
9d0090a8:	00821021 	addu	v0,a0,v0
9d0090ac:	ac430000 	sw	v1,0(v0)
9d0090b0:	26d60001 	addiu	s6,s6,1
9d0090b4:	0289a023 	subu	s4,s4,t1
9d0090b8:	26940009 	addiu	s4,s4,9
9d0090bc:	01404825 	move	t1,t2
9d0090c0:	3c0c0089 	lui	t4,0x89
9d0090c4:	3c103b9a 	lui	s0,0x3b9a
9d0090c8:	3c0d3b9a 	lui	t5,0x3b9a
9d0090cc:	0000b825 	move	s7,zero
9d0090d0:	240e0012 	li	t6,18
9d0090d4:	258c705f 	addiu	t4,t4,28767
9d0090d8:	3610ca00 	ori	s0,s0,0xca00
9d0090dc:	00008825 	move	s1,zero
9d0090e0:	35adca01 	ori	t5,t5,0xca01
9d0090e4:	2a820012 	slti	v0,s4,18
9d0090e8:	14400050 	bnez	v0,9d00922c <decfloat+0x740>
9d0090ec:	26d5ffff 	addiu	s5,s6,-1
9d0090f0:	168e0007 	bne	s4,t6,9d009110 <decfloat+0x624>
9d0090f4:	00091080 	sll	v0,t1,0x2
9d0090f8:	27a30010 	addiu	v1,sp,16
9d0090fc:	00621021 	addu	v0,v1,v0
9d009100:	8c420000 	lw	v0,0(v0)
9d009104:	004c102b 	sltu	v0,v0,t4
9d009108:	14400049 	bnez	v0,9d009230 <decfloat+0x744>
9d00910c:	32b5007f 	andi	s5,s5,0x7f
9d009110:	3c040089 	lui	a0,0x89
9d009114:	3c050f2f 	lui	a1,0xf2f
9d009118:	3c063b9a 	lui	a2,0x3b9a
9d00911c:	240a0012 	li	t2,18
9d009120:	2484705f 	addiu	a0,a0,28767
9d009124:	24a50a00 	addiu	a1,a1,2560
9d009128:	24070001 	li	a3,1
9d00912c:	240b0009 	li	t3,9
9d009130:	34c6ca00 	ori	a2,a2,0xca00
9d009134:	11360012 	beq	t1,s6,9d009180 <decfloat+0x694>
9d009138:	27a30010 	addiu	v1,sp,16
9d00913c:	00091080 	sll	v0,t1,0x2
9d009140:	00621021 	addu	v0,v1,v0
9d009144:	8c420000 	lw	v0,0(v0)
9d009148:	0044182b 	sltu	v1,v0,a0
9d00914c:	1460000c 	bnez	v1,9d009180 <decfloat+0x694>
9d009150:	00000000 	nop
9d009154:	1444000c 	bne	v0,a0,9d009188 <decfloat+0x69c>
9d009158:	25220001 	addiu	v0,t1,1
9d00915c:	3042007f 	andi	v0,v0,0x7f
9d009160:	12c20007 	beq	s6,v0,9d009180 <decfloat+0x694>
9d009164:	00021080 	sll	v0,v0,0x2
9d009168:	27a30010 	addiu	v1,sp,16
9d00916c:	00621021 	addu	v0,v1,v0
9d009170:	8c420000 	lw	v0,0(v0)
9d009174:	0045102b 	sltu	v0,v0,a1
9d009178:	10400004 	beqz	v0,9d00918c <decfloat+0x6a0>
9d00917c:	2a83001c 	slti	v1,s4,28
9d009180:	128a0093 	beq	s4,t2,9d0093d0 <decfloat+0x8e4>
9d009184:	00000000 	nop
9d009188:	2a83001c 	slti	v1,s4,28
9d00918c:	01601025 	move	v0,t3
9d009190:	00e3100b 	movn	v0,a3,v1
9d009194:	0047c004 	sllv	t8,a3,v0
9d009198:	00401825 	move	v1,v0
9d00919c:	0046c807 	srav	t9,a2,v0
9d0091a0:	2718ffff 	addiu	t8,t8,-1
9d0091a4:	01201025 	move	v0,t1
9d0091a8:	00006025 	move	t4,zero
9d0091ac:	5456006d 	bnel	v0,s6,9d009364 <decfloat+0x878>
9d0091b0:	00027080 	sll	t6,v0,0x2
9d0091b4:	11800008 	beqz	t4,9d0091d8 <decfloat+0x6ec>
9d0091b8:	26c20001 	addiu	v0,s6,1
9d0091bc:	3042007f 	andi	v0,v0,0x7f
9d0091c0:	1049007a 	beq	v0,t1,9d0093ac <decfloat+0x8c0>
9d0091c4:	00164080 	sll	t0,s6,0x2
9d0091c8:	27ad0010 	addiu	t5,sp,16
9d0091cc:	01a84021 	addu	t0,t5,t0
9d0091d0:	ad0c0000 	sw	t4,0(t0)
9d0091d4:	0040b025 	move	s6,v0
9d0091d8:	1000ffd6 	b	9d009134 <decfloat+0x648>
9d0091dc:	02e3b821 	addu	s7,s7,v1
9d0091e0:	248b0001 	addiu	t3,a0,1
9d0091e4:	0046001b 	divu	zero,v0,a2
9d0091e8:	00c001f4 	teq	a2,zero,0x7
9d0091ec:	00001012 	mflo	v0
9d0091f0:	00431021 	addu	v0,v0,v1
9d0091f4:	148a0005 	bne	a0,t2,9d00920c <decfloat+0x720>
9d0091f8:	00006010 	mfhi	t4
9d0091fc:	14400003 	bnez	v0,9d00920c <decfloat+0x720>
9d009200:	00000000 	nop
9d009204:	316a007f 	andi	t2,t3,0x7f
9d009208:	2694fff7 	addiu	s4,s4,-9
9d00920c:	00e6001a 	div	zero,a3,a2
9d009210:	00c001f4 	teq	a2,zero,0x7
9d009214:	aca20000 	sw	v0,0(a1)
9d009218:	01602025 	move	a0,t3
9d00921c:	24a50004 	addiu	a1,a1,4
9d009220:	00001012 	mflo	v0
9d009224:	1000ff9b 	b	9d009094 <decfloat+0x5a8>
9d009228:	704c1802 	mul	v1,v0,t4
9d00922c:	32b5007f 	andi	s5,s5,0x7f
9d009230:	00005025 	move	t2,zero
9d009234:	00155880 	sll	t3,s5,0x2
9d009238:	27a20010 	addiu	v0,sp,16
9d00923c:	004b1021 	addu	v0,v0,t3
9d009240:	8c5e0000 	lw	s8,0(v0)
9d009244:	001e10c2 	srl	v0,s8,0x3
9d009248:	001ef740 	sll	s8,s8,0x1d
9d00924c:	03ca7821 	addu	t7,s8,t2
9d009250:	01fef02b 	sltu	s8,t7,s8
9d009254:	03c2f021 	addu	s8,s8,v0
9d009258:	17c00003 	bnez	s8,9d009268 <decfloat+0x77c>
9d00925c:	01ed102b 	sltu	v0,t7,t5
9d009260:	14400024 	bnez	v0,9d0092f4 <decfloat+0x808>
9d009264:	01e01025 	move	v0,t7
9d009268:	01e02025 	move	a0,t7
9d00926c:	02003025 	move	a2,s0
9d009270:	02203825 	move	a3,s1
9d009274:	03c02825 	move	a1,s8
9d009278:	afab0220 	sw	t3,544(sp)
9d00927c:	afa90218 	sw	t1,536(sp)
9d009280:	0f403888 	jal	9d00e220 <__udivdi3>
9d009284:	afaf0214 	sw	t7,532(sp)
9d009288:	8faf0214 	lw	t7,532(sp)
9d00928c:	02003025 	move	a2,s0
9d009290:	02203825 	move	a3,s1
9d009294:	01e02025 	move	a0,t7
9d009298:	03c02825 	move	a1,s8
9d00929c:	0f403977 	jal	9d00e5dc <__umoddi3>
9d0092a0:	afa20210 	sw	v0,528(sp)
9d0092a4:	3c030089 	lui	v1,0x89
9d0092a8:	8faa0210 	lw	t2,528(sp)
9d0092ac:	8fa90218 	lw	t1,536(sp)
9d0092b0:	8fab0220 	lw	t3,544(sp)
9d0092b4:	346c705f 	ori	t4,v1,0x705f
9d0092b8:	3c033b9a 	lui	v1,0x3b9a
9d0092bc:	240e0012 	li	t6,18
9d0092c0:	346dca01 	ori	t5,v1,0xca01
9d0092c4:	27a30010 	addiu	v1,sp,16
9d0092c8:	006b5821 	addu	t3,v1,t3
9d0092cc:	26c3ffff 	addiu	v1,s6,-1
9d0092d0:	3063007f 	andi	v1,v1,0x7f
9d0092d4:	14750009 	bne	v1,s5,9d0092fc <decfloat+0x810>
9d0092d8:	ad620000 	sw	v0,0(t3)
9d0092dc:	52a90009 	beql	s5,t1,9d009304 <decfloat+0x818>
9d0092e0:	01201825 	move	v1,t1
9d0092e4:	02a2b00a 	movz	s6,s5,v0
9d0092e8:	26b5ffff 	addiu	s5,s5,-1
9d0092ec:	1000ffd1 	b	9d009234 <decfloat+0x748>
9d0092f0:	32b5007f 	andi	s5,s5,0x7f
9d0092f4:	1000fff3 	b	9d0092c4 <decfloat+0x7d8>
9d0092f8:	00005025 	move	t2,zero
9d0092fc:	56a9fffb 	bnel	s5,t1,9d0092ec <decfloat+0x800>
9d009300:	26b5ffff 	addiu	s5,s5,-1
9d009304:	5140ff77 	beqzl	t2,9d0090e4 <decfloat+0x5f8>
9d009308:	26f7ffe3 	addiu	s7,s7,-29
9d00930c:	2529ffff 	addiu	t1,t1,-1
9d009310:	3129007f 	andi	t1,t1,0x7f
9d009314:	16c9000c 	bne	s6,t1,9d009348 <decfloat+0x85c>
9d009318:	2462ffff 	addiu	v0,v1,-1
9d00931c:	3042007f 	andi	v0,v0,0x7f
9d009320:	27a40010 	addiu	a0,sp,16
9d009324:	00021080 	sll	v0,v0,0x2
9d009328:	00032880 	sll	a1,v1,0x2
9d00932c:	00821021 	addu	v0,a0,v0
9d009330:	00852821 	addu	a1,a0,a1
9d009334:	8ca50000 	lw	a1,0(a1)
9d009338:	8c440000 	lw	a0,0(v0)
9d00933c:	0060b025 	move	s6,v1
9d009340:	00852025 	or	a0,a0,a1
9d009344:	ac440000 	sw	a0,0(v0)
9d009348:	00091080 	sll	v0,t1,0x2
9d00934c:	27a30010 	addiu	v1,sp,16
9d009350:	00621021 	addu	v0,v1,v0
9d009354:	26940009 	addiu	s4,s4,9
9d009358:	ac4a0000 	sw	t2,0(v0)
9d00935c:	1000ff61 	b	9d0090e4 <decfloat+0x5f8>
9d009360:	26f7ffe3 	addiu	s7,s7,-29
9d009364:	27a80010 	addiu	t0,sp,16
9d009368:	010e6821 	addu	t5,t0,t6
9d00936c:	8dad0000 	lw	t5,0(t5)
9d009370:	006d7806 	srlv	t7,t5,v1
9d009374:	01ec6021 	addu	t4,t7,t4
9d009378:	14490005 	bne	v0,t1,9d009390 <decfloat+0x8a4>
9d00937c:	244f0001 	addiu	t7,v0,1
9d009380:	55800004 	bnezl	t4,9d009394 <decfloat+0x8a8>
9d009384:	27a20010 	addiu	v0,sp,16
9d009388:	31e9007f 	andi	t1,t7,0x7f
9d00938c:	2694fff7 	addiu	s4,s4,-9
9d009390:	27a20010 	addiu	v0,sp,16
9d009394:	004e7021 	addu	t6,v0,t6
9d009398:	adcc0000 	sw	t4,0(t6)
9d00939c:	030d6024 	and	t4,t8,t5
9d0093a0:	71996002 	mul	t4,t4,t9
9d0093a4:	1000ff81 	b	9d0091ac <decfloat+0x6c0>
9d0093a8:	31e2007f 	andi	v0,t7,0x7f
9d0093ac:	26c2ffff 	addiu	v0,s6,-1
9d0093b0:	3042007f 	andi	v0,v0,0x7f
9d0093b4:	00021080 	sll	v0,v0,0x2
9d0093b8:	27a80010 	addiu	t0,sp,16
9d0093bc:	01021021 	addu	v0,t0,v0
9d0093c0:	8c4c0000 	lw	t4,0(v0)
9d0093c4:	358c0001 	ori	t4,t4,0x1
9d0093c8:	1000ff83 	b	9d0091d8 <decfloat+0x6ec>
9d0093cc:	ac4c0000 	sw	t4,0(v0)
9d0093d0:	15360007 	bne	t1,s6,9d0093f0 <decfloat+0x904>
9d0093d4:	25340001 	addiu	s4,t1,1
9d0093d8:	3296007f 	andi	s6,s4,0x7f
9d0093dc:	26c2ffff 	addiu	v0,s6,-1
9d0093e0:	00021080 	sll	v0,v0,0x2
9d0093e4:	27a30010 	addiu	v1,sp,16
9d0093e8:	00621021 	addu	v0,v1,v0
9d0093ec:	ac400000 	sw	zero,0(v0)
9d0093f0:	00091080 	sll	v0,t1,0x2
9d0093f4:	27a30010 	addiu	v1,sp,16
9d0093f8:	00621021 	addu	v0,v1,v0
9d0093fc:	8c440000 	lw	a0,0(v0)
9d009400:	afa90210 	sw	t1,528(sp)
9d009404:	0f404d11 	jal	9d013444 <__floatunsidf>
9d009408:	3294007f 	andi	s4,s4,0x7f
9d00940c:	00402025 	move	a0,v0
9d009410:	00602825 	move	a1,v1
9d009414:	00003025 	move	a2,zero
9d009418:	0f40367e 	jal	9d00d9f8 <__adddf3>
9d00941c:	00003825 	move	a3,zero
9d009420:	00402025 	move	a0,v0
9d009424:	00602825 	move	a1,v1
9d009428:	16d40008 	bne	s6,s4,9d00944c <decfloat+0x960>
9d00942c:	8fa90210 	lw	t1,528(sp)
9d009430:	26c80001 	addiu	t0,s6,1
9d009434:	3116007f 	andi	s6,t0,0x7f
9d009438:	26c3ffff 	addiu	v1,s6,-1
9d00943c:	00031880 	sll	v1,v1,0x2
9d009440:	27a20010 	addiu	v0,sp,16
9d009444:	00431821 	addu	v1,v0,v1
9d009448:	ac600000 	sw	zero,0(v1)
9d00944c:	3c029d00 	lui	v0,0x9d00
9d009450:	8c4675e8 	lw	a2,30184(v0)
9d009454:	8c4775ec 	lw	a3,30188(v0)
9d009458:	afa90210 	sw	t1,528(sp)
9d00945c:	0f403a65 	jal	9d00e994 <__muldf3>
9d009460:	0014a080 	sll	s4,s4,0x2
9d009464:	00408025 	move	s0,v0
9d009468:	27a20010 	addiu	v0,sp,16
9d00946c:	0054a021 	addu	s4,v0,s4
9d009470:	8e840000 	lw	a0,0(s4)
9d009474:	0f404d11 	jal	9d013444 <__floatunsidf>
9d009478:	00608825 	move	s1,v1
9d00947c:	00402025 	move	a0,v0
9d009480:	02003025 	move	a2,s0
9d009484:	02203825 	move	a3,s1
9d009488:	0f40367e 	jal	9d00d9f8 <__adddf3>
9d00948c:	00602825 	move	a1,v1
9d009490:	00403025 	move	a2,v0
9d009494:	00603825 	move	a3,v1
9d009498:	02402025 	move	a0,s2
9d00949c:	0f403a65 	jal	9d00e994 <__muldf3>
9d0094a0:	02602825 	move	a1,s3
9d0094a4:	0060a825 	move	s5,v1
9d0094a8:	8fa3025c 	lw	v1,604(sp)
9d0094ac:	0040a025 	move	s4,v0
9d0094b0:	26e20035 	addiu	v0,s7,53
9d0094b4:	00431023 	subu	v0,v0,v1
9d0094b8:	8fa30258 	lw	v1,600(sp)
9d0094bc:	afa20214 	sw	v0,532(sp)
9d0094c0:	0043102a 	slt	v0,v0,v1
9d0094c4:	104000b3 	beqz	v0,9d009794 <decfloat+0xca8>
9d0094c8:	8fa90210 	lw	t1,528(sp)
9d0094cc:	8fa20214 	lw	v0,532(sp)
9d0094d0:	044200b3 	bltzl	v0,9d0097a0 <decfloat+0xcb4>
9d0094d4:	24020001 	li	v0,1
9d0094d8:	0040f025 	move	s8,v0
9d0094dc:	24020001 	li	v0,1
9d0094e0:	afa20210 	sw	v0,528(sp)
9d0094e4:	2bc20035 	slti	v0,s8,53
9d0094e8:	afa00218 	sw	zero,536(sp)
9d0094ec:	afa0021c 	sw	zero,540(sp)
9d0094f0:	00008025 	move	s0,zero
9d0094f4:	1040002a 	beqz	v0,9d0095a0 <decfloat+0xab4>
9d0094f8:	00008825 	move	s1,zero
9d0094fc:	3c029d00 	lui	v0,0x9d00
9d009500:	8c5075f0 	lw	s0,30192(v0)
9d009504:	8c5175f4 	lw	s1,30196(v0)
9d009508:	24060069 	li	a2,105
9d00950c:	02002025 	move	a0,s0
9d009510:	02202825 	move	a1,s1
9d009514:	00de3023 	subu	a2,a2,s8
9d009518:	0f40455f 	jal	9d01157c <scalbn>
9d00951c:	afa90220 	sw	t1,544(sp)
9d009520:	00402025 	move	a0,v0
9d009524:	02a03825 	move	a3,s5
9d009528:	02803025 	move	a2,s4
9d00952c:	0f404e3d 	jal	9d0138f4 <copysignl>
9d009530:	00602825 	move	a1,v1
9d009534:	24060035 	li	a2,53
9d009538:	02002025 	move	a0,s0
9d00953c:	02202825 	move	a1,s1
9d009540:	00de3023 	subu	a2,a2,s8
9d009544:	afa20218 	sw	v0,536(sp)
9d009548:	0f40455f 	jal	9d01157c <scalbn>
9d00954c:	afa3021c 	sw	v1,540(sp)
9d009550:	00403025 	move	a2,v0
9d009554:	02802025 	move	a0,s4
9d009558:	02a02825 	move	a1,s5
9d00955c:	0f403c9a 	jal	9d00f268 <dpfmod>
9d009560:	00603825 	move	a3,v1
9d009564:	00403025 	move	a2,v0
9d009568:	02802025 	move	a0,s4
9d00956c:	02a02825 	move	a1,s5
9d009570:	00603825 	move	a3,v1
9d009574:	00408025 	move	s0,v0
9d009578:	0f40367c 	jal	9d00d9f0 <__subdf3>
9d00957c:	00608825 	move	s1,v1
9d009580:	8fa40218 	lw	a0,536(sp)
9d009584:	8fa5021c 	lw	a1,540(sp)
9d009588:	00403025 	move	a2,v0
9d00958c:	0f40367e 	jal	9d00d9f8 <__adddf3>
9d009590:	00603825 	move	a3,v1
9d009594:	8fa90220 	lw	t1,544(sp)
9d009598:	0040a025 	move	s4,v0
9d00959c:	0060a825 	move	s5,v1
9d0095a0:	25220002 	addiu	v0,t1,2
9d0095a4:	3042007f 	andi	v0,v0,0x7f
9d0095a8:	10560034 	beq	v0,s6,9d00967c <decfloat+0xb90>
9d0095ac:	27a30010 	addiu	v1,sp,16
9d0095b0:	00021080 	sll	v0,v0,0x2
9d0095b4:	00621021 	addu	v0,v1,v0
9d0095b8:	8c430000 	lw	v1,0(v0)
9d0095bc:	3c021dcd 	lui	v0,0x1dcd
9d0095c0:	24426500 	addiu	v0,v0,25856
9d0095c4:	0062202b 	sltu	a0,v1,v0
9d0095c8:	10800078 	beqz	a0,9d0097ac <decfloat+0xcc0>
9d0095cc:	00000000 	nop
9d0095d0:	14600004 	bnez	v1,9d0095e4 <decfloat+0xaf8>
9d0095d4:	25290003 	addiu	t1,t1,3
9d0095d8:	3129007f 	andi	t1,t1,0x7f
9d0095dc:	1136000f 	beq	t1,s6,9d00961c <decfloat+0xb30>
9d0095e0:	24020035 	li	v0,53
9d0095e4:	3c029d00 	lui	v0,0x9d00
9d0095e8:	8c4675f8 	lw	a2,30200(v0)
9d0095ec:	8c4775fc 	lw	a3,30204(v0)
9d0095f0:	02402025 	move	a0,s2
9d0095f4:	0f403a65 	jal	9d00e994 <__muldf3>
9d0095f8:	02602825 	move	a1,s3
9d0095fc:	00403025 	move	a2,v0
9d009600:	02002025 	move	a0,s0
9d009604:	02202825 	move	a1,s1
9d009608:	0f40367e 	jal	9d00d9f8 <__adddf3>
9d00960c:	00603825 	move	a3,v1
9d009610:	00408025 	move	s0,v0
9d009614:	00608825 	move	s1,v1
9d009618:	24020035 	li	v0,53
9d00961c:	005e1023 	subu	v0,v0,s8
9d009620:	28420002 	slti	v0,v0,2
9d009624:	14400015 	bnez	v0,9d00967c <decfloat+0xb90>
9d009628:	3c029d00 	lui	v0,0x9d00
9d00962c:	8c5275f0 	lw	s2,30192(v0)
9d009630:	8c5375f4 	lw	s3,30196(v0)
9d009634:	02002025 	move	a0,s0
9d009638:	02403025 	move	a2,s2
9d00963c:	02603825 	move	a3,s3
9d009640:	0f403c9a 	jal	9d00f268 <dpfmod>
9d009644:	02202825 	move	a1,s1
9d009648:	00402025 	move	a0,v0
9d00964c:	00003025 	move	a2,zero
9d009650:	00003825 	move	a3,zero
9d009654:	0f404331 	jal	9d010cc4 <__eqdf2>
9d009658:	00602825 	move	a1,v1
9d00965c:	14400007 	bnez	v0,9d00967c <decfloat+0xb90>
9d009660:	02002025 	move	a0,s0
9d009664:	02202825 	move	a1,s1
9d009668:	02403025 	move	a2,s2
9d00966c:	0f40367e 	jal	9d00d9f8 <__adddf3>
9d009670:	02603825 	move	a3,s3
9d009674:	00408025 	move	s0,v0
9d009678:	00608825 	move	s1,v1
9d00967c:	8fa2025c 	lw	v0,604(sp)
9d009680:	8fa30258 	lw	v1,600(sp)
9d009684:	02003025 	move	a2,s0
9d009688:	00021023 	negu	v0,v0
9d00968c:	02203825 	move	a3,s1
9d009690:	02802025 	move	a0,s4
9d009694:	02a02825 	move	a1,s5
9d009698:	0f40367e 	jal	9d00d9f8 <__adddf3>
9d00969c:	0043b023 	subu	s6,v0,v1
9d0096a0:	8fa60218 	lw	a2,536(sp)
9d0096a4:	8fa7021c 	lw	a3,540(sp)
9d0096a8:	00402025 	move	a0,v0
9d0096ac:	0f40367c 	jal	9d00d9f0 <__subdf3>
9d0096b0:	00602825 	move	a1,v1
9d0096b4:	00409025 	move	s2,v0
9d0096b8:	26e20035 	addiu	v0,s7,53
9d0096bc:	00609825 	move	s3,v1
9d0096c0:	7c42f000 	ext	v0,v0,0x0,0x1f
9d0096c4:	26c3ffff 	addiu	v1,s6,-1
9d0096c8:	0043102a 	slt	v0,v0,v1
9d0096cc:	1440002c 	bnez	v0,9d009780 <decfloat+0xc94>
9d0096d0:	02e03025 	move	a2,s7
9d0096d4:	02402025 	move	a0,s2
9d0096d8:	0f404f31 	jal	9d013cc4 <fabsl>
9d0096dc:	02602825 	move	a1,s3
9d0096e0:	3c049d00 	lui	a0,0x9d00
9d0096e4:	8c867610 	lw	a2,30224(a0)
9d0096e8:	8c877614 	lw	a3,30228(a0)
9d0096ec:	00602825 	move	a1,v1
9d0096f0:	0f404331 	jal	9d010cc4 <__eqdf2>
9d0096f4:	00402025 	move	a0,v0
9d0096f8:	0440000f 	bltz	v0,9d009738 <decfloat+0xc4c>
9d0096fc:	8fa20210 	lw	v0,528(sp)
9d009700:	10400004 	beqz	v0,9d009714 <decfloat+0xc28>
9d009704:	8fa20214 	lw	v0,532(sp)
9d009708:	005ef026 	xor	s8,v0,s8
9d00970c:	001e102b 	sltu	v0,zero,s8
9d009710:	afa20210 	sw	v0,528(sp)
9d009714:	3c029d00 	lui	v0,0x9d00
9d009718:	8c467608 	lw	a2,30216(v0)
9d00971c:	8c47760c 	lw	a3,30220(v0)
9d009720:	02402025 	move	a0,s2
9d009724:	0f403a65 	jal	9d00e994 <__muldf3>
9d009728:	02602825 	move	a1,s3
9d00972c:	00409025 	move	s2,v0
9d009730:	00609825 	move	s3,v1
9d009734:	26f70001 	addiu	s7,s7,1
9d009738:	26e20034 	addiu	v0,s7,52
9d00973c:	26d60003 	addiu	s6,s6,3
9d009740:	0056b02a 	slt	s6,v0,s6
9d009744:	12c0000b 	beqz	s6,9d009774 <decfloat+0xc88>
9d009748:	3c02a000 	lui	v0,0xa000
9d00974c:	8fa20210 	lw	v0,528(sp)
9d009750:	1040000a 	beqz	v0,9d00977c <decfloat+0xc90>
9d009754:	00003025 	move	a2,zero
9d009758:	00003825 	move	a3,zero
9d00975c:	02002025 	move	a0,s0
9d009760:	0f404331 	jal	9d010cc4 <__eqdf2>
9d009764:	02202825 	move	a1,s1
9d009768:	10400005 	beqz	v0,9d009780 <decfloat+0xc94>
9d00976c:	02e03025 	move	a2,s7
9d009770:	3c02a000 	lui	v0,0xa000
9d009774:	24030022 	li	v1,34
9d009778:	ac433080 	sw	v1,12416(v0)
9d00977c:	02e03025 	move	a2,s7
9d009780:	02402025 	move	a0,s2
9d009784:	0f404f38 	jal	9d013ce0 <scalbnl>
9d009788:	02602825 	move	a1,s3
9d00978c:	10000025 	b	9d009824 <decfloat+0xd38>
9d009790:	8fbf024c 	lw	ra,588(sp)
9d009794:	8fbe0258 	lw	s8,600(sp)
9d009798:	1000ff52 	b	9d0094e4 <decfloat+0x9f8>
9d00979c:	afa00210 	sw	zero,528(sp)
9d0097a0:	afa20210 	sw	v0,528(sp)
9d0097a4:	1000ff55 	b	9d0094fc <decfloat+0xa10>
9d0097a8:	0000f025 	move	s8,zero
9d0097ac:	10620005 	beq	v1,v0,9d0097c4 <decfloat+0xcd8>
9d0097b0:	25290003 	addiu	t1,t1,3
9d0097b4:	3c029d00 	lui	v0,0x9d00
9d0097b8:	8c467600 	lw	a2,30208(v0)
9d0097bc:	1000ff8c 	b	9d0095f0 <decfloat+0xb04>
9d0097c0:	8c477604 	lw	a3,30212(v0)
9d0097c4:	3129007f 	andi	t1,t1,0x7f
9d0097c8:	1536fffa 	bne	t1,s6,9d0097b4 <decfloat+0xcc8>
9d0097cc:	3c029d00 	lui	v0,0x9d00
9d0097d0:	8c467608 	lw	a2,30216(v0)
9d0097d4:	1000ff86 	b	9d0095f0 <decfloat+0xb04>
9d0097d8:	8c47760c 	lw	a3,30220(v0)
9d0097dc:	04400009 	bltz	v0,9d009804 <decfloat+0xd18>
9d0097e0:	3c02a000 	lui	v0,0xa000
9d0097e4:	8e22004c 	lw	v0,76(s1)
9d0097e8:	10400004 	beqz	v0,9d0097fc <decfloat+0xd10>
9d0097ec:	00000000 	nop
9d0097f0:	8e22003c 	lw	v0,60(s1)
9d0097f4:	2442ffff 	addiu	v0,v0,-1
9d0097f8:	ae22003c 	sw	v0,60(s1)
9d0097fc:	1660fd07 	bnez	s3,9d008c1c <decfloat+0x130>
9d009800:	3c02a000 	lui	v0,0xa000
9d009804:	24030016 	li	v1,22
9d009808:	ac433080 	sw	v1,12416(v0)
9d00980c:	00002825 	move	a1,zero
9d009810:	0f404e1c 	jal	9d013870 <__shlim>
9d009814:	02202025 	move	a0,s1
9d009818:	00001025 	move	v0,zero
9d00981c:	00001825 	move	v1,zero
9d009820:	8fbf024c 	lw	ra,588(sp)
9d009824:	8fbe0248 	lw	s8,584(sp)
9d009828:	8fb70244 	lw	s7,580(sp)
9d00982c:	8fb60240 	lw	s6,576(sp)
9d009830:	8fb5023c 	lw	s5,572(sp)
9d009834:	8fb40238 	lw	s4,568(sp)
9d009838:	8fb30234 	lw	s3,564(sp)
9d00983c:	8fb20230 	lw	s2,560(sp)
9d009840:	8fb1022c 	lw	s1,556(sp)
9d009844:	8fb00228 	lw	s0,552(sp)
9d009848:	03e00008 	jr	ra
9d00984c:	27bd0250 	addiu	sp,sp,592
9d009850:	0441ffe4 	bgez	v0,9d0097e4 <decfloat+0xcf8>
9d009854:	8fa40260 	lw	a0,608(sp)
9d009858:	1000fcf2 	b	9d008c24 <decfloat+0x138>
9d00985c:	8fb10010 	lw	s1,16(sp)

Disassembly of section .text.__floatscan:

9d009860 <__floatscan>:
9d009860:	2ca70003 	sltiu	a3,a1,3
9d009864:	00001025 	move	v0,zero
9d009868:	10e002f8 	beqz	a3,9d00a44c <__floatscan+0xbec>
9d00986c:	00001825 	move	v1,zero
9d009870:	3c029d01 	lui	v0,0x9d01
9d009874:	2442384c 	addiu	v0,v0,14412
9d009878:	00a21021 	addu	v0,a1,v0
9d00987c:	80420000 	lb	v0,0(v0)
9d009880:	27bdff88 	addiu	sp,sp,-120
9d009884:	00052840 	sll	a1,a1,0x1
9d009888:	afa20024 	sw	v0,36(sp)
9d00988c:	3c029d01 	lui	v0,0x9d01
9d009890:	24423844 	addiu	v0,v0,14404
9d009894:	00a22821 	addu	a1,a1,v0
9d009898:	84a20000 	lh	v0,0(a1)
9d00989c:	afb60068 	sw	s6,104(sp)
9d0098a0:	afb40060 	sw	s4,96(sp)
9d0098a4:	afbf0074 	sw	ra,116(sp)
9d0098a8:	afbe0070 	sw	s8,112(sp)
9d0098ac:	afb7006c 	sw	s7,108(sp)
9d0098b0:	afb50064 	sw	s5,100(sp)
9d0098b4:	afb3005c 	sw	s3,92(sp)
9d0098b8:	afb20058 	sw	s2,88(sp)
9d0098bc:	afb10054 	sw	s1,84(sp)
9d0098c0:	afb00050 	sw	s0,80(sp)
9d0098c4:	00c0b025 	move	s6,a2
9d0098c8:	0080a025 	move	s4,a0
9d0098cc:	afa20018 	sw	v0,24(sp)
9d0098d0:	8e82003c 	lw	v0,60(s4)
9d0098d4:	8e83004c 	lw	v1,76(s4)
9d0098d8:	0043182b 	sltu	v1,v0,v1
9d0098dc:	10600036 	beqz	v1,9d0099b8 <__floatscan+0x158>
9d0098e0:	24430001 	addiu	v1,v0,1
9d0098e4:	ae83003c 	sw	v1,60(s4)
9d0098e8:	90520000 	lbu	s2,0(v0)
9d0098ec:	24020020 	li	v0,32
9d0098f0:	1242fff7 	beq	s2,v0,9d0098d0 <__floatscan+0x70>
9d0098f4:	2642fff7 	addiu	v0,s2,-9
9d0098f8:	2c420005 	sltiu	v0,v0,5
9d0098fc:	1440fff4 	bnez	v0,9d0098d0 <__floatscan+0x70>
9d009900:	2402002b 	li	v0,43
9d009904:	12420005 	beq	s2,v0,9d00991c <__floatscan+0xbc>
9d009908:	00001025 	move	v0,zero
9d00990c:	2402002d 	li	v0,45
9d009910:	1642000b 	bne	s2,v0,9d009940 <__floatscan+0xe0>
9d009914:	24110001 	li	s1,1
9d009918:	24020002 	li	v0,2
9d00991c:	24110001 	li	s1,1
9d009920:	02228823 	subu	s1,s1,v0
9d009924:	8e83004c 	lw	v1,76(s4)
9d009928:	8e82003c 	lw	v0,60(s4)
9d00992c:	0043182b 	sltu	v1,v0,v1
9d009930:	10600025 	beqz	v1,9d0099c8 <__floatscan+0x168>
9d009934:	24430001 	addiu	v1,v0,1
9d009938:	ae83003c 	sw	v1,60(s4)
9d00993c:	90520000 	lbu	s2,0(v0)
9d009940:	3c139d00 	lui	s3,0x9d00
9d009944:	00008025 	move	s0,zero
9d009948:	267375c4 	addiu	s3,s3,30148
9d00994c:	02701821 	addu	v1,s3,s0
9d009950:	80630000 	lb	v1,0(v1)
9d009954:	36420020 	ori	v0,s2,0x20
9d009958:	1043001f 	beq	v0,v1,9d0099d8 <__floatscan+0x178>
9d00995c:	24020003 	li	v0,3
9d009960:	12020005 	beq	s0,v0,9d009978 <__floatscan+0x118>
9d009964:	2e020004 	sltiu	v0,s0,4
9d009968:	1440003f 	bnez	v0,9d009a68 <__floatscan+0x208>
9d00996c:	00000000 	nop
9d009970:	52c000ef 	beqzl	s6,9d009d30 <__floatscan+0x4d0>
9d009974:	8e82004c 	lw	v0,76(s4)
9d009978:	8e83004c 	lw	v1,76(s4)
9d00997c:	10600004 	beqz	v1,9d009990 <__floatscan+0x130>
9d009980:	00000000 	nop
9d009984:	8e82003c 	lw	v0,60(s4)
9d009988:	2442ffff 	addiu	v0,v0,-1
9d00998c:	ae82003c 	sw	v0,60(s4)
9d009990:	12c0001f 	beqz	s6,9d009a10 <__floatscan+0x1b0>
9d009994:	24040003 	li	a0,3
9d009998:	1204001e 	beq	s0,a0,9d009a14 <__floatscan+0x1b4>
9d00999c:	2402ffff 	li	v0,-1
9d0099a0:	1060fffd 	beqz	v1,9d009998 <__floatscan+0x138>
9d0099a4:	2610ffff 	addiu	s0,s0,-1
9d0099a8:	8e82003c 	lw	v0,60(s4)
9d0099ac:	2442ffff 	addiu	v0,v0,-1
9d0099b0:	1000fff9 	b	9d009998 <__floatscan+0x138>
9d0099b4:	ae82003c 	sw	v0,60(s4)
9d0099b8:	0f4046ff 	jal	9d011bfc <__shgetc>
9d0099bc:	02802025 	move	a0,s4
9d0099c0:	1000ffca 	b	9d0098ec <__floatscan+0x8c>
9d0099c4:	00409025 	move	s2,v0
9d0099c8:	0f4046ff 	jal	9d011bfc <__shgetc>
9d0099cc:	02802025 	move	a0,s4
9d0099d0:	1000ffdb 	b	9d009940 <__floatscan+0xe0>
9d0099d4:	00409025 	move	s2,v0
9d0099d8:	24020007 	li	v0,7
9d0099dc:	52020009 	beql	s0,v0,9d009a04 <__floatscan+0x1a4>
9d0099e0:	26100001 	addiu	s0,s0,1
9d0099e4:	8e82003c 	lw	v0,60(s4)
9d0099e8:	8e83004c 	lw	v1,76(s4)
9d0099ec:	0043182b 	sltu	v1,v0,v1
9d0099f0:	10600019 	beqz	v1,9d009a58 <__floatscan+0x1f8>
9d0099f4:	24430001 	addiu	v1,v0,1
9d0099f8:	ae83003c 	sw	v1,60(s4)
9d0099fc:	90520000 	lbu	s2,0(v0)
9d009a00:	26100001 	addiu	s0,s0,1
9d009a04:	24020008 	li	v0,8
9d009a08:	1602ffd1 	bne	s0,v0,9d009950 <__floatscan+0xf0>
9d009a0c:	02701821 	addu	v1,s3,s0
9d009a10:	2402ffff 	li	v0,-1
9d009a14:	12220282 	beq	s1,v0,9d00a420 <__floatscan+0xbc0>
9d009a18:	3c029d00 	lui	v0,0x9d00
9d009a1c:	3c029d00 	lui	v0,0x9d00
9d009a20:	8c43762c 	lw	v1,30252(v0)
9d009a24:	8c427628 	lw	v0,30248(v0)
9d009a28:	8fbf0074 	lw	ra,116(sp)
9d009a2c:	8fbe0070 	lw	s8,112(sp)
9d009a30:	8fb7006c 	lw	s7,108(sp)
9d009a34:	8fb60068 	lw	s6,104(sp)
9d009a38:	8fb50064 	lw	s5,100(sp)
9d009a3c:	8fb40060 	lw	s4,96(sp)
9d009a40:	8fb3005c 	lw	s3,92(sp)
9d009a44:	8fb20058 	lw	s2,88(sp)
9d009a48:	8fb10054 	lw	s1,84(sp)
9d009a4c:	8fb00050 	lw	s0,80(sp)
9d009a50:	03e00008 	jr	ra
9d009a54:	27bd0078 	addiu	sp,sp,120
9d009a58:	0f4046ff 	jal	9d011bfc <__shgetc>
9d009a5c:	02802025 	move	a0,s4
9d009a60:	1000ffe7 	b	9d009a00 <__floatscan+0x1a0>
9d009a64:	00409025 	move	s2,v0
9d009a68:	160000b0 	bnez	s0,9d009d2c <__floatscan+0x4cc>
9d009a6c:	3c139d00 	lui	s3,0x9d00
9d009a70:	267375d0 	addiu	s3,s3,30160
9d009a74:	02701821 	addu	v1,s3,s0
9d009a78:	80630000 	lb	v1,0(v1)
9d009a7c:	36420020 	ori	v0,s2,0x20
9d009a80:	1043004b 	beq	v0,v1,9d009bb0 <__floatscan+0x350>
9d009a84:	24020002 	li	v0,2
9d009a88:	160000a8 	bnez	s0,9d009d2c <__floatscan+0x4cc>
9d009a8c:	8fa20024 	lw	v0,36(sp)
9d009a90:	afa20020 	sw	v0,32(sp)
9d009a94:	24020030 	li	v0,48
9d009a98:	16420259 	bne	s2,v0,9d00a400 <__floatscan+0xba0>
9d009a9c:	8fa70018 	lw	a3,24(sp)
9d009aa0:	8e82003c 	lw	v0,60(s4)
9d009aa4:	8e83004c 	lw	v1,76(s4)
9d009aa8:	0043182b 	sltu	v1,v0,v1
9d009aac:	106000a6 	beqz	v1,9d009d48 <__floatscan+0x4e8>
9d009ab0:	00000000 	nop
9d009ab4:	24430001 	addiu	v1,v0,1
9d009ab8:	ae83003c 	sw	v1,60(s4)
9d009abc:	90420000 	lbu	v0,0(v0)
9d009ac0:	34420020 	ori	v0,v0,0x20
9d009ac4:	24040078 	li	a0,120
9d009ac8:	14440247 	bne	v0,a0,9d00a3e8 <__floatscan+0xb88>
9d009acc:	8e83004c 	lw	v1,76(s4)
9d009ad0:	8e82003c 	lw	v0,60(s4)
9d009ad4:	0043182b 	sltu	v1,v0,v1
9d009ad8:	1060009f 	beqz	v1,9d009d58 <__floatscan+0x4f8>
9d009adc:	00000000 	nop
9d009ae0:	24430001 	addiu	v1,v0,1
9d009ae4:	ae83003c 	sw	v1,60(s4)
9d009ae8:	90420000 	lbu	v0,0(v0)
9d009aec:	00001825 	move	v1,zero
9d009af0:	24040030 	li	a0,48
9d009af4:	1044009c 	beq	v0,a0,9d009d68 <__floatscan+0x508>
9d009af8:	2404002e 	li	a0,46
9d009afc:	104400a8 	beq	v0,a0,9d009da0 <__floatscan+0x540>
9d009b00:	0000b825 	move	s7,zero
9d009b04:	0000f025 	move	s8,zero
9d009b08:	00006825 	move	t5,zero
9d009b0c:	3c049d00 	lui	a0,0x9d00
9d009b10:	8c8675f0 	lw	a2,30192(a0)
9d009b14:	8c8775f4 	lw	a3,30196(a0)
9d009b18:	0000a825 	move	s5,zero
9d009b1c:	00005825 	move	t3,zero
9d009b20:	afa00030 	sw	zero,48(sp)
9d009b24:	afa60028 	sw	a2,40(sp)
9d009b28:	afa7002c 	sw	a3,44(sp)
9d009b2c:	00009025 	move	s2,zero
9d009b30:	00009825 	move	s3,zero
9d009b34:	afa40034 	sw	a0,52(sp)
9d009b38:	244effd0 	addiu	t6,v0,-48
9d009b3c:	2dc4000a 	sltiu	a0,t6,10
9d009b40:	148000bd 	bnez	a0,9d009e38 <__floatscan+0x5d8>
9d009b44:	34440020 	ori	a0,v0,0x20
9d009b48:	2484ff9f 	addiu	a0,a0,-97
9d009b4c:	2c840006 	sltiu	a0,a0,6
9d009b50:	148000b9 	bnez	a0,9d009e38 <__floatscan+0x5d8>
9d009b54:	2404002e 	li	a0,46
9d009b58:	104400ba 	beq	v0,a0,9d009e44 <__floatscan+0x5e4>
9d009b5c:	00000000 	nop
9d009b60:	54600123 	bnezl	v1,9d009ff0 <__floatscan+0x790>
9d009b64:	02adb80a 	movz	s7,s5,t5
9d009b68:	8e82004c 	lw	v0,76(s4)
9d009b6c:	1040022f 	beqz	v0,9d00a42c <__floatscan+0xbcc>
9d009b70:	00000000 	nop
9d009b74:	12c00117 	beqz	s6,9d009fd4 <__floatscan+0x774>
9d009b78:	8e82003c 	lw	v0,60(s4)
9d009b7c:	55a00002 	bnezl	t5,9d009b88 <__floatscan+0x328>
9d009b80:	2442fffd 	addiu	v0,v0,-3
9d009b84:	2442fffe 	addiu	v0,v0,-2
9d009b88:	ae82003c 	sw	v0,60(s4)
9d009b8c:	0f404acb 	jal	9d012b2c <__floatsidf>
9d009b90:	02202025 	move	a0,s1
9d009b94:	00003025 	move	a2,zero
9d009b98:	00003825 	move	a3,zero
9d009b9c:	00402025 	move	a0,v0
9d009ba0:	0f403a65 	jal	9d00e994 <__muldf3>
9d009ba4:	00602825 	move	a1,v1
9d009ba8:	1000ffa0 	b	9d009a2c <__floatscan+0x1cc>
9d009bac:	8fbf0074 	lw	ra,116(sp)
9d009bb0:	52020009 	beql	s0,v0,9d009bd8 <__floatscan+0x378>
9d009bb4:	26100001 	addiu	s0,s0,1
9d009bb8:	8e82003c 	lw	v0,60(s4)
9d009bbc:	8e83004c 	lw	v1,76(s4)
9d009bc0:	0043182b 	sltu	v1,v0,v1
9d009bc4:	10600010 	beqz	v1,9d009c08 <__floatscan+0x3a8>
9d009bc8:	24430001 	addiu	v1,v0,1
9d009bcc:	ae83003c 	sw	v1,60(s4)
9d009bd0:	90520000 	lbu	s2,0(v0)
9d009bd4:	26100001 	addiu	s0,s0,1
9d009bd8:	24020003 	li	v0,3
9d009bdc:	1602ffa6 	bne	s0,v0,9d009a78 <__floatscan+0x218>
9d009be0:	02701821 	addu	v1,s3,s0
9d009be4:	8e83003c 	lw	v1,60(s4)
9d009be8:	8e82004c 	lw	v0,76(s4)
9d009bec:	0062102b 	sltu	v0,v1,v0
9d009bf0:	54400009 	bnezl	v0,9d009c18 <__floatscan+0x3b8>
9d009bf4:	24620001 	addiu	v0,v1,1
9d009bf8:	0f4046ff 	jal	9d011bfc <__shgetc>
9d009bfc:	02802025 	move	a0,s4
9d009c00:	10000008 	b	9d009c24 <__floatscan+0x3c4>
9d009c04:	38420028 	xori	v0,v0,0x28
9d009c08:	0f4046ff 	jal	9d011bfc <__shgetc>
9d009c0c:	02802025 	move	a0,s4
9d009c10:	1000fff0 	b	9d009bd4 <__floatscan+0x374>
9d009c14:	00409025 	move	s2,v0
9d009c18:	ae82003c 	sw	v0,60(s4)
9d009c1c:	90620000 	lbu	v0,0(v1)
9d009c20:	38420028 	xori	v0,v0,0x28
9d009c24:	0002102b 	sltu	v0,zero,v0
9d009c28:	1040000b 	beqz	v0,9d009c58 <__floatscan+0x3f8>
9d009c2c:	24100001 	li	s0,1
9d009c30:	8e82004c 	lw	v0,76(s4)
9d009c34:	54400005 	bnezl	v0,9d009c4c <__floatscan+0x3ec>
9d009c38:	8e82003c 	lw	v0,60(s4)
9d009c3c:	3c029d00 	lui	v0,0x9d00
9d009c40:	8c437624 	lw	v1,30244(v0)
9d009c44:	1000ff78 	b	9d009a28 <__floatscan+0x1c8>
9d009c48:	8c427620 	lw	v0,30240(v0)
9d009c4c:	2442ffff 	addiu	v0,v0,-1
9d009c50:	1000fffa 	b	9d009c3c <__floatscan+0x3dc>
9d009c54:	ae82003c 	sw	v0,60(s4)
9d009c58:	8e82003c 	lw	v0,60(s4)
9d009c5c:	8e83004c 	lw	v1,76(s4)
9d009c60:	0043182b 	sltu	v1,v0,v1
9d009c64:	10600011 	beqz	v1,9d009cac <__floatscan+0x44c>
9d009c68:	00000000 	nop
9d009c6c:	24430001 	addiu	v1,v0,1
9d009c70:	ae83003c 	sw	v1,60(s4)
9d009c74:	90420000 	lbu	v0,0(v0)
9d009c78:	2443ffd0 	addiu	v1,v0,-48
9d009c7c:	2c63000a 	sltiu	v1,v1,10
9d009c80:	14600008 	bnez	v1,9d009ca4 <__floatscan+0x444>
9d009c84:	00401825 	move	v1,v0
9d009c88:	7c032944 	ins	v1,zero,0x5,0x1
9d009c8c:	2463ffbf 	addiu	v1,v1,-65
9d009c90:	2c63001a 	sltiu	v1,v1,26
9d009c94:	14600003 	bnez	v1,9d009ca4 <__floatscan+0x444>
9d009c98:	2403005f 	li	v1,95
9d009c9c:	14430007 	bne	v0,v1,9d009cbc <__floatscan+0x45c>
9d009ca0:	24030029 	li	v1,41
9d009ca4:	1000ffec 	b	9d009c58 <__floatscan+0x3f8>
9d009ca8:	26100001 	addiu	s0,s0,1
9d009cac:	0f4046ff 	jal	9d011bfc <__shgetc>
9d009cb0:	02802025 	move	a0,s4
9d009cb4:	1000fff1 	b	9d009c7c <__floatscan+0x41c>
9d009cb8:	2443ffd0 	addiu	v1,v0,-48
9d009cbc:	1043ffe0 	beq	v0,v1,9d009c40 <__floatscan+0x3e0>
9d009cc0:	3c029d00 	lui	v0,0x9d00
9d009cc4:	8e83004c 	lw	v1,76(s4)
9d009cc8:	10600004 	beqz	v1,9d009cdc <__floatscan+0x47c>
9d009ccc:	00000000 	nop
9d009cd0:	8e82003c 	lw	v0,60(s4)
9d009cd4:	2442ffff 	addiu	v0,v0,-1
9d009cd8:	ae82003c 	sw	v0,60(s4)
9d009cdc:	16c0000f 	bnez	s6,9d009d1c <__floatscan+0x4bc>
9d009ce0:	00000000 	nop
9d009ce4:	3c02a000 	lui	v0,0xa000
9d009ce8:	24030016 	li	v1,22
9d009cec:	ac433080 	sw	v1,12416(v0)
9d009cf0:	00002825 	move	a1,zero
9d009cf4:	0f404e1c 	jal	9d013870 <__shlim>
9d009cf8:	02802025 	move	a0,s4
9d009cfc:	00001025 	move	v0,zero
9d009d00:	1000ff49 	b	9d009a28 <__floatscan+0x1c8>
9d009d04:	00001825 	move	v1,zero
9d009d08:	10600004 	beqz	v1,9d009d1c <__floatscan+0x4bc>
9d009d0c:	2610ffff 	addiu	s0,s0,-1
9d009d10:	8e82003c 	lw	v0,60(s4)
9d009d14:	2442ffff 	addiu	v0,v0,-1
9d009d18:	ae82003c 	sw	v0,60(s4)
9d009d1c:	1600fffa 	bnez	s0,9d009d08 <__floatscan+0x4a8>
9d009d20:	3c029d00 	lui	v0,0x9d00
9d009d24:	1000ffc7 	b	9d009c44 <__floatscan+0x3e4>
9d009d28:	8c437624 	lw	v1,30244(v0)
9d009d2c:	8e82004c 	lw	v0,76(s4)
9d009d30:	5040ffed 	beqzl	v0,9d009ce8 <__floatscan+0x488>
9d009d34:	3c02a000 	lui	v0,0xa000
9d009d38:	8e82003c 	lw	v0,60(s4)
9d009d3c:	2442ffff 	addiu	v0,v0,-1
9d009d40:	1000ffe8 	b	9d009ce4 <__floatscan+0x484>
9d009d44:	ae82003c 	sw	v0,60(s4)
9d009d48:	0f4046ff 	jal	9d011bfc <__shgetc>
9d009d4c:	02802025 	move	a0,s4
9d009d50:	1000ff5c 	b	9d009ac4 <__floatscan+0x264>
9d009d54:	34420020 	ori	v0,v0,0x20
9d009d58:	0f4046ff 	jal	9d011bfc <__shgetc>
9d009d5c:	02802025 	move	a0,s4
9d009d60:	1000ff63 	b	9d009af0 <__floatscan+0x290>
9d009d64:	00001825 	move	v1,zero
9d009d68:	8e82003c 	lw	v0,60(s4)
9d009d6c:	8e83004c 	lw	v1,76(s4)
9d009d70:	0043182b 	sltu	v1,v0,v1
9d009d74:	10600006 	beqz	v1,9d009d90 <__floatscan+0x530>
9d009d78:	00000000 	nop
9d009d7c:	24430001 	addiu	v1,v0,1
9d009d80:	ae83003c 	sw	v1,60(s4)
9d009d84:	90420000 	lbu	v0,0(v0)
9d009d88:	1000ff59 	b	9d009af0 <__floatscan+0x290>
9d009d8c:	24030001 	li	v1,1
9d009d90:	0f4046ff 	jal	9d011bfc <__shgetc>
9d009d94:	02802025 	move	a0,s4
9d009d98:	1000ff55 	b	9d009af0 <__floatscan+0x290>
9d009d9c:	24030001 	li	v1,1
9d009da0:	8e82003c 	lw	v0,60(s4)
9d009da4:	8e84004c 	lw	a0,76(s4)
9d009da8:	0044202b 	sltu	a0,v0,a0
9d009dac:	1080000a 	beqz	a0,9d009dd8 <__floatscan+0x578>
9d009db0:	24440001 	addiu	a0,v0,1
9d009db4:	ae84003c 	sw	a0,60(s4)
9d009db8:	90420000 	lbu	v0,0(v0)
9d009dbc:	0000b825 	move	s7,zero
9d009dc0:	0000f025 	move	s8,zero
9d009dc4:	24040030 	li	a0,48
9d009dc8:	10440008 	beq	v0,a0,9d009dec <__floatscan+0x58c>
9d009dcc:	240d0001 	li	t5,1
9d009dd0:	1000ff4f 	b	9d009b10 <__floatscan+0x2b0>
9d009dd4:	3c049d00 	lui	a0,0x9d00
9d009dd8:	02802025 	move	a0,s4
9d009ddc:	0f4046ff 	jal	9d011bfc <__shgetc>
9d009de0:	afa30028 	sw	v1,40(sp)
9d009de4:	1000fff5 	b	9d009dbc <__floatscan+0x55c>
9d009de8:	8fa30028 	lw	v1,40(sp)
9d009dec:	8e82003c 	lw	v0,60(s4)
9d009df0:	8e83004c 	lw	v1,76(s4)
9d009df4:	0043182b 	sltu	v1,v0,v1
9d009df8:	1060000b 	beqz	v1,9d009e28 <__floatscan+0x5c8>
9d009dfc:	00000000 	nop
9d009e00:	24430001 	addiu	v1,v0,1
9d009e04:	ae83003c 	sw	v1,60(s4)
9d009e08:	90420000 	lbu	v0,0(v0)
9d009e0c:	26e3ffff 	addiu	v1,s7,-1
9d009e10:	0077202b 	sltu	a0,v1,s7
9d009e14:	27ccffff 	addiu	t4,s8,-1
9d009e18:	0060b825 	move	s7,v1
9d009e1c:	008cf021 	addu	s8,a0,t4
9d009e20:	1000ffe8 	b	9d009dc4 <__floatscan+0x564>
9d009e24:	24030001 	li	v1,1
9d009e28:	0f4046ff 	jal	9d011bfc <__shgetc>
9d009e2c:	02802025 	move	a0,s4
9d009e30:	1000fff7 	b	9d009e10 <__floatscan+0x5b0>
9d009e34:	26e3ffff 	addiu	v1,s7,-1
9d009e38:	2404002e 	li	a0,46
9d009e3c:	54440011 	bnel	v0,a0,9d009e84 <__floatscan+0x624>
9d009e40:	2843003a 	slti	v1,v0,58
9d009e44:	15a0017d 	bnez	t5,9d00a43c <__floatscan+0xbdc>
9d009e48:	02a02825 	move	a1,s5
9d009e4c:	01605025 	move	t2,t3
9d009e50:	240d0001 	li	t5,1
9d009e54:	8e82003c 	lw	v0,60(s4)
9d009e58:	8e84004c 	lw	a0,76(s4)
9d009e5c:	0044202b 	sltu	a0,v0,a0
9d009e60:	1080004f 	beqz	a0,9d009fa0 <__floatscan+0x740>
9d009e64:	24440001 	addiu	a0,v0,1
9d009e68:	ae84003c 	sw	a0,60(s4)
9d009e6c:	90420000 	lbu	v0,0(v0)
9d009e70:	02a0b825 	move	s7,s5
9d009e74:	0160f025 	move	s8,t3
9d009e78:	00a0a825 	move	s5,a1
9d009e7c:	1000ff2e 	b	9d009b38 <__floatscan+0x2d8>
9d009e80:	01405825 	move	t3,t2
9d009e84:	14600002 	bnez	v1,9d009e90 <__floatscan+0x630>
9d009e88:	34420020 	ori	v0,v0,0x20
9d009e8c:	244effa9 	addiu	t6,v0,-87
9d009e90:	1d60002c 	bgtz	t3,9d009f44 <__floatscan+0x6e4>
9d009e94:	00000000 	nop
9d009e98:	15600003 	bnez	t3,9d009ea8 <__floatscan+0x648>
9d009e9c:	2ea20008 	sltiu	v0,s5,8
9d009ea0:	1040000a 	beqz	v0,9d009ecc <__floatscan+0x66c>
9d009ea4:	2ea2000e 	sltiu	v0,s5,14
9d009ea8:	00108100 	sll	s0,s0,0x4
9d009eac:	01d08021 	addu	s0,t6,s0
9d009eb0:	26a50001 	addiu	a1,s5,1
9d009eb4:	00b5502b 	sltu	t2,a1,s5
9d009eb8:	014b5021 	addu	t2,t2,t3
9d009ebc:	02e0a825 	move	s5,s7
9d009ec0:	03c05825 	move	t3,s8
9d009ec4:	1000ffe3 	b	9d009e54 <__floatscan+0x5f4>
9d009ec8:	24030001 	li	v1,1
9d009ecc:	1040001d 	beqz	v0,9d009f44 <__floatscan+0x6e4>
9d009ed0:	3c029d00 	lui	v0,0x9d00
9d009ed4:	8fa5002c 	lw	a1,44(sp)
9d009ed8:	8c467630 	lw	a2,30256(v0)
9d009edc:	8c477634 	lw	a3,30260(v0)
9d009ee0:	8fa40028 	lw	a0,40(sp)
9d009ee4:	afab0040 	sw	t3,64(sp)
9d009ee8:	afad0038 	sw	t5,56(sp)
9d009eec:	0f403a65 	jal	9d00e994 <__muldf3>
9d009ef0:	afae003c 	sw	t6,60(sp)
9d009ef4:	8fae003c 	lw	t6,60(sp)
9d009ef8:	afa20028 	sw	v0,40(sp)
9d009efc:	afa3002c 	sw	v1,44(sp)
9d009f00:	0f404acb 	jal	9d012b2c <__floatsidf>
9d009f04:	01c02025 	move	a0,t6
9d009f08:	8fa60028 	lw	a2,40(sp)
9d009f0c:	8fa7002c 	lw	a3,44(sp)
9d009f10:	00402025 	move	a0,v0
9d009f14:	0f403a65 	jal	9d00e994 <__muldf3>
9d009f18:	00602825 	move	a1,v1
9d009f1c:	00403025 	move	a2,v0
9d009f20:	02402025 	move	a0,s2
9d009f24:	02602825 	move	a1,s3
9d009f28:	0f40367e 	jal	9d00d9f8 <__adddf3>
9d009f2c:	00603825 	move	a3,v1
9d009f30:	00409025 	move	s2,v0
9d009f34:	00609825 	move	s3,v1
9d009f38:	8fad0038 	lw	t5,56(sp)
9d009f3c:	1000ffdc 	b	9d009eb0 <__floatscan+0x650>
9d009f40:	8fab0040 	lw	t3,64(sp)
9d009f44:	11c0ffda 	beqz	t6,9d009eb0 <__floatscan+0x650>
9d009f48:	8fa20030 	lw	v0,48(sp)
9d009f4c:	1440ffd8 	bnez	v0,9d009eb0 <__floatscan+0x650>
9d009f50:	3c029d00 	lui	v0,0x9d00
9d009f54:	8c467608 	lw	a2,30216(v0)
9d009f58:	8c47760c 	lw	a3,30220(v0)
9d009f5c:	8fa40028 	lw	a0,40(sp)
9d009f60:	8fa5002c 	lw	a1,44(sp)
9d009f64:	afab003c 	sw	t3,60(sp)
9d009f68:	0f403a65 	jal	9d00e994 <__muldf3>
9d009f6c:	afad0038 	sw	t5,56(sp)
9d009f70:	00403025 	move	a2,v0
9d009f74:	02402025 	move	a0,s2
9d009f78:	02602825 	move	a1,s3
9d009f7c:	0f40367e 	jal	9d00d9f8 <__adddf3>
9d009f80:	00603825 	move	a3,v1
9d009f84:	00409025 	move	s2,v0
9d009f88:	24020001 	li	v0,1
9d009f8c:	00609825 	move	s3,v1
9d009f90:	afa20030 	sw	v0,48(sp)
9d009f94:	8fab003c 	lw	t3,60(sp)
9d009f98:	1000ffc5 	b	9d009eb0 <__floatscan+0x650>
9d009f9c:	8fad0038 	lw	t5,56(sp)
9d009fa0:	02802025 	move	a0,s4
9d009fa4:	afaa0048 	sw	t2,72(sp)
9d009fa8:	afa50044 	sw	a1,68(sp)
9d009fac:	afab0040 	sw	t3,64(sp)
9d009fb0:	afa3003c 	sw	v1,60(sp)
9d009fb4:	0f4046ff 	jal	9d011bfc <__shgetc>
9d009fb8:	afad0038 	sw	t5,56(sp)
9d009fbc:	8faa0048 	lw	t2,72(sp)
9d009fc0:	8fa50044 	lw	a1,68(sp)
9d009fc4:	8fab0040 	lw	t3,64(sp)
9d009fc8:	8fa3003c 	lw	v1,60(sp)
9d009fcc:	1000ffa8 	b	9d009e70 <__floatscan+0x610>
9d009fd0:	8fad0038 	lw	t5,56(sp)
9d009fd4:	2442ffff 	addiu	v0,v0,-1
9d009fd8:	ae82003c 	sw	v0,60(s4)
9d009fdc:	00002825 	move	a1,zero
9d009fe0:	0f404e1c 	jal	9d013870 <__shlim>
9d009fe4:	02802025 	move	a0,s4
9d009fe8:	1000fee8 	b	9d009b8c <__floatscan+0x32c>
9d009fec:	00000000 	nop
9d009ff0:	016df00a 	movz	s8,t3,t5
9d009ff4:	5d600006 	bgtzl	t3,9d00a010 <__floatscan+0x7b0>
9d009ff8:	34420020 	ori	v0,v0,0x20
9d009ffc:	15600014 	bnez	t3,9d00a050 <__floatscan+0x7f0>
9d00a000:	2ea30008 	sltiu	v1,s5,8
9d00a004:	14600013 	bnez	v1,9d00a054 <__floatscan+0x7f4>
9d00a008:	26a30001 	addiu	v1,s5,1
9d00a00c:	34420020 	ori	v0,v0,0x20
9d00a010:	24030070 	li	v1,112
9d00a014:	1443003d 	bne	v0,v1,9d00a10c <__floatscan+0x8ac>
9d00a018:	02c02825 	move	a1,s6
9d00a01c:	0f403d43 	jal	9d00f50c <scanexp>
9d00a020:	02802025 	move	a0,s4
9d00a024:	14400013 	bnez	v0,9d00a074 <__floatscan+0x814>
9d00a028:	3c048000 	lui	a0,0x8000
9d00a02c:	14640011 	bne	v1,a0,9d00a074 <__floatscan+0x814>
9d00a030:	00000000 	nop
9d00a034:	12c0ff2f 	beqz	s6,9d009cf4 <__floatscan+0x494>
9d00a038:	00002825 	move	a1,zero
9d00a03c:	8e83004c 	lw	v1,76(s4)
9d00a040:	54600009 	bnezl	v1,9d00a068 <__floatscan+0x808>
9d00a044:	8e83003c 	lw	v1,60(s4)
9d00a048:	10000009 	b	9d00a070 <__floatscan+0x810>
9d00a04c:	00001025 	move	v0,zero
9d00a050:	26a30001 	addiu	v1,s5,1
9d00a054:	0075202b 	sltu	a0,v1,s5
9d00a058:	00108100 	sll	s0,s0,0x4
9d00a05c:	0060a825 	move	s5,v1
9d00a060:	1000ffe4 	b	9d009ff4 <__floatscan+0x794>
9d00a064:	008b5821 	addu	t3,a0,t3
9d00a068:	2463ffff 	addiu	v1,v1,-1
9d00a06c:	ae83003c 	sw	v1,60(s4)
9d00a070:	00001825 	move	v1,zero
9d00a074:	1200fec5 	beqz	s0,9d009b8c <__floatscan+0x32c>
9d00a078:	26e4fff8 	addiu	a0,s7,-8
9d00a07c:	0097482b 	sltu	t1,a0,s7
9d00a080:	27ccffff 	addiu	t4,s8,-1
9d00a084:	012c4821 	addu	t1,t1,t4
9d00a088:	00042f82 	srl	a1,a0,0x1e
9d00a08c:	00094880 	sll	t1,t1,0x2
9d00a090:	00042080 	sll	a0,a0,0x2
9d00a094:	00a94825 	or	t1,a1,t1
9d00a098:	00821021 	addu	v0,a0,v0
9d00a09c:	0044202b 	sltu	a0,v0,a0
9d00a0a0:	01231821 	addu	v1,t1,v1
9d00a0a4:	00831821 	addu	v1,a0,v1
9d00a0a8:	8fa40018 	lw	a0,24(sp)
9d00a0ac:	0040a025 	move	s4,v0
9d00a0b0:	00042023 	negu	a0,a0
9d00a0b4:	00042fc3 	sra	a1,a0,0x1f
9d00a0b8:	00a3302a 	slt	a2,a1,v1
9d00a0bc:	14c00005 	bnez	a2,9d00a0d4 <__floatscan+0x874>
9d00a0c0:	0060a825 	move	s5,v1
9d00a0c4:	14650018 	bne	v1,a1,9d00a128 <__floatscan+0x8c8>
9d00a0c8:	0082202b 	sltu	a0,a0,v0
9d00a0cc:	10800017 	beqz	a0,9d00a12c <__floatscan+0x8cc>
9d00a0d0:	8fa40018 	lw	a0,24(sp)
9d00a0d4:	3c02a000 	lui	v0,0xa000
9d00a0d8:	24030022 	li	v1,34
9d00a0dc:	3c109d00 	lui	s0,0x9d00
9d00a0e0:	02202025 	move	a0,s1
9d00a0e4:	0f404acb 	jal	9d012b2c <__floatsidf>
9d00a0e8:	ac433080 	sw	v1,12416(v0)
9d00a0ec:	8e0675d8 	lw	a2,30168(s0)
9d00a0f0:	8e0775dc 	lw	a3,30172(s0)
9d00a0f4:	00402025 	move	a0,v0
9d00a0f8:	0f403a65 	jal	9d00e994 <__muldf3>
9d00a0fc:	00602825 	move	a1,v1
9d00a100:	8e0675d8 	lw	a2,30168(s0)
9d00a104:	1000fea5 	b	9d009b9c <__floatscan+0x33c>
9d00a108:	8e0775dc 	lw	a3,30172(s0)
9d00a10c:	8e82004c 	lw	v0,76(s4)
9d00a110:	5040ffd7 	beqzl	v0,9d00a070 <__floatscan+0x810>
9d00a114:	00001025 	move	v0,zero
9d00a118:	8e82003c 	lw	v0,60(s4)
9d00a11c:	2442ffff 	addiu	v0,v0,-1
9d00a120:	1000ffc9 	b	9d00a048 <__floatscan+0x7e8>
9d00a124:	ae82003c 	sw	v0,60(s4)
9d00a128:	8fa40018 	lw	a0,24(sp)
9d00a12c:	2484ff96 	addiu	a0,a0,-106
9d00a130:	00042fc3 	sra	a1,a0,0x1f
9d00a134:	0065302a 	slt	a2,v1,a1
9d00a138:	54c00005 	bnezl	a2,9d00a150 <__floatscan+0x8f0>
9d00a13c:	3c02a000 	lui	v0,0xa000
9d00a140:	14a3009e 	bne	a1,v1,9d00a3bc <__floatscan+0xb5c>
9d00a144:	0044102b 	sltu	v0,v0,a0
9d00a148:	1040009c 	beqz	v0,9d00a3bc <__floatscan+0xb5c>
9d00a14c:	3c02a000 	lui	v0,0xa000
9d00a150:	24030022 	li	v1,34
9d00a154:	3c109d00 	lui	s0,0x9d00
9d00a158:	02202025 	move	a0,s1
9d00a15c:	0f404acb 	jal	9d012b2c <__floatsidf>
9d00a160:	ac433080 	sw	v1,12416(v0)
9d00a164:	8e0675e0 	lw	a2,30176(s0)
9d00a168:	8e0775e4 	lw	a3,30180(s0)
9d00a16c:	00402025 	move	a0,v0
9d00a170:	0f403a65 	jal	9d00e994 <__muldf3>
9d00a174:	00602825 	move	a1,v1
9d00a178:	8e0675e0 	lw	a2,30176(s0)
9d00a17c:	1000fe87 	b	9d009b9c <__floatscan+0x33c>
9d00a180:	8e0775e4 	lw	a3,30180(s0)
9d00a184:	02c03025 	move	a2,s6
9d00a188:	02e03825 	move	a3,s7
9d00a18c:	02402025 	move	a0,s2
9d00a190:	02602825 	move	a1,s3
9d00a194:	0f404331 	jal	9d010cc4 <__eqdf2>
9d00a198:	00108040 	sll	s0,s0,0x1
9d00a19c:	04400084 	bltz	v0,9d00a3b0 <__floatscan+0xb50>
9d00a1a0:	02402025 	move	a0,s2
9d00a1a4:	8fa60028 	lw	a2,40(sp)
9d00a1a8:	8fa7002c 	lw	a3,44(sp)
9d00a1ac:	0f40367c 	jal	9d00d9f0 <__subdf3>
9d00a1b0:	02602825 	move	a1,s3
9d00a1b4:	26100001 	addiu	s0,s0,1
9d00a1b8:	00403025 	move	a2,v0
9d00a1bc:	00603825 	move	a3,v1
9d00a1c0:	02402025 	move	a0,s2
9d00a1c4:	0f40367e 	jal	9d00d9f8 <__adddf3>
9d00a1c8:	02602825 	move	a1,s3
9d00a1cc:	00409025 	move	s2,v0
9d00a1d0:	2682ffff 	addiu	v0,s4,-1
9d00a1d4:	00609825 	move	s3,v1
9d00a1d8:	26b5ffff 	addiu	s5,s5,-1
9d00a1dc:	0054182b 	sltu	v1,v0,s4
9d00a1e0:	0075a821 	addu	s5,v1,s5
9d00a1e4:	0040a025 	move	s4,v0
9d00a1e8:	0601ffe6 	bgez	s0,9d00a184 <__floatscan+0x924>
9d00a1ec:	8fa20024 	lw	v0,36(sp)
9d00a1f0:	8fa40018 	lw	a0,24(sp)
9d00a1f4:	26830020 	addiu	v1,s4,32
9d00a1f8:	00022fc3 	sra	a1,v0,0x1f
9d00a1fc:	0074102b 	sltu	v0,v1,s4
9d00a200:	00551021 	addu	v0,v0,s5
9d00a204:	0004afc3 	sra	s5,a0,0x1f
9d00a208:	00642023 	subu	a0,v1,a0
9d00a20c:	0055a823 	subu	s5,v0,s5
9d00a210:	0064182b 	sltu	v1,v1,a0
9d00a214:	02a3a823 	subu	s5,s5,v1
9d00a218:	02a5102a 	slt	v0,s5,a1
9d00a21c:	14400006 	bnez	v0,9d00a238 <__floatscan+0x9d8>
9d00a220:	8fa20018 	lw	v0,24(sp)
9d00a224:	14b50008 	bne	a1,s5,9d00a248 <__floatscan+0x9e8>
9d00a228:	8fa20024 	lw	v0,36(sp)
9d00a22c:	0082202b 	sltu	a0,a0,v0
9d00a230:	10800005 	beqz	a0,9d00a248 <__floatscan+0x9e8>
9d00a234:	8fa20018 	lw	v0,24(sp)
9d00a238:	0282b823 	subu	s7,s4,v0
9d00a23c:	26e20020 	addiu	v0,s7,32
9d00a240:	04400067 	bltz	v0,9d00a3e0 <__floatscan+0xb80>
9d00a244:	afa20020 	sw	v0,32(sp)
9d00a248:	8fa20020 	lw	v0,32(sp)
9d00a24c:	0000b025 	move	s6,zero
9d00a250:	28420035 	slti	v0,v0,53
9d00a254:	10400022 	beqz	v0,9d00a2e0 <__floatscan+0xa80>
9d00a258:	0000b825 	move	s7,zero
9d00a25c:	8fa20020 	lw	v0,32(sp)
9d00a260:	24060054 	li	a2,84
9d00a264:	00c23023 	subu	a2,a2,v0
9d00a268:	8fa20034 	lw	v0,52(sp)
9d00a26c:	8c4575f4 	lw	a1,30196(v0)
9d00a270:	0f40455f 	jal	9d01157c <scalbn>
9d00a274:	8c4475f0 	lw	a0,30192(v0)
9d00a278:	02202025 	move	a0,s1
9d00a27c:	0040b025 	move	s6,v0
9d00a280:	0f404acb 	jal	9d012b2c <__floatsidf>
9d00a284:	0060b825 	move	s7,v1
9d00a288:	00403025 	move	a2,v0
9d00a28c:	02c02025 	move	a0,s6
9d00a290:	02e02825 	move	a1,s7
9d00a294:	0f404e3d 	jal	9d0138f4 <copysignl>
9d00a298:	00603825 	move	a3,v1
9d00a29c:	0040b025 	move	s6,v0
9d00a2a0:	8fa20020 	lw	v0,32(sp)
9d00a2a4:	285e0020 	slti	s8,v0,32
9d00a2a8:	13c0000d 	beqz	s8,9d00a2e0 <__floatscan+0xa80>
9d00a2ac:	0060b825 	move	s7,v1
9d00a2b0:	00003025 	move	a2,zero
9d00a2b4:	00003825 	move	a3,zero
9d00a2b8:	02402025 	move	a0,s2
9d00a2bc:	0f404331 	jal	9d010cc4 <__eqdf2>
9d00a2c0:	02602825 	move	a1,s3
9d00a2c4:	10400006 	beqz	v0,9d00a2e0 <__floatscan+0xa80>
9d00a2c8:	32020001 	andi	v0,s0,0x1
9d00a2cc:	14400004 	bnez	v0,9d00a2e0 <__floatscan+0xa80>
9d00a2d0:	00000000 	nop
9d00a2d4:	26100001 	addiu	s0,s0,1
9d00a2d8:	00009025 	move	s2,zero
9d00a2dc:	00009825 	move	s3,zero
9d00a2e0:	0f404acb 	jal	9d012b2c <__floatsidf>
9d00a2e4:	02202025 	move	a0,s1
9d00a2e8:	00602825 	move	a1,v1
9d00a2ec:	02403025 	move	a2,s2
9d00a2f0:	02603825 	move	a3,s3
9d00a2f4:	00402025 	move	a0,v0
9d00a2f8:	afa20018 	sw	v0,24(sp)
9d00a2fc:	0f403a65 	jal	9d00e994 <__muldf3>
9d00a300:	afa3001c 	sw	v1,28(sp)
9d00a304:	02002025 	move	a0,s0
9d00a308:	00409025 	move	s2,v0
9d00a30c:	0f404d11 	jal	9d013444 <__floatunsidf>
9d00a310:	00609825 	move	s3,v1
9d00a314:	8fa80018 	lw	t0,24(sp)
9d00a318:	8fa9001c 	lw	t1,28(sp)
9d00a31c:	00402025 	move	a0,v0
9d00a320:	01003025 	move	a2,t0
9d00a324:	01203825 	move	a3,t1
9d00a328:	0f403a65 	jal	9d00e994 <__muldf3>
9d00a32c:	00602825 	move	a1,v1
9d00a330:	00402025 	move	a0,v0
9d00a334:	02c03025 	move	a2,s6
9d00a338:	02e03825 	move	a3,s7
9d00a33c:	0f40367e 	jal	9d00d9f8 <__adddf3>
9d00a340:	00602825 	move	a1,v1
9d00a344:	00402025 	move	a0,v0
9d00a348:	02403025 	move	a2,s2
9d00a34c:	02603825 	move	a3,s3
9d00a350:	0f40367e 	jal	9d00d9f8 <__adddf3>
9d00a354:	00602825 	move	a1,v1
9d00a358:	00402025 	move	a0,v0
9d00a35c:	02c03025 	move	a2,s6
9d00a360:	02e03825 	move	a3,s7
9d00a364:	0f40367c 	jal	9d00d9f0 <__subdf3>
9d00a368:	00602825 	move	a1,v1
9d00a36c:	00402025 	move	a0,v0
9d00a370:	00003025 	move	a2,zero
9d00a374:	00003825 	move	a3,zero
9d00a378:	00602825 	move	a1,v1
9d00a37c:	00408025 	move	s0,v0
9d00a380:	0f404331 	jal	9d010cc4 <__eqdf2>
9d00a384:	00608825 	move	s1,v1
9d00a388:	14400004 	bnez	v0,9d00a39c <__floatscan+0xb3c>
9d00a38c:	02803025 	move	a2,s4
9d00a390:	3c02a000 	lui	v0,0xa000
9d00a394:	24030022 	li	v1,34
9d00a398:	ac433080 	sw	v1,12416(v0)
9d00a39c:	02002025 	move	a0,s0
9d00a3a0:	0f404f38 	jal	9d013ce0 <scalbnl>
9d00a3a4:	02202825 	move	a1,s1
9d00a3a8:	1000fda0 	b	9d009a2c <__floatscan+0x1cc>
9d00a3ac:	8fbf0074 	lw	ra,116(sp)
9d00a3b0:	02403025 	move	a2,s2
9d00a3b4:	1000ff82 	b	9d00a1c0 <__floatscan+0x960>
9d00a3b8:	02603825 	move	a3,s3
9d00a3bc:	3c029d00 	lui	v0,0x9d00
9d00a3c0:	8c567608 	lw	s6,30216(v0)
9d00a3c4:	8c57760c 	lw	s7,30220(v0)
9d00a3c8:	8fa20034 	lw	v0,52(sp)
9d00a3cc:	8c4375f4 	lw	v1,30196(v0)
9d00a3d0:	8c4275f0 	lw	v0,30192(v0)
9d00a3d4:	afa3002c 	sw	v1,44(sp)
9d00a3d8:	1000ff83 	b	9d00a1e8 <__floatscan+0x988>
9d00a3dc:	afa20028 	sw	v0,40(sp)
9d00a3e0:	1000ff9e 	b	9d00a25c <__floatscan+0x9fc>
9d00a3e4:	afa00020 	sw	zero,32(sp)
9d00a3e8:	10600005 	beqz	v1,9d00a400 <__floatscan+0xba0>
9d00a3ec:	8fa70018 	lw	a3,24(sp)
9d00a3f0:	8e82003c 	lw	v0,60(s4)
9d00a3f4:	2442ffff 	addiu	v0,v0,-1
9d00a3f8:	ae82003c 	sw	v0,60(s4)
9d00a3fc:	8fa70018 	lw	a3,24(sp)
9d00a400:	8fa60024 	lw	a2,36(sp)
9d00a404:	afb60014 	sw	s6,20(sp)
9d00a408:	afb10010 	sw	s1,16(sp)
9d00a40c:	02402825 	move	a1,s2
9d00a410:	0f4022bb 	jal	9d008aec <decfloat>
9d00a414:	02802025 	move	a0,s4
9d00a418:	1000fd84 	b	9d009a2c <__floatscan+0x1cc>
9d00a41c:	8fbf0074 	lw	ra,116(sp)
9d00a420:	8c43761c 	lw	v1,30236(v0)
9d00a424:	1000fd80 	b	9d009a28 <__floatscan+0x1c8>
9d00a428:	8c427618 	lw	v0,30232(v0)
9d00a42c:	16c0fdd7 	bnez	s6,9d009b8c <__floatscan+0x32c>
9d00a430:	00000000 	nop
9d00a434:	1000feea 	b	9d009fe0 <__floatscan+0x780>
9d00a438:	00002825 	move	a1,zero
9d00a43c:	1460feed 	bnez	v1,9d009ff4 <__floatscan+0x794>
9d00a440:	2402002e 	li	v0,46
9d00a444:	1000fdc9 	b	9d009b6c <__floatscan+0x30c>
9d00a448:	8e82004c 	lw	v0,76(s4)
9d00a44c:	03e00008 	jr	ra
9d00a450:	00000000 	nop

Disassembly of section .text.__fmt_fp:

9d00a454 <__fmt_fp>:
9d00a454:	27bdff78 	addiu	sp,sp,-136
9d00a458:	afa70094 	sw	a3,148(sp)
9d00a45c:	8ca20000 	lw	v0,0(a1)
9d00a460:	afb3006c 	sw	s3,108(sp)
9d00a464:	8cd30004 	lw	s3,4(a2)
9d00a468:	afa2001c 	sw	v0,28(sp)
9d00a46c:	8ca20008 	lw	v0,8(a1)
9d00a470:	afb10064 	sw	s1,100(sp)
9d00a474:	afb00060 	sw	s0,96(sp)
9d00a478:	afa20020 	sw	v0,32(sp)
9d00a47c:	8ca20010 	lw	v0,16(a1)
9d00a480:	afa40088 	sw	a0,136(sp)
9d00a484:	afa5008c 	sw	a1,140(sp)
9d00a488:	afa20034 	sw	v0,52(sp)
9d00a48c:	8cc20000 	lw	v0,0(a2)
9d00a490:	8cb10004 	lw	s1,4(a1)
9d00a494:	8cb0000c 	lw	s0,12(a1)
9d00a498:	afa20018 	sw	v0,24(sp)
9d00a49c:	8fa30018 	lw	v1,24(sp)
9d00a4a0:	00003025 	move	a2,zero
9d00a4a4:	00003825 	move	a3,zero
9d00a4a8:	00602025 	move	a0,v1
9d00a4ac:	02602825 	move	a1,s3
9d00a4b0:	afbf0084 	sw	ra,132(sp)
9d00a4b4:	afbe0080 	sw	s8,128(sp)
9d00a4b8:	afb7007c 	sw	s7,124(sp)
9d00a4bc:	afb60078 	sw	s6,120(sp)
9d00a4c0:	afb50074 	sw	s5,116(sp)
9d00a4c4:	afb40070 	sw	s4,112(sp)
9d00a4c8:	0f40437c 	jal	9d010df0 <dpcmplt>
9d00a4cc:	afb20068 	sw	s2,104(sp)
9d00a4d0:	0440000d 	bltz	v0,9d00a508 <__fmt_fp+0xb4>
9d00a4d4:	3c028000 	lui	v0,0x8000
9d00a4d8:	8fa2001c 	lw	v0,28(sp)
9d00a4dc:	30420004 	andi	v0,v0,0x4
9d00a4e0:	14400037 	bnez	v0,9d00a5c0 <__fmt_fp+0x16c>
9d00a4e4:	8fb20020 	lw	s2,32(sp)
9d00a4e8:	8fa2001c 	lw	v0,28(sp)
9d00a4ec:	30420008 	andi	v0,v0,0x8
9d00a4f0:	1040000c 	beqz	v0,9d00a524 <__fmt_fp+0xd0>
9d00a4f4:	afa20024 	sw	v0,36(sp)
9d00a4f8:	24020020 	li	v0,32
9d00a4fc:	a2020000 	sb	v0,0(s0)
9d00a500:	10000006 	b	9d00a51c <__fmt_fp+0xc8>
9d00a504:	2652ffff 	addiu	s2,s2,-1
9d00a508:	00539826 	xor	s3,v0,s3
9d00a50c:	2402002d 	li	v0,45
9d00a510:	a2020000 	sb	v0,0(s0)
9d00a514:	8fa20020 	lw	v0,32(sp)
9d00a518:	2452ffff 	addiu	s2,v0,-1
9d00a51c:	24020001 	li	v0,1
9d00a520:	afa20024 	sw	v0,36(sp)
9d00a524:	8fa30024 	lw	v1,36(sp)
9d00a528:	02031821 	addu	v1,s0,v1
9d00a52c:	afa3002c 	sw	v1,44(sp)
9d00a530:	8fa30018 	lw	v1,24(sp)
9d00a534:	14600026 	bnez	v1,9d00a5d0 <__fmt_fp+0x17c>
9d00a538:	7e62f000 	ext	v0,s3,0x0,0x1f
9d00a53c:	3c037ff0 	lui	v1,0x7ff0
9d00a540:	14430024 	bne	v0,v1,9d00a5d4 <__fmt_fp+0x180>
9d00a544:	3c047ff0 	lui	a0,0x7ff0
9d00a548:	8fa20094 	lw	v0,148(sp)
9d00a54c:	2442ffbf 	addiu	v0,v0,-65
9d00a550:	2c42001a 	sltiu	v0,v0,26
9d00a554:	1040001c 	beqz	v0,9d00a5c8 <__fmt_fp+0x174>
9d00a558:	3c059d00 	lui	a1,0x9d00
9d00a55c:	3c059d00 	lui	a1,0x9d00
9d00a560:	24a57580 	addiu	a1,a1,30080
9d00a564:	0f404e90 	jal	9d013a40 <strcpy>
9d00a568:	8fa4002c 	lw	a0,44(sp)
9d00a56c:	0f404dce 	jal	9d013738 <strlen>
9d00a570:	02002025 	move	a0,s0
9d00a574:	8fa3001c 	lw	v1,28(sp)
9d00a578:	8fa70020 	lw	a3,32(sp)
9d00a57c:	8fa40088 	lw	a0,136(sp)
9d00a580:	afa30010 	sw	v1,16(sp)
9d00a584:	02002825 	move	a1,s0
9d00a588:	0f4044df 	jal	9d01137c <__pad>
9d00a58c:	00403025 	move	a2,v0
9d00a590:	8fbf0084 	lw	ra,132(sp)
9d00a594:	8fbe0080 	lw	s8,128(sp)
9d00a598:	8fb7007c 	lw	s7,124(sp)
9d00a59c:	8fb60078 	lw	s6,120(sp)
9d00a5a0:	8fb50074 	lw	s5,116(sp)
9d00a5a4:	8fb40070 	lw	s4,112(sp)
9d00a5a8:	8fb3006c 	lw	s3,108(sp)
9d00a5ac:	8fb20068 	lw	s2,104(sp)
9d00a5b0:	8fb10064 	lw	s1,100(sp)
9d00a5b4:	8fb00060 	lw	s0,96(sp)
9d00a5b8:	03e00008 	jr	ra
9d00a5bc:	27bd0088 	addiu	sp,sp,136
9d00a5c0:	1000ffd3 	b	9d00a510 <__fmt_fp+0xbc>
9d00a5c4:	2402002b 	li	v0,43
9d00a5c8:	1000ffe6 	b	9d00a564 <__fmt_fp+0x110>
9d00a5cc:	24a57584 	addiu	a1,a1,30084
9d00a5d0:	3c047ff0 	lui	a0,0x7ff0
9d00a5d4:	24830001 	addiu	v1,a0,1
9d00a5d8:	0043182b 	sltu	v1,v0,v1
9d00a5dc:	50600005 	beqzl	v1,9d00a5f4 <__fmt_fp+0x1a0>
9d00a5e0:	8fa20094 	lw	v0,148(sp)
9d00a5e4:	1444000c 	bne	v0,a0,9d00a618 <__fmt_fp+0x1c4>
9d00a5e8:	8fa20018 	lw	v0,24(sp)
9d00a5ec:	1040000a 	beqz	v0,9d00a618 <__fmt_fp+0x1c4>
9d00a5f0:	8fa20094 	lw	v0,148(sp)
9d00a5f4:	2442ffbf 	addiu	v0,v0,-65
9d00a5f8:	2c42001a 	sltiu	v0,v0,26
9d00a5fc:	50400004 	beqzl	v0,9d00a610 <__fmt_fp+0x1bc>
9d00a600:	3c059d00 	lui	a1,0x9d00
9d00a604:	3c059d00 	lui	a1,0x9d00
9d00a608:	1000ffd6 	b	9d00a564 <__fmt_fp+0x110>
9d00a60c:	24a57588 	addiu	a1,a1,30088
9d00a610:	1000ffd4 	b	9d00a564 <__fmt_fp+0x110>
9d00a614:	24a5758c 	addiu	a1,a1,30092
9d00a618:	8fa30018 	lw	v1,24(sp)
9d00a61c:	00003025 	move	a2,zero
9d00a620:	00003825 	move	a3,zero
9d00a624:	00602025 	move	a0,v1
9d00a628:	0f404331 	jal	9d010cc4 <__eqdf2>
9d00a62c:	02602825 	move	a1,s3
9d00a630:	3c179d00 	lui	s7,0x9d00
9d00a634:	3c039d00 	lui	v1,0x9d00
9d00a638:	afa30030 	sw	v1,48(sp)
9d00a63c:	8ef57590 	lw	s5,30096(s7)
9d00a640:	8ef67594 	lw	s6,30100(s7)
9d00a644:	14400013 	bnez	v0,9d00a694 <__fmt_fp+0x240>
9d00a648:	0000a025 	move	s4,zero
9d00a64c:	0f404ef2 	jal	9d013bc8 <tolower>
9d00a650:	8fa40094 	lw	a0,148(sp)
9d00a654:	7c021420 	seb	v0,v0
9d00a658:	afa20028 	sw	v0,40(sp)
9d00a65c:	8fa30028 	lw	v1,40(sp)
9d00a660:	062001a5 	bltz	s1,9d00acf8 <__fmt_fp+0x8a4>
9d00a664:	24020067 	li	v0,103
9d00a668:	14620057 	bne	v1,v0,9d00a7c8 <__fmt_fp+0x374>
9d00a66c:	8fa90028 	lw	t1,40(sp)
9d00a670:	52200001 	beqzl	s1,9d00a678 <__fmt_fp+0x224>
9d00a674:	24110001 	li	s1,1
9d00a678:	2a82fffc 	slti	v0,s4,-4
9d00a67c:	14400003 	bnez	v0,9d00a68c <__fmt_fp+0x238>
9d00a680:	0291102a 	slt	v0,s4,s1
9d00a684:	14400196 	bnez	v0,9d00ace0 <__fmt_fp+0x88c>
9d00a688:	00000000 	nop
9d00a68c:	1000005a 	b	9d00a7f8 <__fmt_fp+0x3a4>
9d00a690:	24090065 	li	t1,101
9d00a694:	3c029d00 	lui	v0,0x9d00
9d00a698:	8c4a7598 	lw	t2,30104(v0)
9d00a69c:	8c4b759c 	lw	t3,30108(v0)
9d00a6a0:	01403025 	move	a2,t2
9d00a6a4:	01603825 	move	a3,t3
9d00a6a8:	02a02025 	move	a0,s5
9d00a6ac:	02c02825 	move	a1,s6
9d00a6b0:	afaa0038 	sw	t2,56(sp)
9d00a6b4:	0f403a65 	jal	9d00e994 <__muldf3>
9d00a6b8:	afab003c 	sw	t3,60(sp)
9d00a6bc:	8fa40018 	lw	a0,24(sp)
9d00a6c0:	02603825 	move	a3,s3
9d00a6c4:	00602825 	move	a1,v1
9d00a6c8:	00803025 	move	a2,a0
9d00a6cc:	00402025 	move	a0,v0
9d00a6d0:	0040f025 	move	s8,v0
9d00a6d4:	0f404331 	jal	9d010cc4 <__eqdf2>
9d00a6d8:	afa30028 	sw	v1,40(sp)
9d00a6dc:	1c40002d 	bgtz	v0,9d00a794 <__fmt_fp+0x340>
9d00a6e0:	8fa30028 	lw	v1,40(sp)
9d00a6e4:	8faa0038 	lw	t2,56(sp)
9d00a6e8:	8fab003c 	lw	t3,60(sp)
9d00a6ec:	26940001 	addiu	s4,s4,1
9d00a6f0:	03c0a825 	move	s5,s8
9d00a6f4:	1000ffea 	b	9d00a6a0 <__fmt_fp+0x24c>
9d00a6f8:	0060b025 	move	s6,v1
9d00a6fc:	10400013 	beqz	v0,9d00a74c <__fmt_fp+0x2f8>
9d00a700:	8fa20028 	lw	v0,40(sp)
9d00a704:	14400011 	bnez	v0,9d00a74c <__fmt_fp+0x2f8>
9d00a708:	8fa30018 	lw	v1,24(sp)
9d00a70c:	8fa60038 	lw	a2,56(sp)
9d00a710:	02602825 	move	a1,s3
9d00a714:	03c03825 	move	a3,s8
9d00a718:	0f403a65 	jal	9d00e994 <__muldf3>
9d00a71c:	00602025 	move	a0,v1
9d00a720:	8fa60048 	lw	a2,72(sp)
9d00a724:	8fa70050 	lw	a3,80(sp)
9d00a728:	02a02025 	move	a0,s5
9d00a72c:	02c02825 	move	a1,s6
9d00a730:	afa20018 	sw	v0,24(sp)
9d00a734:	0f403a65 	jal	9d00e994 <__muldf3>
9d00a738:	00609825 	move	s3,v1
9d00a73c:	0040a825 	move	s5,v0
9d00a740:	24020001 	li	v0,1
9d00a744:	0060b025 	move	s6,v1
9d00a748:	afa20028 	sw	v0,40(sp)
9d00a74c:	8fa60040 	lw	a2,64(sp)
9d00a750:	8fa70044 	lw	a3,68(sp)
9d00a754:	02a02025 	move	a0,s5
9d00a758:	0f40321b 	jal	9d00c86c <__divdf3>
9d00a75c:	02c02825 	move	a1,s6
9d00a760:	0040a825 	move	s5,v0
9d00a764:	0060b025 	move	s6,v1
9d00a768:	2694ffff 	addiu	s4,s4,-1
9d00a76c:	8fa30018 	lw	v1,24(sp)
9d00a770:	02a03025 	move	a2,s5
9d00a774:	02c03825 	move	a3,s6
9d00a778:	00602025 	move	a0,v1
9d00a77c:	0f40437c 	jal	9d010df0 <dpcmplt>
9d00a780:	02602825 	move	a1,s3
9d00a784:	0442ffdd 	bltzl	v0,9d00a6fc <__fmt_fp+0x2a8>
9d00a788:	2a82fed4 	slti	v0,s4,-300
9d00a78c:	1000ffaf 	b	9d00a64c <__fmt_fp+0x1f8>
9d00a790:	00000000 	nop
9d00a794:	3c029d00 	lui	v0,0x9d00
9d00a798:	8c4375a0 	lw	v1,30112(v0)
9d00a79c:	8c5e75a4 	lw	s8,30116(v0)
9d00a7a0:	8fa20030 	lw	v0,48(sp)
9d00a7a4:	afa30038 	sw	v1,56(sp)
9d00a7a8:	afa30048 	sw	v1,72(sp)
9d00a7ac:	8c43759c 	lw	v1,30108(v0)
9d00a7b0:	8c427598 	lw	v0,30104(v0)
9d00a7b4:	afa00028 	sw	zero,40(sp)
9d00a7b8:	afbe0050 	sw	s8,80(sp)
9d00a7bc:	afa20040 	sw	v0,64(sp)
9d00a7c0:	1000ffea 	b	9d00a76c <__fmt_fp+0x318>
9d00a7c4:	afa30044 	sw	v1,68(sp)
9d00a7c8:	24020066 	li	v0,102
9d00a7cc:	1522000a 	bne	t1,v0,9d00a7f8 <__fmt_fp+0x3a4>
9d00a7d0:	26310001 	addiu	s1,s1,1
9d00a7d4:	06810004 	bgez	s4,9d00a7e8 <__fmt_fp+0x394>
9d00a7d8:	8fa30028 	lw	v1,40(sp)
9d00a7dc:	8ef57590 	lw	s5,30096(s7)
9d00a7e0:	8ef67594 	lw	s6,30100(s7)
9d00a7e4:	0000a025 	move	s4,zero
9d00a7e8:	24020067 	li	v0,103
9d00a7ec:	10620002 	beq	v1,v0,9d00a7f8 <__fmt_fp+0x3a4>
9d00a7f0:	24090066 	li	t1,102
9d00a7f4:	02348821 	addu	s1,s1,s4
9d00a7f8:	8fac0018 	lw	t4,24(sp)
9d00a7fc:	02a05825 	move	t3,s5
9d00a800:	02c05025 	move	t2,s6
9d00a804:	0260b825 	move	s7,s3
9d00a808:	00007025 	move	t6,zero
9d00a80c:	01603025 	move	a2,t3
9d00a810:	01403825 	move	a3,t2
9d00a814:	01802025 	move	a0,t4
9d00a818:	02e02825 	move	a1,s7
9d00a81c:	afa9005c 	sw	t1,92(sp)
9d00a820:	afae0058 	sw	t6,88(sp)
9d00a824:	afab0050 	sw	t3,80(sp)
9d00a828:	afaa0054 	sw	t2,84(sp)
9d00a82c:	0f40321b 	jal	9d00c86c <__divdf3>
9d00a830:	afac0048 	sw	t4,72(sp)
9d00a834:	00402025 	move	a0,v0
9d00a838:	0f40449d 	jal	9d011274 <dpfloor>
9d00a83c:	00602825 	move	a1,v1
9d00a840:	00602825 	move	a1,v1
9d00a844:	00402025 	move	a0,v0
9d00a848:	afa30044 	sw	v1,68(sp)
9d00a84c:	0f404960 	jal	9d012580 <__fixdfsi>
9d00a850:	afa20040 	sw	v0,64(sp)
9d00a854:	8fac0040 	lw	t4,64(sp)
9d00a858:	8faf0048 	lw	t7,72(sp)
9d00a85c:	8faa0054 	lw	t2,84(sp)
9d00a860:	8fab0050 	lw	t3,80(sp)
9d00a864:	8fad0044 	lw	t5,68(sp)
9d00a868:	02e0f025 	move	s8,s7
9d00a86c:	3c178000 	lui	s7,0x8000
9d00a870:	02fe2026 	xor	a0,s7,s8
9d00a874:	01603025 	move	a2,t3
9d00a878:	01403825 	move	a3,t2
9d00a87c:	01a02825 	move	a1,t5
9d00a880:	afaf0010 	sw	t7,16(sp)
9d00a884:	afa40014 	sw	a0,20(sp)
9d00a888:	01802025 	move	a0,t4
9d00a88c:	afaa0048 	sw	t2,72(sp)
9d00a890:	0f402b42 	jal	9d00ad08 <fma>
9d00a894:	afa20038 	sw	v0,56(sp)
9d00a898:	afa20040 	sw	v0,64(sp)
9d00a89c:	0040f025 	move	s8,v0
9d00a8a0:	8fa20030 	lw	v0,48(sp)
9d00a8a4:	8fab0050 	lw	t3,80(sp)
9d00a8a8:	8faa0048 	lw	t2,72(sp)
9d00a8ac:	8c467598 	lw	a2,30104(v0)
9d00a8b0:	8c47759c 	lw	a3,30108(v0)
9d00a8b4:	01602025 	move	a0,t3
9d00a8b8:	01402825 	move	a1,t2
9d00a8bc:	0f40321b 	jal	9d00c86c <__divdf3>
9d00a8c0:	02e3b826 	xor	s7,s7,v1
9d00a8c4:	8fae0058 	lw	t6,88(sp)
9d00a8c8:	00405825 	move	t3,v0
9d00a8cc:	00605025 	move	t2,v1
9d00a8d0:	25ce0001 	addiu	t6,t6,1
9d00a8d4:	8fac0040 	lw	t4,64(sp)
9d00a8d8:	162effcc 	bne	s1,t6,9d00a80c <__fmt_fp+0x3b8>
9d00a8dc:	8fa9005c 	lw	t1,92(sp)
9d00a8e0:	3c029d00 	lui	v0,0x9d00
9d00a8e4:	8c4675a8 	lw	a2,30120(v0)
9d00a8e8:	8c4775ac 	lw	a3,30124(v0)
9d00a8ec:	01602025 	move	a0,t3
9d00a8f0:	00602825 	move	a1,v1
9d00a8f4:	0f403a65 	jal	9d00e994 <__muldf3>
9d00a8f8:	afa90048 	sw	t1,72(sp)
9d00a8fc:	00403025 	move	a2,v0
9d00a900:	00603825 	move	a3,v1
9d00a904:	03c02025 	move	a0,s8
9d00a908:	02e02825 	move	a1,s7
9d00a90c:	afa20040 	sw	v0,64(sp)
9d00a910:	0f40437c 	jal	9d010df0 <dpcmplt>
9d00a914:	afa30044 	sw	v1,68(sp)
9d00a918:	04400010 	bltz	v0,9d00a95c <__fmt_fp+0x508>
9d00a91c:	8fa90048 	lw	t1,72(sp)
9d00a920:	8faa0040 	lw	t2,64(sp)
9d00a924:	8fab0044 	lw	t3,68(sp)
9d00a928:	03c02025 	move	a0,s8
9d00a92c:	01403025 	move	a2,t2
9d00a930:	01603825 	move	a3,t3
9d00a934:	0f404331 	jal	9d010cc4 <__eqdf2>
9d00a938:	02e02825 	move	a1,s7
9d00a93c:	8faa0040 	lw	t2,64(sp)
9d00a940:	8fab0044 	lw	t3,68(sp)
9d00a944:	14400007 	bnez	v0,9d00a964 <__fmt_fp+0x510>
9d00a948:	8fa90048 	lw	t1,72(sp)
9d00a94c:	8fa20038 	lw	v0,56(sp)
9d00a950:	30420001 	andi	v0,v0,0x1
9d00a954:	14400004 	bnez	v0,9d00a968 <__fmt_fp+0x514>
9d00a958:	8fa30018 	lw	v1,24(sp)
9d00a95c:	00005025 	move	t2,zero
9d00a960:	00005825 	move	t3,zero
9d00a964:	8fa30018 	lw	v1,24(sp)
9d00a968:	01403025 	move	a2,t2
9d00a96c:	01603825 	move	a3,t3
9d00a970:	02602825 	move	a1,s3
9d00a974:	00602025 	move	a0,v1
9d00a978:	0f40367e 	jal	9d00d9f8 <__adddf3>
9d00a97c:	afa90048 	sw	t1,72(sp)
9d00a980:	0040f025 	move	s8,v0
9d00a984:	afa20018 	sw	v0,24(sp)
9d00a988:	8fa20030 	lw	v0,48(sp)
9d00a98c:	02a02025 	move	a0,s5
9d00a990:	02c02825 	move	a1,s6
9d00a994:	8c467598 	lw	a2,30104(v0)
9d00a998:	8c47759c 	lw	a3,30108(v0)
9d00a99c:	0060b825 	move	s7,v1
9d00a9a0:	0f403a65 	jal	9d00e994 <__muldf3>
9d00a9a4:	afa30038 	sw	v1,56(sp)
9d00a9a8:	00402025 	move	a0,v0
9d00a9ac:	03c03025 	move	a2,s8
9d00a9b0:	02e03825 	move	a3,s7
9d00a9b4:	00602825 	move	a1,v1
9d00a9b8:	00409825 	move	s3,v0
9d00a9bc:	0f40437c 	jal	9d010df0 <dpcmplt>
9d00a9c0:	afa30040 	sw	v1,64(sp)
9d00a9c4:	1c400054 	bgtz	v0,9d00ab18 <__fmt_fp+0x6c4>
9d00a9c8:	8fa90048 	lw	t1,72(sp)
9d00a9cc:	24020066 	li	v0,102
9d00a9d0:	26940001 	addiu	s4,s4,1
9d00a9d4:	15220052 	bne	t1,v0,9d00ab20 <__fmt_fp+0x6cc>
9d00a9d8:	8fab0040 	lw	t3,64(sp)
9d00a9dc:	26310001 	addiu	s1,s1,1
9d00a9e0:	0280b025 	move	s6,s4
9d00a9e4:	8fb50024 	lw	s5,36(sp)
9d00a9e8:	02d11023 	subu	v0,s6,s1
9d00a9ec:	afa20040 	sw	v0,64(sp)
9d00a9f0:	0000f025 	move	s8,zero
9d00a9f4:	00008825 	move	s1,zero
9d00a9f8:	8fa20040 	lw	v0,64(sp)
9d00a9fc:	10560007 	beq	v0,s6,9d00aa1c <__fmt_fp+0x5c8>
9d00aa00:	02a0b825 	move	s7,s5
9d00aa04:	8fa2008c 	lw	v0,140(sp)
9d00aa08:	8c420010 	lw	v0,16(v0)
9d00aa0c:	2442fffb 	addiu	v0,v0,-5
9d00aa10:	02a2102b 	sltu	v0,s5,v0
9d00aa14:	14400047 	bnez	v0,9d00ab34 <__fmt_fp+0x6e0>
9d00aa18:	8fa30018 	lw	v1,24(sp)
9d00aa1c:	16200007 	bnez	s1,9d00aa3c <__fmt_fp+0x5e8>
9d00aa20:	8fa2001c 	lw	v0,28(sp)
9d00aa24:	30420010 	andi	v0,v0,0x10
9d00aa28:	10400004 	beqz	v0,9d00aa3c <__fmt_fp+0x5e8>
9d00aa2c:	0217b821 	addu	s7,s0,s7
9d00aa30:	2402002e 	li	v0,46
9d00aa34:	26b50001 	addiu	s5,s5,1
9d00aa38:	a2e20000 	sb	v0,0(s7)
9d00aa3c:	02152021 	addu	a0,s0,s5
9d00aa40:	24020065 	li	v0,101
9d00aa44:	15220022 	bne	t1,v0,9d00aad0 <__fmt_fp+0x67c>
9d00aa48:	a0800000 	sb	zero,0(a0)
9d00aa4c:	06810003 	bgez	s4,9d00aa5c <__fmt_fp+0x608>
9d00aa50:	00001825 	move	v1,zero
9d00aa54:	0014a023 	negu	s4,s4
9d00aa58:	24030001 	li	v1,1
9d00aa5c:	8fa20034 	lw	v0,52(sp)
9d00aa60:	264afffe 	addiu	t2,s2,-2
9d00aa64:	2407000a 	li	a3,10
9d00aa68:	2442ffff 	addiu	v0,v0,-1
9d00aa6c:	02022821 	addu	a1,s0,v0
9d00aa70:	a0a00000 	sb	zero,0(a1)
9d00aa74:	24050002 	li	a1,2
9d00aa78:	16800088 	bnez	s4,9d00ac9c <__fmt_fp+0x848>
9d00aa7c:	01459021 	addu	s2,t2,a1
9d00aa80:	1ca00086 	bgtz	a1,9d00ac9c <__fmt_fp+0x848>
9d00aa84:	2406002d 	li	a2,45
9d00aa88:	2405002b 	li	a1,43
9d00aa8c:	00c3280b 	movn	a1,a2,v1
9d00aa90:	00a01825 	move	v1,a1
9d00aa94:	02022821 	addu	a1,s0,v0
9d00aa98:	a0a3ffff 	sb	v1,-1(a1)
9d00aa9c:	8fa30094 	lw	v1,148(sp)
9d00aaa0:	24050045 	li	a1,69
9d00aaa4:	2442fffe 	addiu	v0,v0,-2
9d00aaa8:	2463ffbf 	addiu	v1,v1,-65
9d00aaac:	2c63001a 	sltiu	v1,v1,26
9d00aab0:	00a3480b 	movn	t1,a1,v1
9d00aab4:	02a2a82a 	slt	s5,s5,v0
9d00aab8:	02022821 	addu	a1,s0,v0
9d00aabc:	a0a90000 	sb	t1,0(a1)
9d00aac0:	12a00003 	beqz	s5,9d00aad0 <__fmt_fp+0x67c>
9d00aac4:	2652fffe 	addiu	s2,s2,-2
9d00aac8:	0f404e90 	jal	9d013a40 <strcpy>
9d00aacc:	00000000 	nop
9d00aad0:	8fa2001c 	lw	v0,28(sp)
9d00aad4:	24030002 	li	v1,2
9d00aad8:	30420003 	andi	v0,v0,0x3
9d00aadc:	1443fea3 	bne	v0,v1,9d00a56c <__fmt_fp+0x118>
9d00aae0:	00000000 	nop
9d00aae4:	1a40fea1 	blez	s2,9d00a56c <__fmt_fp+0x118>
9d00aae8:	00000000 	nop
9d00aaec:	0f404dce 	jal	9d013738 <strlen>
9d00aaf0:	02002025 	move	a0,s0
9d00aaf4:	8fa30024 	lw	v1,36(sp)
9d00aaf8:	0043182a 	slt	v1,v0,v1
9d00aafc:	10600071 	beqz	v1,9d00acc4 <__fmt_fp+0x870>
9d00ab00:	02403025 	move	a2,s2
9d00ab04:	8fa4002c 	lw	a0,44(sp)
9d00ab08:	0f404e86 	jal	9d013a18 <memset>
9d00ab0c:	24050030 	li	a1,48
9d00ab10:	1000fe96 	b	9d00a56c <__fmt_fp+0x118>
9d00ab14:	afa00020 	sw	zero,32(sp)
9d00ab18:	02a09825 	move	s3,s5
9d00ab1c:	02c05825 	move	t3,s6
9d00ab20:	39360065 	xori	s6,t1,0x65
9d00ab24:	02801025 	move	v0,s4
9d00ab28:	0016100a 	movz	v0,zero,s6
9d00ab2c:	1000ffad 	b	9d00a9e4 <__fmt_fp+0x590>
9d00ab30:	0040b025 	move	s6,v0
9d00ab34:	8fa20038 	lw	v0,56(sp)
9d00ab38:	01603825 	move	a3,t3
9d00ab3c:	02603025 	move	a2,s3
9d00ab40:	00602025 	move	a0,v1
9d00ab44:	00402825 	move	a1,v0
9d00ab48:	afa90054 	sw	t1,84(sp)
9d00ab4c:	0f40321b 	jal	9d00c86c <__divdf3>
9d00ab50:	afab0050 	sw	t3,80(sp)
9d00ab54:	00402025 	move	a0,v0
9d00ab58:	0f40449d 	jal	9d011274 <dpfloor>
9d00ab5c:	00602825 	move	a1,v1
9d00ab60:	00402025 	move	a0,v0
9d00ab64:	00602825 	move	a1,v1
9d00ab68:	afa3004c 	sw	v1,76(sp)
9d00ab6c:	0f404960 	jal	9d012580 <__fixdfsi>
9d00ab70:	afa20048 	sw	v0,72(sp)
9d00ab74:	2844000a 	slti	a0,v0,10
9d00ab78:	24030009 	li	v1,9
9d00ab7c:	0064100a 	movz	v0,v1,a0
9d00ab80:	8fa3001c 	lw	v1,28(sp)
9d00ab84:	8fae0048 	lw	t6,72(sp)
9d00ab88:	8faf004c 	lw	t7,76(sp)
9d00ab8c:	30630010 	andi	v1,v1,0x10
9d00ab90:	00621825 	or	v1,v1,v0
9d00ab94:	8fab0050 	lw	t3,80(sp)
9d00ab98:	1460000c 	bnez	v1,9d00abcc <__fmt_fp+0x778>
9d00ab9c:	8fa90054 	lw	t1,84(sp)
9d00aba0:	8fa40028 	lw	a0,40(sp)
9d00aba4:	24030067 	li	v1,103
9d00aba8:	14830008 	bne	a0,v1,9d00abcc <__fmt_fp+0x778>
9d00abac:	00000000 	nop
9d00abb0:	06c0001d 	bltz	s6,9d00ac28 <__fmt_fp+0x7d4>
9d00abb4:	27d70001 	addiu	s7,s8,1
9d00abb8:	02a01825 	move	v1,s5
9d00abbc:	02152021 	addu	a0,s0,s5
9d00abc0:	03c0b825 	move	s7,s8
9d00abc4:	1000000e 	b	9d00ac00 <__fmt_fp+0x7ac>
9d00abc8:	24050030 	li	a1,48
9d00abcc:	1620fffb 	bnez	s1,9d00abbc <__fmt_fp+0x768>
9d00abd0:	02a01825 	move	v1,s5
9d00abd4:	06c3fffa 	bgezl	s6,9d00abc0 <__fmt_fp+0x76c>
9d00abd8:	02152021 	addu	a0,s0,s5
9d00abdc:	0217b821 	addu	s7,s0,s7
9d00abe0:	2403002e 	li	v1,46
9d00abe4:	26b50001 	addiu	s5,s5,1
9d00abe8:	2652ffff 	addiu	s2,s2,-1
9d00abec:	a2e30000 	sb	v1,0(s7)
9d00abf0:	1000fff1 	b	9d00abb8 <__fmt_fp+0x764>
9d00abf4:	24110001 	li	s1,1
9d00abf8:	26f7ffff 	addiu	s7,s7,-1
9d00abfc:	24840001 	addiu	a0,a0,1
9d00ac00:	56e0fffd 	bnezl	s7,9d00abf8 <__fmt_fp+0x7a4>
9d00ac04:	a0850000 	sb	a1,0(a0)
9d00ac08:	2652ffff 	addiu	s2,s2,-1
9d00ac0c:	26b50001 	addiu	s5,s5,1
9d00ac10:	02031821 	addu	v1,s0,v1
9d00ac14:	025e9023 	subu	s2,s2,s8
9d00ac18:	02bea821 	addu	s5,s5,s8
9d00ac1c:	24420030 	addiu	v0,v0,48
9d00ac20:	007ef021 	addu	s8,v1,s8
9d00ac24:	a3c20000 	sb	v0,0(s8)
9d00ac28:	8fa20038 	lw	v0,56(sp)
9d00ac2c:	8fa50018 	lw	a1,24(sp)
9d00ac30:	3c1e8000 	lui	s8,0x8000
9d00ac34:	03c22026 	xor	a0,s8,v0
9d00ac38:	02603025 	move	a2,s3
9d00ac3c:	01603825 	move	a3,t3
9d00ac40:	afa50010 	sw	a1,16(sp)
9d00ac44:	afa40014 	sw	a0,20(sp)
9d00ac48:	01e02825 	move	a1,t7
9d00ac4c:	01c02025 	move	a0,t6
9d00ac50:	afa90050 	sw	t1,80(sp)
9d00ac54:	0f402b42 	jal	9d00ad08 <fma>
9d00ac58:	afab0048 	sw	t3,72(sp)
9d00ac5c:	afa20018 	sw	v0,24(sp)
9d00ac60:	03c31026 	xor	v0,s8,v1
9d00ac64:	afa20038 	sw	v0,56(sp)
9d00ac68:	8fa20030 	lw	v0,48(sp)
9d00ac6c:	8fab0048 	lw	t3,72(sp)
9d00ac70:	02602025 	move	a0,s3
9d00ac74:	8c467598 	lw	a2,30104(v0)
9d00ac78:	8c47759c 	lw	a3,30108(v0)
9d00ac7c:	01602825 	move	a1,t3
9d00ac80:	0f40321b 	jal	9d00c86c <__divdf3>
9d00ac84:	26d6ffff 	addiu	s6,s6,-1
9d00ac88:	00409825 	move	s3,v0
9d00ac8c:	00605825 	move	t3,v1
9d00ac90:	02e0f025 	move	s8,s7
9d00ac94:	1000ff58 	b	9d00a9f8 <__fmt_fp+0x5a4>
9d00ac98:	8fa90050 	lw	t1,80(sp)
9d00ac9c:	0287001a 	div	zero,s4,a3
9d00aca0:	00e001f4 	teq	a3,zero,0x7
9d00aca4:	2442ffff 	addiu	v0,v0,-1
9d00aca8:	02025821 	addu	t3,s0,v0
9d00acac:	24a5ffff 	addiu	a1,a1,-1
9d00acb0:	00003010 	mfhi	a2
9d00acb4:	24c60030 	addiu	a2,a2,48
9d00acb8:	a1660000 	sb	a2,0(t3)
9d00acbc:	1000ff6e 	b	9d00aa78 <__fmt_fp+0x624>
9d00acc0:	0000a012 	mflo	s4
9d00acc4:	02021821 	addu	v1,s0,v0
9d00acc8:	80640000 	lb	a0,0(v1)
9d00accc:	02421821 	addu	v1,s2,v0
9d00acd0:	02031821 	addu	v1,s0,v1
9d00acd4:	a0640000 	sb	a0,0(v1)
9d00acd8:	1000ff86 	b	9d00aaf4 <__fmt_fp+0x6a0>
9d00acdc:	2442ffff 	addiu	v0,v0,-1
9d00ace0:	0681fec1 	bgez	s4,9d00a7e8 <__fmt_fp+0x394>
9d00ace4:	8fa30028 	lw	v1,40(sp)
9d00ace8:	1000feb7 	b	9d00a7c8 <__fmt_fp+0x374>
9d00acec:	24090066 	li	t1,102
9d00acf0:	1000fe61 	b	9d00a678 <__fmt_fp+0x224>
9d00acf4:	24110006 	li	s1,6
9d00acf8:	1062fe5f 	beq	v1,v0,9d00a678 <__fmt_fp+0x224>
9d00acfc:	24110006 	li	s1,6
9d00ad00:	1000feb1 	b	9d00a7c8 <__fmt_fp+0x374>
9d00ad04:	00604825 	move	t1,v1

Disassembly of section .text.fma:

9d00ad08 <fma>:
9d00ad08:	27bdff78 	addiu	sp,sp,-136
9d00ad0c:	afa40088 	sw	a0,136(sp)
9d00ad10:	afa60090 	sw	a2,144(sp)
9d00ad14:	afa70094 	sw	a3,148(sp)
9d00ad18:	00803025 	move	a2,a0
9d00ad1c:	00a03825 	move	a3,a1
9d00ad20:	27a40030 	addiu	a0,sp,48
9d00ad24:	afbf0084 	sw	ra,132(sp)
9d00ad28:	afa5008c 	sw	a1,140(sp)
9d00ad2c:	afbe0080 	sw	s8,128(sp)
9d00ad30:	afb3006c 	sw	s3,108(sp)
9d00ad34:	afb20068 	sw	s2,104(sp)
9d00ad38:	8fb3009c 	lw	s3,156(sp)
9d00ad3c:	8fb20098 	lw	s2,152(sp)
9d00ad40:	afb7007c 	sw	s7,124(sp)
9d00ad44:	afb60078 	sw	s6,120(sp)
9d00ad48:	afb50074 	sw	s5,116(sp)
9d00ad4c:	afb40070 	sw	s4,112(sp)
9d00ad50:	afb10064 	sw	s1,100(sp)
9d00ad54:	0f4047d9 	jal	9d011f64 <normalize>
9d00ad58:	afb00060 	sw	s0,96(sp)
9d00ad5c:	8fa60090 	lw	a2,144(sp)
9d00ad60:	8fa70094 	lw	a3,148(sp)
9d00ad64:	0f4047d9 	jal	9d011f64 <normalize>
9d00ad68:	27a40020 	addiu	a0,sp,32
9d00ad6c:	02403025 	move	a2,s2
9d00ad70:	02603825 	move	a3,s3
9d00ad74:	0f4047d9 	jal	9d011f64 <normalize>
9d00ad78:	27a40010 	addiu	a0,sp,16
9d00ad7c:	8fbe0038 	lw	s8,56(sp)
9d00ad80:	2bc203cb 	slti	v0,s8,971
9d00ad84:	10400006 	beqz	v0,9d00ada0 <fma+0x98>
9d00ad88:	8fa60090 	lw	a2,144(sp)
9d00ad8c:	8faf0028 	lw	t7,40(sp)
9d00ad90:	29e203cb 	slti	v0,t7,971
9d00ad94:	1440000e 	bnez	v0,9d00add0 <fma+0xc8>
9d00ad98:	8fa60018 	lw	a2,24(sp)
9d00ad9c:	8fa60090 	lw	a2,144(sp)
9d00ada0:	8fa70094 	lw	a3,148(sp)
9d00ada4:	8fa40088 	lw	a0,136(sp)
9d00ada8:	0f403a65 	jal	9d00e994 <__muldf3>
9d00adac:	8fa5008c 	lw	a1,140(sp)
9d00adb0:	00403025 	move	a2,v0
9d00adb4:	00603825 	move	a3,v1
9d00adb8:	02402025 	move	a0,s2
9d00adbc:	0f40367e 	jal	9d00d9f8 <__adddf3>
9d00adc0:	02602825 	move	a1,s3
9d00adc4:	00409025 	move	s2,v0
9d00adc8:	10000006 	b	9d00ade4 <fma+0xdc>
9d00adcc:	00609825 	move	s3,v1
9d00add0:	28c203cb 	slti	v0,a2,971
9d00add4:	14400011 	bnez	v0,9d00ae1c <fma+0x114>
9d00add8:	240203cb 	li	v0,971
9d00addc:	14c2fff0 	bne	a2,v0,9d00ada0 <fma+0x98>
9d00ade0:	8fa60090 	lw	a2,144(sp)
9d00ade4:	8fbf0084 	lw	ra,132(sp)
9d00ade8:	02401025 	move	v0,s2
9d00adec:	02601825 	move	v1,s3
9d00adf0:	8fbe0080 	lw	s8,128(sp)
9d00adf4:	8fb7007c 	lw	s7,124(sp)
9d00adf8:	8fb60078 	lw	s6,120(sp)
9d00adfc:	8fb50074 	lw	s5,116(sp)
9d00ae00:	8fb40070 	lw	s4,112(sp)
9d00ae04:	8fb3006c 	lw	s3,108(sp)
9d00ae08:	8fb20068 	lw	s2,104(sp)
9d00ae0c:	8fb10064 	lw	s1,100(sp)
9d00ae10:	8fb00060 	lw	s0,96(sp)
9d00ae14:	03e00008 	jr	ra
9d00ae18:	27bd0088 	addiu	sp,sp,136
9d00ae1c:	8fa20030 	lw	v0,48(sp)
9d00ae20:	8fac0020 	lw	t4,32(sp)
9d00ae24:	8fa40024 	lw	a0,36(sp)
9d00ae28:	8fb80034 	lw	t8,52(sp)
9d00ae2c:	004c0019 	multu	v0,t4
9d00ae30:	03cff021 	addu	s8,s8,t7
9d00ae34:	00de8823 	subu	s1,a2,s8
9d00ae38:	00004810 	mfhi	t1
9d00ae3c:	afa90044 	sw	t1,68(sp)
9d00ae40:	00004012 	mflo	t0
9d00ae44:	afa80040 	sw	t0,64(sp)
9d00ae48:	8fa90040 	lw	t1,64(sp)
9d00ae4c:	00440019 	multu	v0,a0
9d00ae50:	00001012 	mflo	v0
9d00ae54:	00001810 	mfhi	v1
9d00ae58:	030c0019 	multu	t8,t4
9d00ae5c:	00006012 	mflo	t4
9d00ae60:	004c7021 	addu	t6,v0,t4
9d00ae64:	01c2282b 	sltu	a1,t6,v0
9d00ae68:	00006810 	mfhi	t5
9d00ae6c:	8fa20044 	lw	v0,68(sp)
9d00ae70:	006d6821 	addu	t5,v1,t5
9d00ae74:	03040019 	multu	t8,a0
9d00ae78:	8fa30044 	lw	v1,68(sp)
9d00ae7c:	01c27021 	addu	t6,t6,v0
9d00ae80:	00ad2821 	addu	a1,a1,t5
9d00ae84:	01c3202b 	sltu	a0,t6,v1
9d00ae88:	0000c012 	mflo	t8
9d00ae8c:	03052821 	addu	a1,t8,a1
9d00ae90:	00b8102b 	sltu	v0,a1,t8
9d00ae94:	00a42021 	addu	a0,a1,a0
9d00ae98:	0000c810 	mfhi	t9
9d00ae9c:	00591021 	addu	v0,v0,t9
9d00aea0:	0085282b 	sltu	a1,a0,a1
9d00aea4:	00808025 	move	s0,a0
9d00aea8:	1a2000ad 	blez	s1,9d00b160 <fma+0x458>
9d00aeac:	00a2b021 	addu	s6,a1,v0
9d00aeb0:	2a220040 	slti	v0,s1,64
9d00aeb4:	8faf0010 	lw	t7,16(sp)
9d00aeb8:	10400079 	beqz	v0,9d00b0a0 <fma+0x398>
9d00aebc:	8fb70014 	lw	s7,20(sp)
9d00aec0:	01e02025 	move	a0,t7
9d00aec4:	02e02825 	move	a1,s7
9d00aec8:	02203025 	move	a2,s1
9d00aecc:	afae0054 	sw	t6,84(sp)
9d00aed0:	afa90050 	sw	t1,80(sp)
9d00aed4:	0f404d7c 	jal	9d0135f0 <__ashldi3>
9d00aed8:	afaf004c 	sw	t7,76(sp)
9d00aedc:	8faf004c 	lw	t7,76(sp)
9d00aee0:	24060040 	li	a2,64
9d00aee4:	02e02825 	move	a1,s7
9d00aee8:	01e02025 	move	a0,t7
9d00aeec:	00d13023 	subu	a2,a2,s1
9d00aef0:	afa20048 	sw	v0,72(sp)
9d00aef4:	0f404d6d 	jal	9d0135b4 <__lshrdi3>
9d00aef8:	afa30040 	sw	v1,64(sp)
9d00aefc:	8fb80040 	lw	t8,64(sp)
9d00af00:	8fa70048 	lw	a3,72(sp)
9d00af04:	8fa90050 	lw	t1,80(sp)
9d00af08:	8fae0054 	lw	t6,84(sp)
9d00af0c:	00407825 	move	t7,v0
9d00af10:	0060b825 	move	s7,v1
9d00af14:	8fa2002c 	lw	v0,44(sp)
9d00af18:	8fb1003c 	lw	s1,60(sp)
9d00af1c:	02228826 	xor	s1,s1,v0
9d00af20:	8fa2001c 	lw	v0,28(sp)
9d00af24:	145100b9 	bne	v0,s1,9d00b20c <fma+0x504>
9d00af28:	00e95021 	addu	t2,a3,t1
9d00af2c:	0147902b 	sltu	s2,t2,a3
9d00af30:	030e7021 	addu	t6,t8,t6
9d00af34:	024ea021 	addu	s4,s2,t6
9d00af38:	0298102b 	sltu	v0,s4,t8
9d00af3c:	0140a825 	move	s5,t2
9d00af40:	14400006 	bnez	v0,9d00af5c <fma+0x254>
9d00af44:	24060001 	li	a2,1
9d00af48:	17140003 	bne	t8,s4,9d00af58 <fma+0x250>
9d00af4c:	0147382b 	sltu	a3,t2,a3
9d00af50:	14e00003 	bnez	a3,9d00af60 <fma+0x258>
9d00af54:	01f05821 	addu	t3,t7,s0
9d00af58:	00003025 	move	a2,zero
9d00af5c:	01f05821 	addu	t3,t7,s0
9d00af60:	016f782b 	sltu	t7,t3,t7
9d00af64:	02f61021 	addu	v0,s7,s6
9d00af68:	00cb5821 	addu	t3,a2,t3
9d00af6c:	01e21021 	addu	v0,t7,v0
9d00af70:	0166302b 	sltu	a2,t3,a2
9d00af74:	00c2c821 	addu	t9,a2,v0
9d00af78:	01602025 	move	a0,t3
9d00af7c:	03202825 	move	a1,t9
9d00af80:	afab0048 	sw	t3,72(sp)
9d00af84:	0f404b91 	jal	9d012e44 <a_clz_64>
9d00af88:	afb90040 	sw	t9,64(sp)
9d00af8c:	2453ffff 	addiu	s3,v0,-1
9d00af90:	24060040 	li	a2,64
9d00af94:	00d33023 	subu	a2,a2,s3
9d00af98:	02a02025 	move	a0,s5
9d00af9c:	0f404d6d 	jal	9d0135b4 <__lshrdi3>
9d00afa0:	02802825 	move	a1,s4
9d00afa4:	8fab0048 	lw	t3,72(sp)
9d00afa8:	8fb90040 	lw	t9,64(sp)
9d00afac:	02603025 	move	a2,s3
9d00afb0:	01602025 	move	a0,t3
9d00afb4:	03202825 	move	a1,t9
9d00afb8:	00408025 	move	s0,v0
9d00afbc:	0f404d7c 	jal	9d0135f0 <__ashldi3>
9d00afc0:	00609025 	move	s2,v1
9d00afc4:	02603025 	move	a2,s3
9d00afc8:	02a02025 	move	a0,s5
9d00afcc:	02802825 	move	a1,s4
9d00afd0:	02028025 	or	s0,s0,v0
9d00afd4:	0f404d7c 	jal	9d0135f0 <__ashldi3>
9d00afd8:	02439025 	or	s2,s2,v1
9d00afdc:	00431025 	or	v0,v0,v1
9d00afe0:	0002102b 	sltu	v0,zero,v0
9d00afe4:	27de0040 	addiu	s8,s8,64
9d00afe8:	02028025 	or	s0,s0,v0
9d00afec:	02002025 	move	a0,s0
9d00aff0:	12200005 	beqz	s1,9d00b008 <fma+0x300>
9d00aff4:	02402825 	move	a1,s2
9d00aff8:	00102023 	negu	a0,s0
9d00affc:	0004102b 	sltu	v0,zero,a0
9d00b000:	00122823 	negu	a1,s2
9d00b004:	00a22823 	subu	a1,a1,v0
9d00b008:	0f404ae9 	jal	9d012ba4 <__floatdidf>
9d00b00c:	03d3f023 	subu	s8,s8,s3
9d00b010:	0040b025 	move	s6,v0
9d00b014:	2bc2fbc4 	slti	v0,s8,-1084
9d00b018:	104000fc 	beqz	v0,9d00b40c <fma+0x704>
9d00b01c:	0060b825 	move	s7,v1
9d00b020:	2402fbc3 	li	v0,-1085
9d00b024:	17c200ff 	bne	s8,v0,9d00b424 <fma+0x71c>
9d00b028:	00102580 	sll	a0,s0,0x16
9d00b02c:	122000b8 	beqz	s1,9d00b310 <fma+0x608>
9d00b030:	3c029d00 	lui	v0,0x9d00
9d00b034:	8c547660 	lw	s4,30304(v0)
9d00b038:	8c557664 	lw	s5,30308(v0)
9d00b03c:	02c03025 	move	a2,s6
9d00b040:	02e03825 	move	a3,s7
9d00b044:	02802025 	move	a0,s4
9d00b048:	0f404331 	jal	9d010cc4 <__eqdf2>
9d00b04c:	02a02825 	move	a1,s5
9d00b050:	144000b3 	bnez	v0,9d00b320 <fma+0x618>
9d00b054:	3c029d00 	lui	v0,0x9d00
9d00b058:	8c467668 	lw	a2,30312(v0)
9d00b05c:	8c47766c 	lw	a3,30316(v0)
9d00b060:	02c02025 	move	a0,s6
9d00b064:	0f403a65 	jal	9d00e994 <__muldf3>
9d00b068:	02e02825 	move	a1,s7
9d00b06c:	00602825 	move	a1,v1
9d00b070:	0f40451f 	jal	9d01147c <__truncdfsf2>
9d00b074:	00402025 	move	a0,v0
9d00b078:	0f404784 	jal	9d011e10 <__extendsfdf2>
9d00b07c:	00402025 	move	a0,v0
9d00b080:	3c049d00 	lui	a0,0x9d00
9d00b084:	8c867670 	lw	a2,30320(a0)
9d00b088:	8c877674 	lw	a3,30324(a0)
9d00b08c:	00602825 	move	a1,v1
9d00b090:	0f403a65 	jal	9d00e994 <__muldf3>
9d00b094:	00402025 	move	a0,v0
9d00b098:	1000ff4b 	b	9d00adc8 <fma+0xc0>
9d00b09c:	00409025 	move	s2,v0
9d00b0a0:	2631ffc0 	addiu	s1,s1,-64
9d00b0a4:	24deffc0 	addiu	s8,a2,-64
9d00b0a8:	00003825 	move	a3,zero
9d00b0ac:	1220ff99 	beqz	s1,9d00af14 <fma+0x20c>
9d00b0b0:	0000c025 	move	t8,zero
9d00b0b4:	2a220040 	slti	v0,s1,64
9d00b0b8:	1040004c 	beqz	v0,9d00b1ec <fma+0x4e4>
9d00b0bc:	8fa40040 	lw	a0,64(sp)
9d00b0c0:	240b0040 	li	t3,64
9d00b0c4:	01715823 	subu	t3,t3,s1
9d00b0c8:	01603025 	move	a2,t3
9d00b0cc:	01c02825 	move	a1,t6
9d00b0d0:	afb80058 	sw	t8,88(sp)
9d00b0d4:	afa70054 	sw	a3,84(sp)
9d00b0d8:	afaf0050 	sw	t7,80(sp)
9d00b0dc:	afab004c 	sw	t3,76(sp)
9d00b0e0:	0f404d7c 	jal	9d0135f0 <__ashldi3>
9d00b0e4:	afae0048 	sw	t6,72(sp)
9d00b0e8:	8fae0048 	lw	t6,72(sp)
9d00b0ec:	8fa40040 	lw	a0,64(sp)
9d00b0f0:	00431025 	or	v0,v0,v1
9d00b0f4:	01c02825 	move	a1,t6
9d00b0f8:	02203025 	move	a2,s1
9d00b0fc:	0f404d6d 	jal	9d0135b4 <__lshrdi3>
9d00b100:	0002a82b 	sltu	s5,zero,v0
9d00b104:	8fab004c 	lw	t3,76(sp)
9d00b108:	02002025 	move	a0,s0
9d00b10c:	02c02825 	move	a1,s6
9d00b110:	01603025 	move	a2,t3
9d00b114:	0060a025 	move	s4,v1
9d00b118:	0f404d7c 	jal	9d0135f0 <__ashldi3>
9d00b11c:	02a2a825 	or	s5,s5,v0
9d00b120:	02a24825 	or	t1,s5,v0
9d00b124:	02837025 	or	t6,s4,v1
9d00b128:	02002025 	move	a0,s0
9d00b12c:	02c02825 	move	a1,s6
9d00b130:	02203025 	move	a2,s1
9d00b134:	afa90048 	sw	t1,72(sp)
9d00b138:	0f404d6d 	jal	9d0135b4 <__lshrdi3>
9d00b13c:	afae0040 	sw	t6,64(sp)
9d00b140:	00408025 	move	s0,v0
9d00b144:	0060b025 	move	s6,v1
9d00b148:	8fae0040 	lw	t6,64(sp)
9d00b14c:	8fa90048 	lw	t1,72(sp)
9d00b150:	8faf0050 	lw	t7,80(sp)
9d00b154:	8fa70054 	lw	a3,84(sp)
9d00b158:	1000ff6e 	b	9d00af14 <fma+0x20c>
9d00b15c:	8fb80058 	lw	t8,88(sp)
9d00b160:	03c68823 	subu	s1,s8,a2
9d00b164:	16200005 	bnez	s1,9d00b17c <fma+0x474>
9d00b168:	8fa70010 	lw	a3,16(sp)
9d00b16c:	8fb80014 	lw	t8,20(sp)
9d00b170:	00007825 	move	t7,zero
9d00b174:	1000ff67 	b	9d00af14 <fma+0x20c>
9d00b178:	0000b825 	move	s7,zero
9d00b17c:	2a220040 	slti	v0,s1,64
9d00b180:	1040001f 	beqz	v0,9d00b200 <fma+0x4f8>
9d00b184:	8faa0010 	lw	t2,16(sp)
9d00b188:	8fab0014 	lw	t3,20(sp)
9d00b18c:	24060040 	li	a2,64
9d00b190:	01402025 	move	a0,t2
9d00b194:	01602825 	move	a1,t3
9d00b198:	00d13023 	subu	a2,a2,s1
9d00b19c:	afae004c 	sw	t6,76(sp)
9d00b1a0:	afa90048 	sw	t1,72(sp)
9d00b1a4:	afaa0040 	sw	t2,64(sp)
9d00b1a8:	0f404d7c 	jal	9d0135f0 <__ashldi3>
9d00b1ac:	afab0044 	sw	t3,68(sp)
9d00b1b0:	8faa0040 	lw	t2,64(sp)
9d00b1b4:	8fab0044 	lw	t3,68(sp)
9d00b1b8:	00431025 	or	v0,v0,v1
9d00b1bc:	02203025 	move	a2,s1
9d00b1c0:	01402025 	move	a0,t2
9d00b1c4:	01602825 	move	a1,t3
9d00b1c8:	0f404d6d 	jal	9d0135b4 <__lshrdi3>
9d00b1cc:	0002a02b 	sltu	s4,zero,v0
9d00b1d0:	02823825 	or	a3,s4,v0
9d00b1d4:	0060c025 	move	t8,v1
9d00b1d8:	00007825 	move	t7,zero
9d00b1dc:	0000b825 	move	s7,zero
9d00b1e0:	8fa90048 	lw	t1,72(sp)
9d00b1e4:	1000ff4b 	b	9d00af14 <fma+0x20c>
9d00b1e8:	8fae004c 	lw	t6,76(sp)
9d00b1ec:	24090001 	li	t1,1
9d00b1f0:	00007025 	move	t6,zero
9d00b1f4:	00008025 	move	s0,zero
9d00b1f8:	1000ff46 	b	9d00af14 <fma+0x20c>
9d00b1fc:	0000b025 	move	s6,zero
9d00b200:	24070001 	li	a3,1
9d00b204:	1000ffda 	b	9d00b170 <fma+0x468>
9d00b208:	0000c025 	move	t8,zero
9d00b20c:	01275023 	subu	t2,t1,a3
9d00b210:	012a182b 	sltu	v1,t1,t2
9d00b214:	01d84023 	subu	t0,t6,t8
9d00b218:	0103a023 	subu	s4,t0,v1
9d00b21c:	01d4102b 	sltu	v0,t6,s4
9d00b220:	0140a825 	move	s5,t2
9d00b224:	241f0001 	li	ra,1
9d00b228:	14400006 	bnez	v0,9d00b244 <fma+0x53c>
9d00b22c:	00003025 	move	a2,zero
9d00b230:	568e0004 	bnel	s4,t6,9d00b244 <fma+0x53c>
9d00b234:	0000f825 	move	ra,zero
9d00b238:	14600003 	bnez	v1,9d00b248 <fma+0x540>
9d00b23c:	020f1823 	subu	v1,s0,t7
9d00b240:	0000f825 	move	ra,zero
9d00b244:	020f1823 	subu	v1,s0,t7
9d00b248:	0203c82b 	sltu	t9,s0,v1
9d00b24c:	02d71023 	subu	v0,s6,s7
9d00b250:	00591023 	subu	v0,v0,t9
9d00b254:	007f5823 	subu	t3,v1,ra
9d00b258:	006b182b 	sltu	v1,v1,t3
9d00b25c:	00461023 	subu	v0,v0,a2
9d00b260:	0043c823 	subu	t9,v0,v1
9d00b264:	07210013 	bgez	t9,9d00b2b4 <fma+0x5ac>
9d00b268:	00e95023 	subu	t2,a3,t1
9d00b26c:	00ea382b 	sltu	a3,a3,t2
9d00b270:	030e4023 	subu	t0,t8,t6
9d00b274:	01f02023 	subu	a0,t7,s0
9d00b278:	0107a023 	subu	s4,t0,a3
9d00b27c:	01e4782b 	sltu	t7,t7,a0
9d00b280:	02f61023 	subu	v0,s7,s6
9d00b284:	01545825 	or	t3,t2,s4
9d00b288:	009ff821 	addu	ra,a0,ra
9d00b28c:	004f1023 	subu	v0,v0,t7
9d00b290:	000b582b 	sltu	t3,zero,t3
9d00b294:	03e4202b 	sltu	a0,ra,a0
9d00b298:	00461021 	addu	v0,v0,a2
9d00b29c:	03eb5823 	subu	t3,ra,t3
9d00b2a0:	00821021 	addu	v0,a0,v0
9d00b2a4:	03ebf82b 	sltu	ra,ra,t3
9d00b2a8:	0140a825 	move	s5,t2
9d00b2ac:	005fc823 	subu	t9,v0,ra
9d00b2b0:	2e310001 	sltiu	s1,s1,1
9d00b2b4:	01791025 	or	v0,t3,t9
9d00b2b8:	1440ff2f 	bnez	v0,9d00af78 <fma+0x270>
9d00b2bc:	02b41025 	or	v0,s5,s4
9d00b2c0:	1040feb6 	beqz	v0,9d00ad9c <fma+0x94>
9d00b2c4:	02a02025 	move	a0,s5
9d00b2c8:	0f404b91 	jal	9d012e44 <a_clz_64>
9d00b2cc:	02802825 	move	a1,s4
9d00b2d0:	2453ffff 	addiu	s3,v0,-1
9d00b2d4:	06610007 	bgez	s3,9d00b2f4 <fma+0x5ec>
9d00b2d8:	001417c0 	sll	v0,s4,0x1f
9d00b2dc:	00158042 	srl	s0,s5,0x1
9d00b2e0:	00508025 	or	s0,v0,s0
9d00b2e4:	32aa0001 	andi	t2,s5,0x1
9d00b2e8:	020a8025 	or	s0,s0,t2
9d00b2ec:	1000ff3f 	b	9d00afec <fma+0x2e4>
9d00b2f0:	00149042 	srl	s2,s4,0x1
9d00b2f4:	02603025 	move	a2,s3
9d00b2f8:	02a02025 	move	a0,s5
9d00b2fc:	0f404d7c 	jal	9d0135f0 <__ashldi3>
9d00b300:	02802825 	move	a1,s4
9d00b304:	00408025 	move	s0,v0
9d00b308:	1000ff38 	b	9d00afec <fma+0x2e4>
9d00b30c:	00609025 	move	s2,v1
9d00b310:	3c029d00 	lui	v0,0x9d00
9d00b314:	8c547658 	lw	s4,30296(v0)
9d00b318:	1000ff48 	b	9d00b03c <fma+0x334>
9d00b31c:	8c55765c 	lw	s5,30300(v0)
9d00b320:	00101540 	sll	v0,s0,0x15
9d00b324:	10400039 	beqz	v0,9d00b40c <fma+0x704>
9d00b328:	001217c0 	sll	v0,s2,0x1f
9d00b32c:	00102042 	srl	a0,s0,0x1
9d00b330:	00442025 	or	a0,v0,a0
9d00b334:	00122842 	srl	a1,s2,0x1
9d00b338:	32100001 	andi	s0,s0,0x1
9d00b33c:	3c024000 	lui	v0,0x4000
9d00b340:	00902025 	or	a0,a0,s0
9d00b344:	12200005 	beqz	s1,9d00b35c <fma+0x654>
9d00b348:	00452825 	or	a1,v0,a1
9d00b34c:	00042023 	negu	a0,a0
9d00b350:	0004102b 	sltu	v0,zero,a0
9d00b354:	00052823 	negu	a1,a1
9d00b358:	00a22823 	subu	a1,a1,v0
9d00b35c:	0f404ae9 	jal	9d012ba4 <__floatdidf>
9d00b360:	00000000 	nop
9d00b364:	00403025 	move	a2,v0
9d00b368:	00603825 	move	a3,v1
9d00b36c:	00402025 	move	a0,v0
9d00b370:	0f40367e 	jal	9d00d9f8 <__adddf3>
9d00b374:	00602825 	move	a1,v1
9d00b378:	00402025 	move	a0,v0
9d00b37c:	02803025 	move	a2,s4
9d00b380:	02a03825 	move	a3,s5
9d00b384:	0f40367c 	jal	9d00d9f0 <__subdf3>
9d00b388:	00602825 	move	a1,v1
9d00b38c:	00408025 	move	s0,v0
9d00b390:	3c029d00 	lui	v0,0x9d00
9d00b394:	8c467670 	lw	a2,30320(v0)
9d00b398:	8c477674 	lw	a3,30324(v0)
9d00b39c:	02002025 	move	a0,s0
9d00b3a0:	00602825 	move	a1,v1
9d00b3a4:	0f403a65 	jal	9d00e994 <__muldf3>
9d00b3a8:	00608825 	move	s1,v1
9d00b3ac:	00403025 	move	a2,v0
9d00b3b0:	00603825 	move	a3,v1
9d00b3b4:	00402025 	move	a0,v0
9d00b3b8:	0f403a65 	jal	9d00e994 <__muldf3>
9d00b3bc:	00602825 	move	a1,v1
9d00b3c0:	02003025 	move	a2,s0
9d00b3c4:	02203825 	move	a3,s1
9d00b3c8:	02002025 	move	a0,s0
9d00b3cc:	02202825 	move	a1,s1
9d00b3d0:	00409025 	move	s2,v0
9d00b3d4:	0f40367c 	jal	9d00d9f0 <__subdf3>
9d00b3d8:	00609825 	move	s3,v1
9d00b3dc:	00403025 	move	a2,v0
9d00b3e0:	00603825 	move	a3,v1
9d00b3e4:	02402025 	move	a0,s2
9d00b3e8:	0f403a65 	jal	9d00e994 <__muldf3>
9d00b3ec:	02602825 	move	a1,s3
9d00b3f0:	00402025 	move	a0,v0
9d00b3f4:	02003025 	move	a2,s0
9d00b3f8:	02203825 	move	a3,s1
9d00b3fc:	0f40367e 	jal	9d00d9f8 <__adddf3>
9d00b400:	00602825 	move	a1,v1
9d00b404:	0040b025 	move	s6,v0
9d00b408:	0060b825 	move	s7,v1
9d00b40c:	03c03025 	move	a2,s8
9d00b410:	02c02025 	move	a0,s6
9d00b414:	0f40455f 	jal	9d01157c <scalbn>
9d00b418:	02e02825 	move	a1,s7
9d00b41c:	1000fe6a 	b	9d00adc8 <fma+0xc0>
9d00b420:	00409025 	move	s2,v0
9d00b424:	00121580 	sll	v0,s2,0x16
9d00b428:	00108282 	srl	s0,s0,0xa
9d00b42c:	00508025 	or	s0,v0,s0
9d00b430:	0004202b 	sltu	a0,zero,a0
9d00b434:	00902025 	or	a0,a0,s0
9d00b438:	02402825 	move	a1,s2
9d00b43c:	00041582 	srl	v0,a0,0x16
9d00b440:	7c054804 	ins	a1,zero,0x0,0xa
9d00b444:	00452825 	or	a1,v0,a1
9d00b448:	12200005 	beqz	s1,9d00b460 <fma+0x758>
9d00b44c:	00042280 	sll	a0,a0,0xa
9d00b450:	00042023 	negu	a0,a0
9d00b454:	0004102b 	sltu	v0,zero,a0
9d00b458:	00052823 	negu	a1,a1
9d00b45c:	00a22823 	subu	a1,a1,v0
9d00b460:	0f404ae9 	jal	9d012ba4 <__floatdidf>
9d00b464:	00000000 	nop
9d00b468:	1000ffe7 	b	9d00b408 <fma+0x700>
9d00b46c:	0040b025 	move	s6,v0

Disassembly of section .text.__scanf_core:

9d00b470 <__scanf_core>:
9d00b470:	27bdfe20 	addiu	sp,sp,-480
9d00b474:	afb601d4 	sw	s6,468(sp)
9d00b478:	afb501d0 	sw	s5,464(sp)
9d00b47c:	afb201c4 	sw	s2,452(sp)
9d00b480:	afb001bc 	sw	s0,444(sp)
9d00b484:	afbf01dc 	sw	ra,476(sp)
9d00b488:	afb701d8 	sw	s7,472(sp)
9d00b48c:	afb401cc 	sw	s4,460(sp)
9d00b490:	afb301c8 	sw	s3,456(sp)
9d00b494:	afb101c0 	sw	s1,448(sp)
9d00b498:	00808025 	move	s0,a0
9d00b49c:	00c09025 	move	s2,a2
9d00b4a0:	afa501b4 	sw	a1,436(sp)
9d00b4a4:	afa001b0 	sw	zero,432(sp)
9d00b4a8:	0000a825 	move	s5,zero
9d00b4ac:	27b6011c 	addiu	s6,sp,284
9d00b4b0:	8fa201b4 	lw	v0,436(sp)
9d00b4b4:	80420000 	lb	v0,0(v0)
9d00b4b8:	1040005a 	beqz	v0,9d00b624 <__scanf_core+0x1b4>
9d00b4bc:	24020080 	li	v0,128
9d00b4c0:	27a501b4 	addiu	a1,sp,436
9d00b4c4:	02002025 	move	a0,s0
9d00b4c8:	afa0019c 	sw	zero,412(sp)
9d00b4cc:	afa001a0 	sw	zero,416(sp)
9d00b4d0:	afa001a4 	sw	zero,420(sp)
9d00b4d4:	afb601a8 	sw	s6,424(sp)
9d00b4d8:	0f404b22 	jal	9d012c88 <__consumews>
9d00b4dc:	afa201ac 	sw	v0,428(sp)
9d00b4e0:	00408825 	move	s1,v0
9d00b4e4:	8fa301b4 	lw	v1,436(sp)
9d00b4e8:	80620000 	lb	v0,0(v1)
9d00b4ec:	10400003 	beqz	v0,9d00b4fc <__scanf_core+0x8c>
9d00b4f0:	24040025 	li	a0,37
9d00b4f4:	5444003b 	bnel	v0,a0,9d00b5e4 <__scanf_core+0x174>
9d00b4f8:	8e02003c 	lw	v0,60(s0)
9d00b4fc:	8fa201b0 	lw	v0,432(sp)
9d00b500:	00511021 	addu	v0,v0,s1
9d00b504:	afa201b0 	sw	v0,432(sp)
9d00b508:	80640000 	lb	a0,0(v1)
9d00b50c:	24020025 	li	v0,37
9d00b510:	1482002d 	bne	a0,v0,9d00b5c8 <__scanf_core+0x158>
9d00b514:	24620001 	addiu	v0,v1,1
9d00b518:	afa201b4 	sw	v0,436(sp)
9d00b51c:	afa001a4 	sw	zero,420(sp)
9d00b520:	80640001 	lb	a0,1(v1)
9d00b524:	2402002a 	li	v0,42
9d00b528:	14820004 	bne	a0,v0,9d00b53c <__scanf_core+0xcc>
9d00b52c:	00008825 	move	s1,zero
9d00b530:	24630002 	addiu	v1,v1,2
9d00b534:	afa301b4 	sw	v1,436(sp)
9d00b538:	24110001 	li	s1,1
9d00b53c:	0f404a8d 	jal	9d012a34 <atoi>
9d00b540:	8fa401b4 	lw	a0,436(sp)
9d00b544:	00402825 	move	a1,v0
9d00b548:	02002025 	move	a0,s0
9d00b54c:	0f404e1c 	jal	9d013870 <__shlim>
9d00b550:	afa201a4 	sw	v0,420(sp)
9d00b554:	8fa301b4 	lw	v1,436(sp)
9d00b558:	80620000 	lb	v0,0(v1)
9d00b55c:	2442ffd0 	addiu	v0,v0,-48
9d00b560:	2c42000a 	sltiu	v0,v0,10
9d00b564:	1440004b 	bnez	v0,9d00b694 <__scanf_core+0x224>
9d00b568:	24630001 	addiu	v1,v1,1
9d00b56c:	0f404c0c 	jal	9d013030 <__fmt_state>
9d00b570:	27a401b4 	addiu	a0,sp,436
9d00b574:	0040a025 	move	s4,v0
9d00b578:	8fa201b4 	lw	v0,436(sp)
9d00b57c:	0f404ef2 	jal	9d013bc8 <tolower>
9d00b580:	80440000 	lb	a0,0(v0)
9d00b584:	28430068 	slti	v1,v0,104
9d00b588:	1060005f 	beqz	v1,9d00b708 <__scanf_core+0x298>
9d00b58c:	28430065 	slti	v1,v0,101
9d00b590:	106000bd 	beqz	v1,9d00b888 <__scanf_core+0x418>
9d00b594:	24030061 	li	v1,97
9d00b598:	104300bb 	beq	v0,v1,9d00b888 <__scanf_core+0x418>
9d00b59c:	28430062 	slti	v1,v0,98
9d00b5a0:	1060003e 	beqz	v1,9d00b69c <__scanf_core+0x22c>
9d00b5a4:	24040025 	li	a0,37
9d00b5a8:	104400e0 	beq	v0,a0,9d00b92c <__scanf_core+0x4bc>
9d00b5ac:	8fa301b4 	lw	v1,436(sp)
9d00b5b0:	2404005b 	li	a0,91
9d00b5b4:	104400fc 	beq	v0,a0,9d00b9a8 <__scanf_core+0x538>
9d00b5b8:	24020080 	li	v0,128
9d00b5bc:	8fa201b4 	lw	v0,436(sp)
9d00b5c0:	24420001 	addiu	v0,v0,1
9d00b5c4:	afa201b4 	sw	v0,436(sp)
9d00b5c8:	2402ffff 	li	v0,-1
9d00b5cc:	166200ac 	bne	s3,v0,9d00b880 <__scanf_core+0x410>
9d00b5d0:	00008825 	move	s1,zero
9d00b5d4:	52a00013 	beqzl	s5,9d00b624 <__scanf_core+0x1b4>
9d00b5d8:	2415ffff 	li	s5,-1
9d00b5dc:	10000012 	b	9d00b628 <__scanf_core+0x1b8>
9d00b5e0:	8fbf01dc 	lw	ra,476(sp)
9d00b5e4:	8e03004c 	lw	v1,76(s0)
9d00b5e8:	0043182b 	sltu	v1,v0,v1
9d00b5ec:	10600019 	beqz	v1,9d00b654 <__scanf_core+0x1e4>
9d00b5f0:	24430001 	addiu	v1,v0,1
9d00b5f4:	ae03003c 	sw	v1,60(s0)
9d00b5f8:	90530000 	lbu	s3,0(v0)
9d00b5fc:	8fa201b4 	lw	v0,436(sp)
9d00b600:	80420000 	lb	v0,0(v0)
9d00b604:	10530019 	beq	v0,s3,9d00b66c <__scanf_core+0x1fc>
9d00b608:	8fa201b0 	lw	v0,432(sp)
9d00b60c:	8e02004c 	lw	v0,76(s0)
9d00b610:	10400005 	beqz	v0,9d00b628 <__scanf_core+0x1b8>
9d00b614:	8fbf01dc 	lw	ra,476(sp)
9d00b618:	8e02003c 	lw	v0,60(s0)
9d00b61c:	2442ffff 	addiu	v0,v0,-1
9d00b620:	ae02003c 	sw	v0,60(s0)
9d00b624:	8fbf01dc 	lw	ra,476(sp)
9d00b628:	02a01025 	move	v0,s5
9d00b62c:	8fb701d8 	lw	s7,472(sp)
9d00b630:	8fb601d4 	lw	s6,468(sp)
9d00b634:	8fb501d0 	lw	s5,464(sp)
9d00b638:	8fb401cc 	lw	s4,460(sp)
9d00b63c:	8fb301c8 	lw	s3,456(sp)
9d00b640:	8fb201c4 	lw	s2,452(sp)
9d00b644:	8fb101c0 	lw	s1,448(sp)
9d00b648:	8fb001bc 	lw	s0,444(sp)
9d00b64c:	03e00008 	jr	ra
9d00b650:	27bd01e0 	addiu	sp,sp,480
9d00b654:	0f4046ff 	jal	9d011bfc <__shgetc>
9d00b658:	02002025 	move	a0,s0
9d00b65c:	00409825 	move	s3,v0
9d00b660:	2402ffff 	li	v0,-1
9d00b664:	1662ffe5 	bne	s3,v0,9d00b5fc <__scanf_core+0x18c>
9d00b668:	8fa201b0 	lw	v0,432(sp)
9d00b66c:	27a501b4 	addiu	a1,sp,436
9d00b670:	02002025 	move	a0,s0
9d00b674:	24420001 	addiu	v0,v0,1
9d00b678:	afa201b0 	sw	v0,432(sp)
9d00b67c:	8fa201b4 	lw	v0,436(sp)
9d00b680:	24420001 	addiu	v0,v0,1
9d00b684:	0f404b22 	jal	9d012c88 <__consumews>
9d00b688:	afa201b4 	sw	v0,436(sp)
9d00b68c:	1000ff95 	b	9d00b4e4 <__scanf_core+0x74>
9d00b690:	02228821 	addu	s1,s1,v0
9d00b694:	1000ffaf 	b	9d00b554 <__scanf_core+0xe4>
9d00b698:	afa301b4 	sw	v1,436(sp)
9d00b69c:	24030063 	li	v1,99
9d00b6a0:	1043008a 	beq	v0,v1,9d00b8cc <__scanf_core+0x45c>
9d00b6a4:	24030064 	li	v1,100
9d00b6a8:	1443ffc4 	bne	v0,v1,9d00b5bc <__scanf_core+0x14c>
9d00b6ac:	27a701b0 	addiu	a3,sp,432
9d00b6b0:	27a6019c 	addiu	a2,sp,412
9d00b6b4:	27a50018 	addiu	a1,sp,24
9d00b6b8:	0f404b06 	jal	9d012c18 <__scan_d>
9d00b6bc:	02002025 	move	a0,s0
9d00b6c0:	0442000c 	bltzl	v0,9d00b6f4 <__scanf_core+0x284>
9d00b6c4:	00408825 	move	s1,v0
9d00b6c8:	8fa201b4 	lw	v0,436(sp)
9d00b6cc:	24420001 	addiu	v0,v0,1
9d00b6d0:	162000a8 	bnez	s1,9d00b974 <__scanf_core+0x504>
9d00b6d4:	afa201b4 	sw	v0,436(sp)
9d00b6d8:	02403825 	move	a3,s2
9d00b6dc:	24060001 	li	a2,1
9d00b6e0:	02802825 	move	a1,s4
9d00b6e4:	0f40408c 	jal	9d010230 <__push_int>
9d00b6e8:	27a40018 	addiu	a0,sp,24
9d00b6ec:	04410064 	bgez	v0,9d00b880 <__scanf_core+0x410>
9d00b6f0:	00408825 	move	s1,v0
9d00b6f4:	2402ffff 	li	v0,-1
9d00b6f8:	1222ffb6 	beq	s1,v0,9d00b5d4 <__scanf_core+0x164>
9d00b6fc:	8fbf01dc 	lw	ra,476(sp)
9d00b700:	1000ffca 	b	9d00b62c <__scanf_core+0x1bc>
9d00b704:	02a01025 	move	v0,s5
9d00b708:	24030070 	li	v1,112
9d00b70c:	10430040 	beq	v0,v1,9d00b810 <__scanf_core+0x3a0>
9d00b710:	28430071 	slti	v1,v0,113
9d00b714:	1060000d 	beqz	v1,9d00b74c <__scanf_core+0x2dc>
9d00b718:	2403006e 	li	v1,110
9d00b71c:	1043004b 	beq	v0,v1,9d00b84c <__scanf_core+0x3dc>
9d00b720:	2843006f 	slti	v1,v0,111
9d00b724:	1060002c 	beqz	v1,9d00b7d8 <__scanf_core+0x368>
9d00b728:	24030069 	li	v1,105
9d00b72c:	1443ffa3 	bne	v0,v1,9d00b5bc <__scanf_core+0x14c>
9d00b730:	27a701b0 	addiu	a3,sp,432
9d00b734:	27a6019c 	addiu	a2,sp,412
9d00b738:	27a50018 	addiu	a1,sp,24
9d00b73c:	0f403bef 	jal	9d00efbc <__scan_i>
9d00b740:	02002025 	move	a0,s0
9d00b744:	1000ffde 	b	9d00b6c0 <__scanf_core+0x250>
9d00b748:	00000000 	nop
9d00b74c:	24030075 	li	v1,117
9d00b750:	10430013 	beq	v0,v1,9d00b7a0 <__scanf_core+0x330>
9d00b754:	24030078 	li	v1,120
9d00b758:	10430026 	beq	v0,v1,9d00b7f4 <__scanf_core+0x384>
9d00b75c:	24030073 	li	v1,115
9d00b760:	1443ff96 	bne	v0,v1,9d00b5bc <__scanf_core+0x14c>
9d00b764:	24020080 	li	v0,128
9d00b768:	1682ff94 	bne	s4,v0,9d00b5bc <__scanf_core+0x14c>
9d00b76c:	8fa201b4 	lw	v0,436(sp)
9d00b770:	24420001 	addiu	v0,v0,1
9d00b774:	afa201b4 	sw	v0,436(sp)
9d00b778:	16200005 	bnez	s1,9d00b790 <__scanf_core+0x320>
9d00b77c:	00001025 	move	v0,zero
9d00b780:	8e420000 	lw	v0,0(s2)
9d00b784:	24430004 	addiu	v1,v0,4
9d00b788:	ae430000 	sw	v1,0(s2)
9d00b78c:	8c420000 	lw	v0,0(v0)
9d00b790:	afa20010 	sw	v0,16(sp)
9d00b794:	27a701b0 	addiu	a3,sp,432
9d00b798:	1000005f 	b	9d00b918 <__scanf_core+0x4a8>
9d00b79c:	24060001 	li	a2,1
9d00b7a0:	27a701b0 	addiu	a3,sp,432
9d00b7a4:	27a6019c 	addiu	a2,sp,412
9d00b7a8:	27a50018 	addiu	a1,sp,24
9d00b7ac:	0f404f81 	jal	9d013e04 <__scan_a>
9d00b7b0:	02002025 	move	a0,s0
9d00b7b4:	0442ffcf 	bltzl	v0,9d00b6f4 <__scanf_core+0x284>
9d00b7b8:	00408825 	move	s1,v0
9d00b7bc:	8fa201b4 	lw	v0,436(sp)
9d00b7c0:	24420001 	addiu	v0,v0,1
9d00b7c4:	1620006b 	bnez	s1,9d00b974 <__scanf_core+0x504>
9d00b7c8:	afa201b4 	sw	v0,436(sp)
9d00b7cc:	02403825 	move	a3,s2
9d00b7d0:	1000ffc3 	b	9d00b6e0 <__scanf_core+0x270>
9d00b7d4:	00003025 	move	a2,zero
9d00b7d8:	27a701b0 	addiu	a3,sp,432
9d00b7dc:	27a6019c 	addiu	a2,sp,412
9d00b7e0:	27a50018 	addiu	a1,sp,24
9d00b7e4:	0f404f81 	jal	9d013e04 <__scan_a>
9d00b7e8:	02002025 	move	a0,s0
9d00b7ec:	1000fff1 	b	9d00b7b4 <__scanf_core+0x344>
9d00b7f0:	00000000 	nop
9d00b7f4:	27a701b0 	addiu	a3,sp,432
9d00b7f8:	27a6019c 	addiu	a2,sp,412
9d00b7fc:	27a50018 	addiu	a1,sp,24
9d00b800:	0f404f81 	jal	9d013e04 <__scan_a>
9d00b804:	02002025 	move	a0,s0
9d00b808:	1000ffea 	b	9d00b7b4 <__scanf_core+0x344>
9d00b80c:	00000000 	nop
9d00b810:	27a701b0 	addiu	a3,sp,432
9d00b814:	27a6019c 	addiu	a2,sp,412
9d00b818:	27a50018 	addiu	a1,sp,24
9d00b81c:	0f404f81 	jal	9d013e04 <__scan_a>
9d00b820:	02002025 	move	a0,s0
9d00b824:	0442ffb3 	bltzl	v0,9d00b6f4 <__scanf_core+0x284>
9d00b828:	00408825 	move	s1,v0
9d00b82c:	8fa201b4 	lw	v0,436(sp)
9d00b830:	24420001 	addiu	v0,v0,1
9d00b834:	1620004f 	bnez	s1,9d00b974 <__scanf_core+0x504>
9d00b838:	afa201b4 	sw	v0,436(sp)
9d00b83c:	02403825 	move	a3,s2
9d00b840:	00003025 	move	a2,zero
9d00b844:	1000ffa7 	b	9d00b6e4 <__scanf_core+0x274>
9d00b848:	240500f0 	li	a1,240
9d00b84c:	8fa201b4 	lw	v0,436(sp)
9d00b850:	24420001 	addiu	v0,v0,1
9d00b854:	afa201b4 	sw	v0,436(sp)
9d00b858:	8fa201b0 	lw	v0,432(sp)
9d00b85c:	afa20018 	sw	v0,24(sp)
9d00b860:	000217c3 	sra	v0,v0,0x1f
9d00b864:	16200043 	bnez	s1,9d00b974 <__scanf_core+0x504>
9d00b868:	afa2001c 	sw	v0,28(sp)
9d00b86c:	02403825 	move	a3,s2
9d00b870:	00003025 	move	a2,zero
9d00b874:	02802825 	move	a1,s4
9d00b878:	0f40408c 	jal	9d010230 <__push_int>
9d00b87c:	27a40018 	addiu	a0,sp,24
9d00b880:	1000ff0b 	b	9d00b4b0 <__scanf_core+0x40>
9d00b884:	02b1a821 	addu	s5,s5,s1
9d00b888:	27a701b0 	addiu	a3,sp,432
9d00b88c:	27a6019c 	addiu	a2,sp,412
9d00b890:	27a50018 	addiu	a1,sp,24
9d00b894:	0f403788 	jal	9d00de20 <__scan_fp>
9d00b898:	02002025 	move	a0,s0
9d00b89c:	0442ff95 	bltzl	v0,9d00b6f4 <__scanf_core+0x284>
9d00b8a0:	00408825 	move	s1,v0
9d00b8a4:	8fa201b4 	lw	v0,436(sp)
9d00b8a8:	24420001 	addiu	v0,v0,1
9d00b8ac:	16200031 	bnez	s1,9d00b974 <__scanf_core+0x504>
9d00b8b0:	afa201b4 	sw	v0,436(sp)
9d00b8b4:	02403025 	move	a2,s2
9d00b8b8:	02802825 	move	a1,s4
9d00b8bc:	0f4047af 	jal	9d011ebc <__push_float>
9d00b8c0:	27a40018 	addiu	a0,sp,24
9d00b8c4:	1000ff89 	b	9d00b6ec <__scanf_core+0x27c>
9d00b8c8:	00000000 	nop
9d00b8cc:	24020080 	li	v0,128
9d00b8d0:	1682ff3a 	bne	s4,v0,9d00b5bc <__scanf_core+0x14c>
9d00b8d4:	8fa201a4 	lw	v0,420(sp)
9d00b8d8:	54400004 	bnezl	v0,9d00b8ec <__scanf_core+0x47c>
9d00b8dc:	8fa201b4 	lw	v0,436(sp)
9d00b8e0:	24020001 	li	v0,1
9d00b8e4:	afa201a4 	sw	v0,420(sp)
9d00b8e8:	8fa201b4 	lw	v0,436(sp)
9d00b8ec:	24420001 	addiu	v0,v0,1
9d00b8f0:	afa201b4 	sw	v0,436(sp)
9d00b8f4:	16200005 	bnez	s1,9d00b90c <__scanf_core+0x49c>
9d00b8f8:	00001025 	move	v0,zero
9d00b8fc:	8e420000 	lw	v0,0(s2)
9d00b900:	24430004 	addiu	v1,v0,4
9d00b904:	ae430000 	sw	v1,0(s2)
9d00b908:	8c420000 	lw	v0,0(v0)
9d00b90c:	afa20010 	sw	v0,16(sp)
9d00b910:	27a701b0 	addiu	a3,sp,432
9d00b914:	00003025 	move	a2,zero
9d00b918:	27a5019c 	addiu	a1,sp,412
9d00b91c:	0f404f83 	jal	9d013e0c <__scan_s>
9d00b920:	02002025 	move	a0,s0
9d00b924:	1000ff71 	b	9d00b6ec <__scanf_core+0x27c>
9d00b928:	00000000 	nop
9d00b92c:	24020080 	li	v0,128
9d00b930:	1682ff23 	bne	s4,v0,9d00b5c0 <__scanf_core+0x150>
9d00b934:	8fa201b4 	lw	v0,436(sp)
9d00b938:	24630001 	addiu	v1,v1,1
9d00b93c:	afa301b4 	sw	v1,436(sp)
9d00b940:	8e02003c 	lw	v0,60(s0)
9d00b944:	8e03004c 	lw	v1,76(s0)
9d00b948:	0043182b 	sltu	v1,v0,v1
9d00b94c:	1060000b 	beqz	v1,9d00b97c <__scanf_core+0x50c>
9d00b950:	00000000 	nop
9d00b954:	24430001 	addiu	v1,v0,1
9d00b958:	ae03003c 	sw	v1,60(s0)
9d00b95c:	90420000 	lbu	v0,0(v0)
9d00b960:	24030025 	li	v1,37
9d00b964:	14430009 	bne	v0,v1,9d00b98c <__scanf_core+0x51c>
9d00b968:	8fa201b0 	lw	v0,432(sp)
9d00b96c:	24420001 	addiu	v0,v0,1
9d00b970:	afa201b0 	sw	v0,432(sp)
9d00b974:	1000ffc2 	b	9d00b880 <__scanf_core+0x410>
9d00b978:	00008825 	move	s1,zero
9d00b97c:	0f4046ff 	jal	9d011bfc <__shgetc>
9d00b980:	02002025 	move	a0,s0
9d00b984:	1000fff7 	b	9d00b964 <__scanf_core+0x4f4>
9d00b988:	24030025 	li	v1,37
9d00b98c:	8e02004c 	lw	v0,76(s0)
9d00b990:	5040ffbb 	beqzl	v0,9d00b880 <__scanf_core+0x410>
9d00b994:	00008825 	move	s1,zero
9d00b998:	8e02003c 	lw	v0,60(s0)
9d00b99c:	2442ffff 	addiu	v0,v0,-1
9d00b9a0:	1000fff4 	b	9d00b974 <__scanf_core+0x504>
9d00b9a4:	ae02003c 	sw	v0,60(s0)
9d00b9a8:	1682ff05 	bne	s4,v0,9d00b5c0 <__scanf_core+0x150>
9d00b9ac:	8fa201b4 	lw	v0,436(sp)
9d00b9b0:	16200005 	bnez	s1,9d00b9c8 <__scanf_core+0x558>
9d00b9b4:	0000a025 	move	s4,zero
9d00b9b8:	8e420000 	lw	v0,0(s2)
9d00b9bc:	24440004 	addiu	a0,v0,4
9d00b9c0:	ae440000 	sw	a0,0(s2)
9d00b9c4:	8c540000 	lw	s4,0(v0)
9d00b9c8:	24620001 	addiu	v0,v1,1
9d00b9cc:	afa201b4 	sw	v0,436(sp)
9d00b9d0:	80640001 	lb	a0,1(v1)
9d00b9d4:	2402005e 	li	v0,94
9d00b9d8:	14820004 	bne	a0,v0,9d00b9ec <__scanf_core+0x57c>
9d00b9dc:	00008825 	move	s1,zero
9d00b9e0:	24630002 	addiu	v1,v1,2
9d00b9e4:	afa301b4 	sw	v1,436(sp)
9d00b9e8:	24110001 	li	s1,1
9d00b9ec:	27a40018 	addiu	a0,sp,24
9d00b9f0:	24060101 	li	a2,257
9d00b9f4:	0f404e86 	jal	9d013a18 <memset>
9d00b9f8:	02202825 	move	a1,s1
9d00b9fc:	8fa201b4 	lw	v0,436(sp)
9d00ba00:	a3a00018 	sb	zero,24(sp)
9d00ba04:	2404002d 	li	a0,45
9d00ba08:	80430000 	lb	v1,0(v0)
9d00ba0c:	1464001e 	bne	v1,a0,9d00ba88 <__scanf_core+0x618>
9d00ba10:	2404005d 	li	a0,93
9d00ba14:	24420001 	addiu	v0,v0,1
9d00ba18:	afa201b4 	sw	v0,436(sp)
9d00ba1c:	24020001 	li	v0,1
9d00ba20:	00511023 	subu	v0,v0,s1
9d00ba24:	a3a20046 	sb	v0,70(sp)
9d00ba28:	24020001 	li	v0,1
9d00ba2c:	2405005d 	li	a1,93
9d00ba30:	2406002d 	li	a2,45
9d00ba34:	00518823 	subu	s1,v0,s1
9d00ba38:	8fa301b4 	lw	v1,436(sp)
9d00ba3c:	80620000 	lb	v0,0(v1)
9d00ba40:	14450018 	bne	v0,a1,9d00baa4 <__scanf_core+0x634>
9d00ba44:	00000000 	nop
9d00ba48:	56800037 	bnezl	s4,9d00bb28 <__scanf_core+0x6b8>
9d00ba4c:	00008825 	move	s1,zero
9d00ba50:	8e02003c 	lw	v0,60(s0)
9d00ba54:	8e03004c 	lw	v1,76(s0)
9d00ba58:	0043182b 	sltu	v1,v0,v1
9d00ba5c:	10600056 	beqz	v1,9d00bbb8 <__scanf_core+0x748>
9d00ba60:	24430001 	addiu	v1,v0,1
9d00ba64:	ae03003c 	sw	v1,60(s0)
9d00ba68:	90530000 	lbu	s3,0(v0)
9d00ba6c:	27a20018 	addiu	v0,sp,24
9d00ba70:	00531021 	addu	v0,v0,s3
9d00ba74:	90420001 	lbu	v0,1(v0)
9d00ba78:	1440004b 	bnez	v0,9d00bba8 <__scanf_core+0x738>
9d00ba7c:	0000b825 	move	s7,zero
9d00ba80:	10000037 	b	9d00bb60 <__scanf_core+0x6f0>
9d00ba84:	8e02004c 	lw	v0,76(s0)
9d00ba88:	1464ffe7 	bne	v1,a0,9d00ba28 <__scanf_core+0x5b8>
9d00ba8c:	24420001 	addiu	v0,v0,1
9d00ba90:	afa201b4 	sw	v0,436(sp)
9d00ba94:	24020001 	li	v0,1
9d00ba98:	00511023 	subu	v0,v0,s1
9d00ba9c:	1000ffe2 	b	9d00ba28 <__scanf_core+0x5b8>
9d00baa0:	a3a20076 	sb	v0,118(sp)
9d00baa4:	1040ffe8 	beqz	v0,9d00ba48 <__scanf_core+0x5d8>
9d00baa8:	00000000 	nop
9d00baac:	10460009 	beq	v0,a2,9d00bad4 <__scanf_core+0x664>
9d00bab0:	8fa201b8 	lw	v0,440(sp)
9d00bab4:	8fa201b4 	lw	v0,436(sp)
9d00bab8:	27a40018 	addiu	a0,sp,24
9d00babc:	80430000 	lb	v1,0(v0)
9d00bac0:	24420001 	addiu	v0,v0,1
9d00bac4:	afa201b4 	sw	v0,436(sp)
9d00bac8:	00831821 	addu	v1,a0,v1
9d00bacc:	1000ffda 	b	9d00ba38 <__scanf_core+0x5c8>
9d00bad0:	a0710001 	sb	s1,1(v1)
9d00bad4:	80420000 	lb	v0,0(v0)
9d00bad8:	5040fff7 	beqzl	v0,9d00bab8 <__scanf_core+0x648>
9d00badc:	8fa201b4 	lw	v0,436(sp)
9d00bae0:	1045fff4 	beq	v0,a1,9d00bab4 <__scanf_core+0x644>
9d00bae4:	24620001 	addiu	v0,v1,1
9d00bae8:	afa201b4 	sw	v0,436(sp)
9d00baec:	8fa201b0 	lw	v0,432(sp)
9d00baf0:	80420000 	lb	v0,0(v0)
9d00baf4:	80640001 	lb	a0,1(v1)
9d00baf8:	0044202a 	slt	a0,v0,a0
9d00bafc:	1080ffed 	beqz	a0,9d00bab4 <__scanf_core+0x644>
9d00bb00:	24420001 	addiu	v0,v0,1
9d00bb04:	27a40018 	addiu	a0,sp,24
9d00bb08:	00822021 	addu	a0,a0,v0
9d00bb0c:	1000fff9 	b	9d00baf4 <__scanf_core+0x684>
9d00bb10:	a0910000 	sb	s1,0(a0)
9d00bb14:	a0530000 	sb	s3,0(v0)
9d00bb18:	8fa201b0 	lw	v0,432(sp)
9d00bb1c:	26310001 	addiu	s1,s1,1
9d00bb20:	24420001 	addiu	v0,v0,1
9d00bb24:	afa201b0 	sw	v0,432(sp)
9d00bb28:	8e02003c 	lw	v0,60(s0)
9d00bb2c:	8e03004c 	lw	v1,76(s0)
9d00bb30:	0043182b 	sltu	v1,v0,v1
9d00bb34:	10600018 	beqz	v1,9d00bb98 <__scanf_core+0x728>
9d00bb38:	0220b825 	move	s7,s1
9d00bb3c:	24430001 	addiu	v1,v0,1
9d00bb40:	ae03003c 	sw	v1,60(s0)
9d00bb44:	90530000 	lbu	s3,0(v0)
9d00bb48:	27a20018 	addiu	v0,sp,24
9d00bb4c:	00531021 	addu	v0,v0,s3
9d00bb50:	90420001 	lbu	v0,1(v0)
9d00bb54:	1440ffef 	bnez	v0,9d00bb14 <__scanf_core+0x6a4>
9d00bb58:	02911021 	addu	v0,s4,s1
9d00bb5c:	8e02004c 	lw	v0,76(s0)
9d00bb60:	10400005 	beqz	v0,9d00bb78 <__scanf_core+0x708>
9d00bb64:	8fa201b4 	lw	v0,436(sp)
9d00bb68:	8e02003c 	lw	v0,60(s0)
9d00bb6c:	2442ffff 	addiu	v0,v0,-1
9d00bb70:	ae02003c 	sw	v0,60(s0)
9d00bb74:	8fa201b4 	lw	v0,436(sp)
9d00bb78:	24420001 	addiu	v0,v0,1
9d00bb7c:	12e0fe8f 	beqz	s7,9d00b5bc <__scanf_core+0x14c>
9d00bb80:	afa201b4 	sw	v0,436(sp)
9d00bb84:	1280fe8d 	beqz	s4,9d00b5bc <__scanf_core+0x14c>
9d00bb88:	24110001 	li	s1,1
9d00bb8c:	0297a021 	addu	s4,s4,s7
9d00bb90:	1000ff3b 	b	9d00b880 <__scanf_core+0x410>
9d00bb94:	a2800000 	sb	zero,0(s4)
9d00bb98:	0f4046ff 	jal	9d011bfc <__shgetc>
9d00bb9c:	02002025 	move	a0,s0
9d00bba0:	1000ffe9 	b	9d00bb48 <__scanf_core+0x6d8>
9d00bba4:	00409825 	move	s3,v0
9d00bba8:	8fa201b0 	lw	v0,432(sp)
9d00bbac:	24420001 	addiu	v0,v0,1
9d00bbb0:	1000ffa7 	b	9d00ba50 <__scanf_core+0x5e0>
9d00bbb4:	afa201b0 	sw	v0,432(sp)
9d00bbb8:	0f4046ff 	jal	9d011bfc <__shgetc>
9d00bbbc:	02002025 	move	a0,s0
9d00bbc0:	1000ffaa 	b	9d00ba6c <__scanf_core+0x5fc>
9d00bbc4:	00409825 	move	s3,v0

Disassembly of section .text.__intscan:

9d00bbc8 <__intscan>:
9d00bbc8:	27bdffb8 	addiu	sp,sp,-72
9d00bbcc:	8fa2005c 	lw	v0,92(sp)
9d00bbd0:	afb20028 	sw	s2,40(sp)
9d00bbd4:	afbf0044 	sw	ra,68(sp)
9d00bbd8:	afa20010 	sw	v0,16(sp)
9d00bbdc:	2ca20025 	sltiu	v0,a1,37
9d00bbe0:	afbe0040 	sw	s8,64(sp)
9d00bbe4:	afb7003c 	sw	s7,60(sp)
9d00bbe8:	afb60038 	sw	s6,56(sp)
9d00bbec:	afb50034 	sw	s5,52(sp)
9d00bbf0:	afb40030 	sw	s4,48(sp)
9d00bbf4:	afb3002c 	sw	s3,44(sp)
9d00bbf8:	afb10024 	sw	s1,36(sp)
9d00bbfc:	afb00020 	sw	s0,32(sp)
9d00bc00:	10400006 	beqz	v0,9d00bc1c <__intscan+0x54>
9d00bc04:	8fb20058 	lw	s2,88(sp)
9d00bc08:	24020001 	li	v0,1
9d00bc0c:	00808025 	move	s0,a0
9d00bc10:	00a08825 	move	s1,a1
9d00bc14:	14a20005 	bne	a1,v0,9d00bc2c <__intscan+0x64>
9d00bc18:	00c09825 	move	s3,a2
9d00bc1c:	3c02a000 	lui	v0,0xa000
9d00bc20:	24030016 	li	v1,22
9d00bc24:	1000005a 	b	9d00bd90 <__intscan+0x1c8>
9d00bc28:	ac433080 	sw	v1,12416(v0)
9d00bc2c:	8e02003c 	lw	v0,60(s0)
9d00bc30:	8e03004c 	lw	v1,76(s0)
9d00bc34:	0043182b 	sltu	v1,v0,v1
9d00bc38:	1060002b 	beqz	v1,9d00bce8 <__intscan+0x120>
9d00bc3c:	24430001 	addiu	v1,v0,1
9d00bc40:	ae03003c 	sw	v1,60(s0)
9d00bc44:	90490000 	lbu	t1,0(v0)
9d00bc48:	24020020 	li	v0,32
9d00bc4c:	1122fff7 	beq	t1,v0,9d00bc2c <__intscan+0x64>
9d00bc50:	2522fff7 	addiu	v0,t1,-9
9d00bc54:	2c420005 	sltiu	v0,v0,5
9d00bc58:	1440fff4 	bnez	v0,9d00bc2c <__intscan+0x64>
9d00bc5c:	2522ffd5 	addiu	v0,t1,-43
9d00bc60:	7c020844 	ins	v0,zero,0x1,0x1
9d00bc64:	1440000b 	bnez	v0,9d00bc94 <__intscan+0xcc>
9d00bc68:	0000a025 	move	s4,zero
9d00bc6c:	8e02003c 	lw	v0,60(s0)
9d00bc70:	8e03004c 	lw	v1,76(s0)
9d00bc74:	3934002d 	xori	s4,t1,0x2d
9d00bc78:	2e940001 	sltiu	s4,s4,1
9d00bc7c:	0043182b 	sltu	v1,v0,v1
9d00bc80:	1060001d 	beqz	v1,9d00bcf8 <__intscan+0x130>
9d00bc84:	0014a023 	negu	s4,s4
9d00bc88:	24430001 	addiu	v1,v0,1
9d00bc8c:	ae03003c 	sw	v1,60(s0)
9d00bc90:	90490000 	lbu	t1,0(v0)
9d00bc94:	1220001c 	beqz	s1,9d00bd08 <__intscan+0x140>
9d00bc98:	8e03004c 	lw	v1,76(s0)
9d00bc9c:	24020010 	li	v0,16
9d00bca0:	12220185 	beq	s1,v0,9d00c2b8 <__intscan+0x6f0>
9d00bca4:	24020030 	li	v0,48
9d00bca8:	3c029d01 	lui	v0,0x9d01
9d00bcac:	24421171 	addiu	v0,v0,4465
9d00bcb0:	01221021 	addu	v0,t1,v0
9d00bcb4:	90420000 	lbu	v0,0(v0)
9d00bcb8:	0051102b 	sltu	v0,v0,s1
9d00bcbc:	14400055 	bnez	v0,9d00be14 <__intscan+0x24c>
9d00bcc0:	2402000a 	li	v0,10
9d00bcc4:	10600004 	beqz	v1,9d00bcd8 <__intscan+0x110>
9d00bcc8:	00002825 	move	a1,zero
9d00bccc:	8e02003c 	lw	v0,60(s0)
9d00bcd0:	2442ffff 	addiu	v0,v0,-1
9d00bcd4:	ae02003c 	sw	v0,60(s0)
9d00bcd8:	0f404e1c 	jal	9d013870 <__shlim>
9d00bcdc:	02002025 	move	a0,s0
9d00bce0:	1000ffcf 	b	9d00bc20 <__intscan+0x58>
9d00bce4:	3c02a000 	lui	v0,0xa000
9d00bce8:	0f4046ff 	jal	9d011bfc <__shgetc>
9d00bcec:	02002025 	move	a0,s0
9d00bcf0:	1000ffd5 	b	9d00bc48 <__intscan+0x80>
9d00bcf4:	00404825 	move	t1,v0
9d00bcf8:	0f4046ff 	jal	9d011bfc <__shgetc>
9d00bcfc:	02002025 	move	a0,s0
9d00bd00:	1000ffe4 	b	9d00bc94 <__intscan+0xcc>
9d00bd04:	00404825 	move	t1,v0
9d00bd08:	24020030 	li	v0,48
9d00bd0c:	5522ffe6 	bnel	t1,v0,9d00bca8 <__intscan+0xe0>
9d00bd10:	2411000a 	li	s1,10
9d00bd14:	8e02003c 	lw	v0,60(s0)
9d00bd18:	0043182b 	sltu	v1,v0,v1
9d00bd1c:	1060002c 	beqz	v1,9d00bdd0 <__intscan+0x208>
9d00bd20:	24430001 	addiu	v1,v0,1
9d00bd24:	ae03003c 	sw	v1,60(s0)
9d00bd28:	90490000 	lbu	t1,0(v0)
9d00bd2c:	35220020 	ori	v0,t1,0x20
9d00bd30:	24030078 	li	v1,120
9d00bd34:	14430035 	bne	v0,v1,9d00be0c <__intscan+0x244>
9d00bd38:	00000000 	nop
9d00bd3c:	8e02003c 	lw	v0,60(s0)
9d00bd40:	8e03004c 	lw	v1,76(s0)
9d00bd44:	0043182b 	sltu	v1,v0,v1
9d00bd48:	10600025 	beqz	v1,9d00bde0 <__intscan+0x218>
9d00bd4c:	24430001 	addiu	v1,v0,1
9d00bd50:	ae03003c 	sw	v1,60(s0)
9d00bd54:	90490000 	lbu	t1,0(v0)
9d00bd58:	3c029d01 	lui	v0,0x9d01
9d00bd5c:	24421171 	addiu	v0,v0,4465
9d00bd60:	01221021 	addu	v0,t1,v0
9d00bd64:	90420000 	lbu	v0,0(v0)
9d00bd68:	2c420010 	sltiu	v0,v0,16
9d00bd6c:	5440002b 	bnezl	v0,9d00be1c <__intscan+0x254>
9d00bd70:	24110010 	li	s1,16
9d00bd74:	8e02004c 	lw	v0,76(s0)
9d00bd78:	1040014b 	beqz	v0,9d00c2a8 <__intscan+0x6e0>
9d00bd7c:	00003825 	move	a3,zero
9d00bd80:	1260001b 	beqz	s3,9d00bdf0 <__intscan+0x228>
9d00bd84:	8e02003c 	lw	v0,60(s0)
9d00bd88:	2442fffe 	addiu	v0,v0,-2
9d00bd8c:	ae02003c 	sw	v0,60(s0)
9d00bd90:	00003825 	move	a3,zero
9d00bd94:	0000f025 	move	s8,zero
9d00bd98:	8fbf0044 	lw	ra,68(sp)
9d00bd9c:	03c01825 	move	v1,s8
9d00bda0:	00e01025 	move	v0,a3
9d00bda4:	8fbe0040 	lw	s8,64(sp)
9d00bda8:	8fb7003c 	lw	s7,60(sp)
9d00bdac:	8fb60038 	lw	s6,56(sp)
9d00bdb0:	8fb50034 	lw	s5,52(sp)
9d00bdb4:	8fb40030 	lw	s4,48(sp)
9d00bdb8:	8fb3002c 	lw	s3,44(sp)
9d00bdbc:	8fb20028 	lw	s2,40(sp)
9d00bdc0:	8fb10024 	lw	s1,36(sp)
9d00bdc4:	8fb00020 	lw	s0,32(sp)
9d00bdc8:	03e00008 	jr	ra
9d00bdcc:	27bd0048 	addiu	sp,sp,72
9d00bdd0:	0f4046ff 	jal	9d011bfc <__shgetc>
9d00bdd4:	02002025 	move	a0,s0
9d00bdd8:	1000ffd4 	b	9d00bd2c <__intscan+0x164>
9d00bddc:	00404825 	move	t1,v0
9d00bde0:	0f4046ff 	jal	9d011bfc <__shgetc>
9d00bde4:	02002025 	move	a0,s0
9d00bde8:	1000ffdb 	b	9d00bd58 <__intscan+0x190>
9d00bdec:	00404825 	move	t1,v0
9d00bdf0:	2442ffff 	addiu	v0,v0,-1
9d00bdf4:	ae02003c 	sw	v0,60(s0)
9d00bdf8:	00002825 	move	a1,zero
9d00bdfc:	0f404e1c 	jal	9d013870 <__shlim>
9d00be00:	02002025 	move	a0,s0
9d00be04:	1000ffe3 	b	9d00bd94 <__intscan+0x1cc>
9d00be08:	00003825 	move	a3,zero
9d00be0c:	12200083 	beqz	s1,9d00c01c <__intscan+0x454>
9d00be10:	2402000a 	li	v0,10
9d00be14:	1222007a 	beq	s1,v0,9d00c000 <__intscan+0x438>
9d00be18:	3c151999 	lui	s5,0x1999
9d00be1c:	2627ffff 	addiu	a3,s1,-1
9d00be20:	3c139d01 	lui	s3,0x9d01
9d00be24:	00f1a824 	and	s5,a3,s1
9d00be28:	16a000f5 	bnez	s5,9d00c200 <__intscan+0x638>
9d00be2c:	26731171 	addiu	s3,s3,4465
9d00be30:	24020017 	li	v0,23
9d00be34:	72221002 	mul	v0,s1,v0
9d00be38:	3c039d01 	lui	v1,0x9d01
9d00be3c:	24631164 	addiu	v1,v1,4452
9d00be40:	7c421140 	ext	v0,v0,0x5,0x3
9d00be44:	00431021 	addu	v0,v0,v1
9d00be48:	80560000 	lb	s6,0(v0)
9d00be4c:	02691021 	addu	v0,s3,t1
9d00be50:	90570000 	lbu	s7,0(v0)
9d00be54:	02f1102b 	sltu	v0,s7,s1
9d00be58:	10400004 	beqz	v0,9d00be6c <__intscan+0x2a4>
9d00be5c:	3c020800 	lui	v0,0x800
9d00be60:	02a2102b 	sltu	v0,s5,v0
9d00be64:	5440006f 	bnezl	v0,9d00c024 <__intscan+0x45c>
9d00be68:	8e02003c 	lw	v0,60(s0)
9d00be6c:	02c03025 	move	a2,s6
9d00be70:	2404ffff 	li	a0,-1
9d00be74:	2405ffff 	li	a1,-1
9d00be78:	afa9001c 	sw	t1,28(sp)
9d00be7c:	0f404d6d 	jal	9d0135b4 <__lshrdi3>
9d00be80:	afb50018 	sw	s5,24(sp)
9d00be84:	8fa70018 	lw	a3,24(sp)
9d00be88:	8fa9001c 	lw	t1,28(sp)
9d00be8c:	0000f025 	move	s8,zero
9d00be90:	afa20014 	sw	v0,20(sp)
9d00be94:	0060a825 	move	s5,v1
9d00be98:	02691021 	addu	v0,s3,t1
9d00be9c:	90570000 	lbu	s7,0(v0)
9d00bea0:	02f1102b 	sltu	v0,s7,s1
9d00bea4:	1040009e 	beqz	v0,9d00c120 <__intscan+0x558>
9d00bea8:	02be102b 	sltu	v0,s5,s8
9d00beac:	5440009d 	bnezl	v0,9d00c124 <__intscan+0x55c>
9d00beb0:	3c139d01 	lui	s3,0x9d01
9d00beb4:	17d50004 	bne	s8,s5,9d00bec8 <__intscan+0x300>
9d00beb8:	8fa20014 	lw	v0,20(sp)
9d00bebc:	0047102b 	sltu	v0,v0,a3
9d00bec0:	54400098 	bnezl	v0,9d00c124 <__intscan+0x55c>
9d00bec4:	3c139d01 	lui	s3,0x9d01
9d00bec8:	8e02003c 	lw	v0,60(s0)
9d00becc:	8e03004c 	lw	v1,76(s0)
9d00bed0:	0043182b 	sltu	v1,v0,v1
9d00bed4:	10600060 	beqz	v1,9d00c058 <__intscan+0x490>
9d00bed8:	24430001 	addiu	v1,v0,1
9d00bedc:	ae03003c 	sw	v1,60(s0)
9d00bee0:	90490000 	lbu	t1,0(v0)
9d00bee4:	00e02025 	move	a0,a3
9d00bee8:	03c02825 	move	a1,s8
9d00beec:	02c03025 	move	a2,s6
9d00bef0:	0f404d7c 	jal	9d0135f0 <__ashldi3>
9d00bef4:	afa90018 	sw	t1,24(sp)
9d00bef8:	02e23825 	or	a3,s7,v0
9d00befc:	0060f025 	move	s8,v1
9d00bf00:	1000ffe5 	b	9d00be98 <__intscan+0x2d0>
9d00bf04:	8fa90018 	lw	t1,24(sp)
9d00bf08:	8e03004c 	lw	v1,76(s0)
9d00bf0c:	0043182b 	sltu	v1,v0,v1
9d00bf10:	10600036 	beqz	v1,9d00bfec <__intscan+0x424>
9d00bf14:	24430001 	addiu	v1,v0,1
9d00bf18:	ae03003c 	sw	v1,60(s0)
9d00bf1c:	90420000 	lbu	v0,0(v0)
9d00bf20:	2407000a 	li	a3,10
9d00bf24:	72671802 	mul	v1,s3,a3
9d00bf28:	00693821 	addu	a3,v1,t1
9d00bf2c:	24f3ffd0 	addiu	s3,a3,-48
9d00bf30:	00404825 	move	t1,v0
9d00bf34:	2522ffd0 	addiu	v0,t1,-48
9d00bf38:	2c42000a 	sltiu	v0,v0,10
9d00bf3c:	10400003 	beqz	v0,9d00bf4c <__intscan+0x384>
9d00bf40:	0275102b 	sltu	v0,s3,s5
9d00bf44:	5440fff0 	bnezl	v0,9d00bf08 <__intscan+0x340>
9d00bf48:	8e02003c 	lw	v0,60(s0)
9d00bf4c:	3c151999 	lui	s5,0x1999
9d00bf50:	02603825 	move	a3,s3
9d00bf54:	0000f025 	move	s8,zero
9d00bf58:	36b5999a 	ori	s5,s5,0x999a
9d00bf5c:	2533ffd0 	addiu	s3,t1,-48
9d00bf60:	2e62000a 	sltiu	v0,s3,10
9d00bf64:	10400087 	beqz	v0,9d00c184 <__intscan+0x5bc>
9d00bf68:	03d5102b 	sltu	v0,s8,s5
9d00bf6c:	1040006c 	beqz	v0,9d00c120 <__intscan+0x558>
9d00bf70:	26a2ffff 	addiu	v0,s5,-1
9d00bf74:	17c20006 	bne	s8,v0,9d00bf90 <__intscan+0x3c8>
9d00bf78:	2402000a 	li	v0,10
9d00bf7c:	3c029999 	lui	v0,0x9999
9d00bf80:	3442999a 	ori	v0,v0,0x999a
9d00bf84:	00e2102b 	sltu	v0,a3,v0
9d00bf88:	10400065 	beqz	v0,9d00c120 <__intscan+0x558>
9d00bf8c:	2402000a 	li	v0,10
9d00bf90:	00470019 	multu	v0,a3
9d00bf94:	0000b810 	mfhi	s7
9d00bf98:	0000b012 	mflo	s6
9d00bf9c:	705e1802 	mul	v1,v0,s8
9d00bfa0:	0077b821 	addu	s7,v1,s7
9d00bfa4:	2403ffff 	li	v1,-1
9d00bfa8:	16e30004 	bne	s7,v1,9d00bfbc <__intscan+0x3f4>
9d00bfac:	00131027 	nor	v0,zero,s3
9d00bfb0:	0056102b 	sltu	v0,v0,s6
9d00bfb4:	5440005b 	bnezl	v0,9d00c124 <__intscan+0x55c>
9d00bfb8:	3c139d01 	lui	s3,0x9d01
9d00bfbc:	8e02003c 	lw	v0,60(s0)
9d00bfc0:	8e03004c 	lw	v1,76(s0)
9d00bfc4:	0043182b 	sltu	v1,v0,v1
9d00bfc8:	10600010 	beqz	v1,9d00c00c <__intscan+0x444>
9d00bfcc:	00000000 	nop
9d00bfd0:	24430001 	addiu	v1,v0,1
9d00bfd4:	ae03003c 	sw	v1,60(s0)
9d00bfd8:	90490000 	lbu	t1,0(v0)
9d00bfdc:	02763821 	addu	a3,s3,s6
9d00bfe0:	00f6402b 	sltu	t0,a3,s6
9d00bfe4:	1000ffdd 	b	9d00bf5c <__intscan+0x394>
9d00bfe8:	0117f021 	addu	s8,t0,s7
9d00bfec:	02002025 	move	a0,s0
9d00bff0:	0f4046ff 	jal	9d011bfc <__shgetc>
9d00bff4:	afa90014 	sw	t1,20(sp)
9d00bff8:	1000ffc9 	b	9d00bf20 <__intscan+0x358>
9d00bffc:	8fa90014 	lw	t1,20(sp)
9d00c000:	00009825 	move	s3,zero
9d00c004:	1000ffcb 	b	9d00bf34 <__intscan+0x36c>
9d00c008:	36b59999 	ori	s5,s5,0x9999
9d00c00c:	0f4046ff 	jal	9d011bfc <__shgetc>
9d00c010:	02002025 	move	a0,s0
9d00c014:	1000fff1 	b	9d00bfdc <__intscan+0x414>
9d00c018:	00404825 	move	t1,v0
9d00c01c:	1000ff7f 	b	9d00be1c <__intscan+0x254>
9d00c020:	24110008 	li	s1,8
9d00c024:	8e03004c 	lw	v1,76(s0)
9d00c028:	0043182b 	sltu	v1,v0,v1
9d00c02c:	10600006 	beqz	v1,9d00c048 <__intscan+0x480>
9d00c030:	24430001 	addiu	v1,v0,1
9d00c034:	ae03003c 	sw	v1,60(s0)
9d00c038:	90490000 	lbu	t1,0(v0)
9d00c03c:	02d53804 	sllv	a3,s5,s6
9d00c040:	1000ff82 	b	9d00be4c <__intscan+0x284>
9d00c044:	00f7a825 	or	s5,a3,s7
9d00c048:	0f4046ff 	jal	9d011bfc <__shgetc>
9d00c04c:	02002025 	move	a0,s0
9d00c050:	1000fffa 	b	9d00c03c <__intscan+0x474>
9d00c054:	00404825 	move	t1,v0
9d00c058:	02002025 	move	a0,s0
9d00c05c:	0f4046ff 	jal	9d011bfc <__shgetc>
9d00c060:	afa70018 	sw	a3,24(sp)
9d00c064:	00404825 	move	t1,v0
9d00c068:	1000ff9e 	b	9d00bee4 <__intscan+0x31c>
9d00c06c:	8fa70018 	lw	a3,24(sp)
9d00c070:	8e03004c 	lw	v1,76(s0)
9d00c074:	0043182b 	sltu	v1,v0,v1
9d00c078:	1060005d 	beqz	v1,9d00c1f0 <__intscan+0x628>
9d00c07c:	24430001 	addiu	v1,v0,1
9d00c080:	ae03003c 	sw	v1,60(s0)
9d00c084:	90490000 	lbu	t1,0(v0)
9d00c088:	72351002 	mul	v0,s1,s5
9d00c08c:	0056a821 	addu	s5,v0,s6
9d00c090:	02691021 	addu	v0,s3,t1
9d00c094:	90560000 	lbu	s6,0(v0)
9d00c098:	02d1102b 	sltu	v0,s6,s1
9d00c09c:	10400005 	beqz	v0,9d00c0b4 <__intscan+0x4ec>
9d00c0a0:	3c02071c 	lui	v0,0x71c
9d00c0a4:	244271c7 	addiu	v0,v0,29127
9d00c0a8:	02a2102b 	sltu	v0,s5,v0
9d00c0ac:	5440fff0 	bnezl	v0,9d00c070 <__intscan+0x4a8>
9d00c0b0:	8e02003c 	lw	v0,60(s0)
9d00c0b4:	02a03825 	move	a3,s5
9d00c0b8:	0000f025 	move	s8,zero
9d00c0bc:	02691021 	addu	v0,s3,t1
9d00c0c0:	90550000 	lbu	s5,0(v0)
9d00c0c4:	02b1102b 	sltu	v0,s5,s1
9d00c0c8:	10400015 	beqz	v0,9d00c120 <__intscan+0x558>
9d00c0cc:	00f10019 	multu	a3,s1
9d00c0d0:	00002012 	mflo	a0
9d00c0d4:	13c00009 	beqz	s8,9d00c0fc <__intscan+0x534>
9d00c0d8:	00002810 	mfhi	a1
9d00c0dc:	023e0019 	multu	s1,s8
9d00c0e0:	00006012 	mflo	t4
9d00c0e4:	00ac1021 	addu	v0,a1,t4
9d00c0e8:	004c102b 	sltu	v0,v0,t4
9d00c0ec:	00006810 	mfhi	t5
9d00c0f0:	004d1021 	addu	v0,v0,t5
9d00c0f4:	5440000b 	bnezl	v0,9d00c124 <__intscan+0x55c>
9d00c0f8:	3c139d01 	lui	s3,0x9d01
9d00c0fc:	73d11002 	mul	v0,s8,s1
9d00c100:	2403ffff 	li	v1,-1
9d00c104:	0080b025 	move	s6,a0
9d00c108:	0045b821 	addu	s7,v0,a1
9d00c10c:	16e3003e 	bne	s7,v1,9d00c208 <__intscan+0x640>
9d00c110:	00151027 	nor	v0,zero,s5
9d00c114:	0044102b 	sltu	v0,v0,a0
9d00c118:	5040003c 	beqzl	v0,9d00c20c <__intscan+0x644>
9d00c11c:	8e02003c 	lw	v0,60(s0)
9d00c120:	3c139d01 	lui	s3,0x9d01
9d00c124:	26731171 	addiu	s3,s3,4465
9d00c128:	01334821 	addu	t1,t1,s3
9d00c12c:	91220000 	lbu	v0,0(t1)
9d00c130:	0051102b 	sltu	v0,v0,s1
9d00c134:	50400014 	beqzl	v0,9d00c188 <__intscan+0x5c0>
9d00c138:	8e02004c 	lw	v0,76(s0)
9d00c13c:	8e02003c 	lw	v0,60(s0)
9d00c140:	8e03004c 	lw	v1,76(s0)
9d00c144:	0043182b 	sltu	v1,v0,v1
9d00c148:	1060003e 	beqz	v1,9d00c244 <__intscan+0x67c>
9d00c14c:	24430001 	addiu	v1,v0,1
9d00c150:	ae03003c 	sw	v1,60(s0)
9d00c154:	90420000 	lbu	v0,0(v0)
9d00c158:	02621021 	addu	v0,s3,v0
9d00c15c:	90420000 	lbu	v0,0(v0)
9d00c160:	0051102b 	sltu	v0,v0,s1
9d00c164:	1440fff5 	bnez	v0,9d00c13c <__intscan+0x574>
9d00c168:	3c02a000 	lui	v0,0xa000
9d00c16c:	24030022 	li	v1,34
9d00c170:	8fbe0010 	lw	s8,16(sp)
9d00c174:	ac433080 	sw	v1,12416(v0)
9d00c178:	32420001 	andi	v0,s2,0x1
9d00c17c:	02403825 	move	a3,s2
9d00c180:	0002a00b 	movn	s4,zero,v0
9d00c184:	8e02004c 	lw	v0,76(s0)
9d00c188:	10400005 	beqz	v0,9d00c1a0 <__intscan+0x5d8>
9d00c18c:	8fa20010 	lw	v0,16(sp)
9d00c190:	8e02003c 	lw	v0,60(s0)
9d00c194:	2442ffff 	addiu	v0,v0,-1
9d00c198:	ae02003c 	sw	v0,60(s0)
9d00c19c:	8fa20010 	lw	v0,16(sp)
9d00c1a0:	03c2102b 	sltu	v0,s8,v0
9d00c1a4:	14400039 	bnez	v0,9d00c28c <__intscan+0x6c4>
9d00c1a8:	8fa20010 	lw	v0,16(sp)
9d00c1ac:	145e0003 	bne	v0,s8,9d00c1bc <__intscan+0x5f4>
9d00c1b0:	00f2102b 	sltu	v0,a3,s2
9d00c1b4:	14400036 	bnez	v0,9d00c290 <__intscan+0x6c8>
9d00c1b8:	2402ffff 	li	v0,-1
9d00c1bc:	32420001 	andi	v0,s2,0x1
9d00c1c0:	14400025 	bnez	v0,9d00c258 <__intscan+0x690>
9d00c1c4:	8fa20010 	lw	v0,16(sp)
9d00c1c8:	16800022 	bnez	s4,9d00c254 <__intscan+0x68c>
9d00c1cc:	3c02a000 	lui	v0,0xa000
9d00c1d0:	24030022 	li	v1,34
9d00c1d4:	ac433080 	sw	v1,12416(v0)
9d00c1d8:	8fa20010 	lw	v0,16(sp)
9d00c1dc:	2647ffff 	addiu	a3,s2,-1
9d00c1e0:	00f2902b 	sltu	s2,a3,s2
9d00c1e4:	2451ffff 	addiu	s1,v0,-1
9d00c1e8:	1000feeb 	b	9d00bd98 <__intscan+0x1d0>
9d00c1ec:	0251f021 	addu	s8,s2,s1
9d00c1f0:	0f4046ff 	jal	9d011bfc <__shgetc>
9d00c1f4:	02002025 	move	a0,s0
9d00c1f8:	1000ffa3 	b	9d00c088 <__intscan+0x4c0>
9d00c1fc:	00404825 	move	t1,v0
9d00c200:	1000ffa3 	b	9d00c090 <__intscan+0x4c8>
9d00c204:	0000a825 	move	s5,zero
9d00c208:	8e02003c 	lw	v0,60(s0)
9d00c20c:	8e03004c 	lw	v1,76(s0)
9d00c210:	0043182b 	sltu	v1,v0,v1
9d00c214:	10600007 	beqz	v1,9d00c234 <__intscan+0x66c>
9d00c218:	24430001 	addiu	v1,v0,1
9d00c21c:	ae03003c 	sw	v1,60(s0)
9d00c220:	90490000 	lbu	t1,0(v0)
9d00c224:	02b63821 	addu	a3,s5,s6
9d00c228:	00f6402b 	sltu	t0,a3,s6
9d00c22c:	1000ffa3 	b	9d00c0bc <__intscan+0x4f4>
9d00c230:	0117f021 	addu	s8,t0,s7
9d00c234:	0f4046ff 	jal	9d011bfc <__shgetc>
9d00c238:	02002025 	move	a0,s0
9d00c23c:	1000fff9 	b	9d00c224 <__intscan+0x65c>
9d00c240:	00404825 	move	t1,v0
9d00c244:	0f4046ff 	jal	9d011bfc <__shgetc>
9d00c248:	02002025 	move	a0,s0
9d00c24c:	1000ffc3 	b	9d00c15c <__intscan+0x594>
9d00c250:	02621021 	addu	v0,s3,v0
9d00c254:	8fa20010 	lw	v0,16(sp)
9d00c258:	005e102b 	sltu	v0,v0,s8
9d00c25c:	14400005 	bnez	v0,9d00c274 <__intscan+0x6ac>
9d00c260:	8fa20010 	lw	v0,16(sp)
9d00c264:	17c20009 	bne	s8,v0,9d00c28c <__intscan+0x6c4>
9d00c268:	0247102b 	sltu	v0,s2,a3
9d00c26c:	10400008 	beqz	v0,9d00c290 <__intscan+0x6c8>
9d00c270:	2402ffff 	li	v0,-1
9d00c274:	3c02a000 	lui	v0,0xa000
9d00c278:	24030022 	li	v1,34
9d00c27c:	ac433080 	sw	v1,12416(v0)
9d00c280:	02403825 	move	a3,s2
9d00c284:	1000fec4 	b	9d00bd98 <__intscan+0x1d0>
9d00c288:	8fbe0010 	lw	s8,16(sp)
9d00c28c:	2402ffff 	li	v0,-1
9d00c290:	1682fec1 	bne	s4,v0,9d00bd98 <__intscan+0x1d0>
9d00c294:	001e4023 	negu	t0,s8
9d00c298:	00073823 	negu	a3,a3
9d00c29c:	0007102b 	sltu	v0,zero,a3
9d00c2a0:	1000febd 	b	9d00bd98 <__intscan+0x1d0>
9d00c2a4:	0102f023 	subu	s8,t0,v0
9d00c2a8:	1660febb 	bnez	s3,9d00bd98 <__intscan+0x1d0>
9d00c2ac:	0000f025 	move	s8,zero
9d00c2b0:	1000fed2 	b	9d00bdfc <__intscan+0x234>
9d00c2b4:	00002825 	move	a1,zero
9d00c2b8:	1122fe96 	beq	t1,v0,9d00bd14 <__intscan+0x14c>
9d00c2bc:	3c029d01 	lui	v0,0x9d01
9d00c2c0:	1000fe7b 	b	9d00bcb0 <__intscan+0xe8>
9d00c2c4:	24421171 	addiu	v0,v0,4465

Disassembly of section .text.__printf_core:

9d00c2c8 <__printf_core>:
9d00c2c8:	27bdff18 	addiu	sp,sp,-232
9d00c2cc:	afb400dc 	sw	s4,220(sp)
9d00c2d0:	afb300d8 	sw	s3,216(sp)
9d00c2d4:	afb200d4 	sw	s2,212(sp)
9d00c2d8:	afb100d0 	sw	s1,208(sp)
9d00c2dc:	afbf00e4 	sw	ra,228(sp)
9d00c2e0:	afb500e0 	sw	s5,224(sp)
9d00c2e4:	afb000cc 	sw	s0,204(sp)
9d00c2e8:	00809025 	move	s2,a0
9d00c2ec:	00c08825 	move	s1,a2
9d00c2f0:	afa500b8 	sw	a1,184(sp)
9d00c2f4:	00009825 	move	s3,zero
9d00c2f8:	3c149d00 	lui	s4,0x9d00
9d00c2fc:	8fa500b8 	lw	a1,184(sp)
9d00c300:	80a20000 	lb	v0,0(a1)
9d00c304:	104000e4 	beqz	v0,9d00c698 <__printf_core+0x3d0>
9d00c308:	2402ffff 	li	v0,-1
9d00c30c:	afa2009c 	sw	v0,156(sp)
9d00c310:	27a20018 	addiu	v0,sp,24
9d00c314:	afa200a4 	sw	v0,164(sp)
9d00c318:	24020080 	li	v0,128
9d00c31c:	afa00098 	sw	zero,152(sp)
9d00c320:	afa000a0 	sw	zero,160(sp)
9d00c324:	afa200a8 	sw	v0,168(sp)
9d00c328:	00008025 	move	s0,zero
9d00c32c:	24030025 	li	v1,37
9d00c330:	00b01021 	addu	v0,a1,s0
9d00c334:	80420000 	lb	v0,0(v0)
9d00c338:	10400003 	beqz	v0,9d00c348 <__printf_core+0x80>
9d00c33c:	00000000 	nop
9d00c340:	5443fffb 	bnel	v0,v1,9d00c330 <__printf_core+0x68>
9d00c344:	26100001 	addiu	s0,s0,1
9d00c348:	12000006 	beqz	s0,9d00c364 <__printf_core+0x9c>
9d00c34c:	02003025 	move	a2,s0
9d00c350:	0f40493c 	jal	9d0124f0 <__out>
9d00c354:	02402025 	move	a0,s2
9d00c358:	8fa200b8 	lw	v0,184(sp)
9d00c35c:	00501021 	addu	v0,v0,s0
9d00c360:	afa200b8 	sw	v0,184(sp)
9d00c364:	8fb500b8 	lw	s5,184(sp)
9d00c368:	24020025 	li	v0,37
9d00c36c:	82a30000 	lb	v1,0(s5)
9d00c370:	146200c2 	bne	v1,v0,9d00c67c <__printf_core+0x3b4>
9d00c374:	26b50001 	addiu	s5,s5,1
9d00c378:	afb500b8 	sw	s5,184(sp)
9d00c37c:	2405002b 	li	a1,43
9d00c380:	2406002d 	li	a2,45
9d00c384:	24030030 	li	v1,48
9d00c388:	24070020 	li	a3,32
9d00c38c:	24080023 	li	t0,35
9d00c390:	8fa400b8 	lw	a0,184(sp)
9d00c394:	80820000 	lb	v0,0(a0)
9d00c398:	5045001b 	beql	v0,a1,9d00c408 <__printf_core+0x140>
9d00c39c:	8fa20098 	lw	v0,152(sp)
9d00c3a0:	2849002c 	slti	t1,v0,44
9d00c3a4:	1120001e 	beqz	t1,9d00c420 <__printf_core+0x158>
9d00c3a8:	00000000 	nop
9d00c3ac:	50470018 	beql	v0,a3,9d00c410 <__printf_core+0x148>
9d00c3b0:	8fa20098 	lw	v0,152(sp)
9d00c3b4:	50480018 	beql	v0,t0,9d00c418 <__printf_core+0x150>
9d00c3b8:	8fa20098 	lw	v0,152(sp)
9d00c3bc:	2403002a 	li	v1,42
9d00c3c0:	5043001e 	beql	v0,v1,9d00c43c <__printf_core+0x174>
9d00c3c4:	8e220000 	lw	v0,0(s1)
9d00c3c8:	0f404a8d 	jal	9d012a34 <atoi>
9d00c3cc:	00000000 	nop
9d00c3d0:	afa200a0 	sw	v0,160(sp)
9d00c3d4:	8fa300b8 	lw	v1,184(sp)
9d00c3d8:	80620000 	lb	v0,0(v1)
9d00c3dc:	2442ffd0 	addiu	v0,v0,-48
9d00c3e0:	2c42000a 	sltiu	v0,v0,10
9d00c3e4:	10400021 	beqz	v0,9d00c46c <__printf_core+0x1a4>
9d00c3e8:	24630001 	addiu	v1,v1,1
9d00c3ec:	1000fff9 	b	9d00c3d4 <__printf_core+0x10c>
9d00c3f0:	afa300b8 	sw	v1,184(sp)
9d00c3f4:	34420001 	ori	v0,v0,0x1
9d00c3f8:	24840001 	addiu	a0,a0,1
9d00c3fc:	afa20098 	sw	v0,152(sp)
9d00c400:	1000ffe3 	b	9d00c390 <__printf_core+0xc8>
9d00c404:	afa400b8 	sw	a0,184(sp)
9d00c408:	1000fffb 	b	9d00c3f8 <__printf_core+0x130>
9d00c40c:	34420004 	ori	v0,v0,0x4
9d00c410:	1000fff9 	b	9d00c3f8 <__printf_core+0x130>
9d00c414:	34420008 	ori	v0,v0,0x8
9d00c418:	1000fff7 	b	9d00c3f8 <__printf_core+0x130>
9d00c41c:	34420010 	ori	v0,v0,0x10
9d00c420:	5046fff4 	beql	v0,a2,9d00c3f4 <__printf_core+0x12c>
9d00c424:	8fa20098 	lw	v0,152(sp)
9d00c428:	5443ffe5 	bnel	v0,v1,9d00c3c0 <__printf_core+0xf8>
9d00c42c:	2403002a 	li	v1,42
9d00c430:	8fa20098 	lw	v0,152(sp)
9d00c434:	1000fff0 	b	9d00c3f8 <__printf_core+0x130>
9d00c438:	34420002 	ori	v0,v0,0x2
9d00c43c:	24840001 	addiu	a0,a0,1
9d00c440:	afa400b8 	sw	a0,184(sp)
9d00c444:	24430004 	addiu	v1,v0,4
9d00c448:	8c420000 	lw	v0,0(v0)
9d00c44c:	ae230000 	sw	v1,0(s1)
9d00c450:	04410006 	bgez	v0,9d00c46c <__printf_core+0x1a4>
9d00c454:	afa200a0 	sw	v0,160(sp)
9d00c458:	8fa30098 	lw	v1,152(sp)
9d00c45c:	00021023 	negu	v0,v0
9d00c460:	afa200a0 	sw	v0,160(sp)
9d00c464:	38630001 	xori	v1,v1,0x1
9d00c468:	afa30098 	sw	v1,152(sp)
9d00c46c:	8fa20098 	lw	v0,152(sp)
9d00c470:	30430001 	andi	v1,v0,0x1
9d00c474:	10600002 	beqz	v1,9d00c480 <__printf_core+0x1b8>
9d00c478:	7c020844 	ins	v0,zero,0x1,0x1
9d00c47c:	afa20098 	sw	v0,152(sp)
9d00c480:	8fa200b8 	lw	v0,184(sp)
9d00c484:	2403002e 	li	v1,46
9d00c488:	80440000 	lb	a0,0(v0)
9d00c48c:	1483000d 	bne	a0,v1,9d00c4c4 <__printf_core+0x1fc>
9d00c490:	24440001 	addiu	a0,v0,1
9d00c494:	afa0009c 	sw	zero,156(sp)
9d00c498:	afa400b8 	sw	a0,184(sp)
9d00c49c:	80450001 	lb	a1,1(v0)
9d00c4a0:	2403002a 	li	v1,42
9d00c4a4:	14a30023 	bne	a1,v1,9d00c534 <__printf_core+0x26c>
9d00c4a8:	24420002 	addiu	v0,v0,2
9d00c4ac:	afa200b8 	sw	v0,184(sp)
9d00c4b0:	8e220000 	lw	v0,0(s1)
9d00c4b4:	24430004 	addiu	v1,v0,4
9d00c4b8:	8c420000 	lw	v0,0(v0)
9d00c4bc:	ae230000 	sw	v1,0(s1)
9d00c4c0:	afa2009c 	sw	v0,156(sp)
9d00c4c4:	0f404c0c 	jal	9d013030 <__fmt_state>
9d00c4c8:	27a400b8 	addiu	a0,sp,184
9d00c4cc:	afa200c0 	sw	v0,192(sp)
9d00c4d0:	8fa200b8 	lw	v0,184(sp)
9d00c4d4:	0f404ef2 	jal	9d013bc8 <tolower>
9d00c4d8:	80440000 	lb	a0,0(v0)
9d00c4dc:	24030069 	li	v1,105
9d00c4e0:	10430077 	beq	v0,v1,9d00c6c0 <__printf_core+0x3f8>
9d00c4e4:	8fa500c0 	lw	a1,192(sp)
9d00c4e8:	2843006a 	slti	v1,v0,106
9d00c4ec:	1060002f 	beqz	v1,9d00c5ac <__printf_core+0x2e4>
9d00c4f0:	24030063 	li	v1,99
9d00c4f4:	104300be 	beq	v0,v1,9d00c7f0 <__printf_core+0x528>
9d00c4f8:	28430064 	slti	v1,v0,100
9d00c4fc:	10600018 	beqz	v1,9d00c560 <__printf_core+0x298>
9d00c500:	24030025 	li	v1,37
9d00c504:	104300cb 	beq	v0,v1,9d00c834 <__printf_core+0x56c>
9d00c508:	24030061 	li	v1,97
9d00c50c:	5043004f 	beql	v0,v1,9d00c64c <__printf_core+0x384>
9d00c510:	02203025 	move	a2,s1
9d00c514:	2402ffff 	li	v0,-1
9d00c518:	afb500b8 	sw	s5,184(sp)
9d00c51c:	afa00098 	sw	zero,152(sp)
9d00c520:	afa000a0 	sw	zero,160(sp)
9d00c524:	afa2009c 	sw	v0,156(sp)
9d00c528:	afa00010 	sw	zero,16(sp)
9d00c52c:	100000c9 	b	9d00c854 <__printf_core+0x58c>
9d00c530:	00003825 	move	a3,zero
9d00c534:	0f404a8d 	jal	9d012a34 <atoi>
9d00c538:	00000000 	nop
9d00c53c:	afa2009c 	sw	v0,156(sp)
9d00c540:	8fa300b8 	lw	v1,184(sp)
9d00c544:	80620000 	lb	v0,0(v1)
9d00c548:	2442ffd0 	addiu	v0,v0,-48
9d00c54c:	2c42000a 	sltiu	v0,v0,10
9d00c550:	1040ffdc 	beqz	v0,9d00c4c4 <__printf_core+0x1fc>
9d00c554:	24630001 	addiu	v1,v1,1
9d00c558:	1000fff9 	b	9d00c540 <__printf_core+0x278>
9d00c55c:	afa300b8 	sw	v1,184(sp)
9d00c560:	24030064 	li	v1,100
9d00c564:	10430056 	beq	v0,v1,9d00c6c0 <__printf_core+0x3f8>
9d00c568:	28420068 	slti	v0,v0,104
9d00c56c:	1040ffea 	beqz	v0,9d00c518 <__printf_core+0x250>
9d00c570:	2402ffff 	li	v0,-1
9d00c574:	02203025 	move	a2,s1
9d00c578:	0f404c4c 	jal	9d013130 <__pop_float>
9d00c57c:	27a400b0 	addiu	a0,sp,176
9d00c580:	10400097 	beqz	v0,9d00c7e0 <__printf_core+0x518>
9d00c584:	8fa200b8 	lw	v0,184(sp)
9d00c588:	27a600b0 	addiu	a2,sp,176
9d00c58c:	27a50098 	addiu	a1,sp,152
9d00c590:	24430001 	addiu	v1,v0,1
9d00c594:	afa300b8 	sw	v1,184(sp)
9d00c598:	80470000 	lb	a3,0(v0)
9d00c59c:	0f402915 	jal	9d00a454 <__fmt_fp>
9d00c5a0:	02402025 	move	a0,s2
9d00c5a4:	10000035 	b	9d00c67c <__printf_core+0x3b4>
9d00c5a8:	02028021 	addu	s0,s0,v0
9d00c5ac:	24030070 	li	v1,112
9d00c5b0:	1043006e 	beq	v0,v1,9d00c76c <__printf_core+0x4a4>
9d00c5b4:	28430071 	slti	v1,v0,113
9d00c5b8:	10600013 	beqz	v1,9d00c608 <__printf_core+0x340>
9d00c5bc:	2403006e 	li	v1,110
9d00c5c0:	10430083 	beq	v0,v1,9d00c7d0 <__printf_core+0x508>
9d00c5c4:	2403006f 	li	v1,111
9d00c5c8:	1443ffd3 	bne	v0,v1,9d00c518 <__printf_core+0x250>
9d00c5cc:	2402ffff 	li	v0,-1
9d00c5d0:	02203825 	move	a3,s1
9d00c5d4:	00003025 	move	a2,zero
9d00c5d8:	0f403fcc 	jal	9d00ff30 <__pop_int>
9d00c5dc:	27a400b0 	addiu	a0,sp,176
9d00c5e0:	1040007f 	beqz	v0,9d00c7e0 <__printf_core+0x518>
9d00c5e4:	8fa200b8 	lw	v0,184(sp)
9d00c5e8:	27a600b0 	addiu	a2,sp,176
9d00c5ec:	27a50098 	addiu	a1,sp,152
9d00c5f0:	24420001 	addiu	v0,v0,1
9d00c5f4:	02402025 	move	a0,s2
9d00c5f8:	0f404f7b 	jal	9d013dec <__fmt_o>
9d00c5fc:	afa200b8 	sw	v0,184(sp)
9d00c600:	1000001e 	b	9d00c67c <__printf_core+0x3b4>
9d00c604:	02028021 	addu	s0,s0,v0
9d00c608:	24030075 	li	v1,117
9d00c60c:	1043003a 	beq	v0,v1,9d00c6f8 <__printf_core+0x430>
9d00c610:	24030078 	li	v1,120
9d00c614:	10430046 	beq	v0,v1,9d00c730 <__printf_core+0x468>
9d00c618:	24030073 	li	v1,115
9d00c61c:	1443ffbd 	bne	v0,v1,9d00c514 <__printf_core+0x24c>
9d00c620:	24020080 	li	v0,128
9d00c624:	14a2006e 	bne	a1,v0,9d00c7e0 <__printf_core+0x518>
9d00c628:	8fa200b8 	lw	v0,184(sp)
9d00c62c:	00003825 	move	a3,zero
9d00c630:	24420001 	addiu	v0,v0,1
9d00c634:	afa200b8 	sw	v0,184(sp)
9d00c638:	8e220000 	lw	v0,0(s1)
9d00c63c:	24430004 	addiu	v1,v0,4
9d00c640:	ae230000 	sw	v1,0(s1)
9d00c644:	10000076 	b	9d00c820 <__printf_core+0x558>
9d00c648:	8c460000 	lw	a2,0(v0)
9d00c64c:	0f404c4c 	jal	9d013130 <__pop_float>
9d00c650:	27a400b0 	addiu	a0,sp,176
9d00c654:	10400062 	beqz	v0,9d00c7e0 <__printf_core+0x518>
9d00c658:	8fa200b8 	lw	v0,184(sp)
9d00c65c:	27a600b0 	addiu	a2,sp,176
9d00c660:	27a50098 	addiu	a1,sp,152
9d00c664:	24430001 	addiu	v1,v0,1
9d00c668:	afa300b8 	sw	v1,184(sp)
9d00c66c:	80470000 	lb	a3,0(v0)
9d00c670:	0f404f7d 	jal	9d013df4 <__fmt_a>
9d00c674:	02402025 	move	a0,s2
9d00c678:	02028021 	addu	s0,s0,v0
9d00c67c:	02708021 	addu	s0,s3,s0
9d00c680:	0213982a 	slt	s3,s0,s3
9d00c684:	12600077 	beqz	s3,9d00c864 <__printf_core+0x59c>
9d00c688:	3c02a000 	lui	v0,0xa000
9d00c68c:	2403004f 	li	v1,79
9d00c690:	ac433080 	sw	v1,12416(v0)
9d00c694:	2413ffff 	li	s3,-1
9d00c698:	8fbf00e4 	lw	ra,228(sp)
9d00c69c:	02601025 	move	v0,s3
9d00c6a0:	8fb500e0 	lw	s5,224(sp)
9d00c6a4:	8fb400dc 	lw	s4,220(sp)
9d00c6a8:	8fb300d8 	lw	s3,216(sp)
9d00c6ac:	8fb200d4 	lw	s2,212(sp)
9d00c6b0:	8fb100d0 	lw	s1,208(sp)
9d00c6b4:	8fb000cc 	lw	s0,204(sp)
9d00c6b8:	03e00008 	jr	ra
9d00c6bc:	27bd00e8 	addiu	sp,sp,232
9d00c6c0:	02203825 	move	a3,s1
9d00c6c4:	24060001 	li	a2,1
9d00c6c8:	0f403fcc 	jal	9d00ff30 <__pop_int>
9d00c6cc:	27a400b0 	addiu	a0,sp,176
9d00c6d0:	10400043 	beqz	v0,9d00c7e0 <__printf_core+0x518>
9d00c6d4:	8fa200b8 	lw	v0,184(sp)
9d00c6d8:	27a600b0 	addiu	a2,sp,176
9d00c6dc:	27a50098 	addiu	a1,sp,152
9d00c6e0:	24420001 	addiu	v0,v0,1
9d00c6e4:	02402025 	move	a0,s2
9d00c6e8:	0f4041f2 	jal	9d0107c8 <__fmt_d>
9d00c6ec:	afa200b8 	sw	v0,184(sp)
9d00c6f0:	1000ffe2 	b	9d00c67c <__printf_core+0x3b4>
9d00c6f4:	02028021 	addu	s0,s0,v0
9d00c6f8:	02203825 	move	a3,s1
9d00c6fc:	00003025 	move	a2,zero
9d00c700:	0f403fcc 	jal	9d00ff30 <__pop_int>
9d00c704:	27a400b0 	addiu	a0,sp,176
9d00c708:	10400035 	beqz	v0,9d00c7e0 <__printf_core+0x518>
9d00c70c:	8fa200b8 	lw	v0,184(sp)
9d00c710:	27a600b0 	addiu	a2,sp,176
9d00c714:	27a50098 	addiu	a1,sp,152
9d00c718:	24420001 	addiu	v0,v0,1
9d00c71c:	02402025 	move	a0,s2
9d00c720:	0f404f7b 	jal	9d013dec <__fmt_o>
9d00c724:	afa200b8 	sw	v0,184(sp)
9d00c728:	1000ffd4 	b	9d00c67c <__printf_core+0x3b4>
9d00c72c:	02028021 	addu	s0,s0,v0
9d00c730:	02203825 	move	a3,s1
9d00c734:	00003025 	move	a2,zero
9d00c738:	0f403fcc 	jal	9d00ff30 <__pop_int>
9d00c73c:	27a400b0 	addiu	a0,sp,176
9d00c740:	10400027 	beqz	v0,9d00c7e0 <__printf_core+0x518>
9d00c744:	8fa200b8 	lw	v0,184(sp)
9d00c748:	24430001 	addiu	v1,v0,1
9d00c74c:	afa300b8 	sw	v1,184(sp)
9d00c750:	80470000 	lb	a3,0(v0)
9d00c754:	27a600b0 	addiu	a2,sp,176
9d00c758:	27a50098 	addiu	a1,sp,152
9d00c75c:	0f404f7d 	jal	9d013df4 <__fmt_a>
9d00c760:	02402025 	move	a0,s2
9d00c764:	1000ffc5 	b	9d00c67c <__printf_core+0x3b4>
9d00c768:	02028021 	addu	s0,s0,v0
9d00c76c:	02203825 	move	a3,s1
9d00c770:	00003025 	move	a2,zero
9d00c774:	240500f0 	li	a1,240
9d00c778:	0f403fcc 	jal	9d00ff30 <__pop_int>
9d00c77c:	27a400b0 	addiu	a0,sp,176
9d00c780:	10400017 	beqz	v0,9d00c7e0 <__printf_core+0x518>
9d00c784:	8fa200b8 	lw	v0,184(sp)
9d00c788:	8fa300b4 	lw	v1,180(sp)
9d00c78c:	24420001 	addiu	v0,v0,1
9d00c790:	afa200b8 	sw	v0,184(sp)
9d00c794:	8fa200b0 	lw	v0,176(sp)
9d00c798:	00431025 	or	v0,v0,v1
9d00c79c:	1440ffed 	bnez	v0,9d00c754 <__printf_core+0x48c>
9d00c7a0:	24070078 	li	a3,120
9d00c7a4:	0f404dce 	jal	9d013738 <strlen>
9d00c7a8:	268475b0 	addiu	a0,s4,30128
9d00c7ac:	8fa30098 	lw	v1,152(sp)
9d00c7b0:	8fa700a0 	lw	a3,160(sp)
9d00c7b4:	00403025 	move	a2,v0
9d00c7b8:	afa30010 	sw	v1,16(sp)
9d00c7bc:	268575b0 	addiu	a1,s4,30128
9d00c7c0:	0f4044df 	jal	9d01137c <__pad>
9d00c7c4:	02402025 	move	a0,s2
9d00c7c8:	1000ffac 	b	9d00c67c <__printf_core+0x3b4>
9d00c7cc:	02028021 	addu	s0,s0,v0
9d00c7d0:	02203825 	move	a3,s1
9d00c7d4:	02703021 	addu	a2,s3,s0
9d00c7d8:	0f40459b 	jal	9d01166c <__pop_ptr>
9d00c7dc:	27a400b0 	addiu	a0,sp,176
9d00c7e0:	8fa200b8 	lw	v0,184(sp)
9d00c7e4:	24420001 	addiu	v0,v0,1
9d00c7e8:	1000ffa4 	b	9d00c67c <__printf_core+0x3b4>
9d00c7ec:	afa200b8 	sw	v0,184(sp)
9d00c7f0:	24020080 	li	v0,128
9d00c7f4:	14a2fffa 	bne	a1,v0,9d00c7e0 <__printf_core+0x518>
9d00c7f8:	8fa200b8 	lw	v0,184(sp)
9d00c7fc:	24070001 	li	a3,1
9d00c800:	27a600b0 	addiu	a2,sp,176
9d00c804:	24420001 	addiu	v0,v0,1
9d00c808:	afa200b8 	sw	v0,184(sp)
9d00c80c:	8e220000 	lw	v0,0(s1)
9d00c810:	24430004 	addiu	v1,v0,4
9d00c814:	8c420000 	lw	v0,0(v0)
9d00c818:	ae230000 	sw	v1,0(s1)
9d00c81c:	a3a200b0 	sb	v0,176(sp)
9d00c820:	27a50098 	addiu	a1,sp,152
9d00c824:	0f404803 	jal	9d01200c <__fmt_s>
9d00c828:	02402025 	move	a0,s2
9d00c82c:	1000ff93 	b	9d00c67c <__printf_core+0x3b4>
9d00c830:	02028021 	addu	s0,s0,v0
9d00c834:	24020080 	li	v0,128
9d00c838:	14a2ffe9 	bne	a1,v0,9d00c7e0 <__printf_core+0x518>
9d00c83c:	8fa200b8 	lw	v0,184(sp)
9d00c840:	8fa700a0 	lw	a3,160(sp)
9d00c844:	24420001 	addiu	v0,v0,1
9d00c848:	afa200b8 	sw	v0,184(sp)
9d00c84c:	8fa20098 	lw	v0,152(sp)
9d00c850:	afa20010 	sw	v0,16(sp)
9d00c854:	3c059d00 	lui	a1,0x9d00
9d00c858:	24060001 	li	a2,1
9d00c85c:	1000ffd8 	b	9d00c7c0 <__printf_core+0x4f8>
9d00c860:	24a575b8 	addiu	a1,a1,30136
9d00c864:	1000fea5 	b	9d00c2fc <__printf_core+0x34>
9d00c868:	02009825 	move	s3,s0

Disassembly of section .text.dp32mul:

9d00c86c <__divdf3>:
9d00c86c:	00055040 000a5542 00054ac0 00047d42     @P..BU...J..B}..
9d00c87c:	012f4825 000442c0 3c0e8000 012e4825     %H/..B.....<%H..
9d00c88c:	00076840 000d6d42 000762c0 00067d42     @h..Bm...b..B}..
9d00c89c:	018f6025 00065ac0 018e6025 00a72826     %`...Z..%`..&(..
9d00c8ac:	00ae2824 254fffff 2de107fe 102000cb     $(....O%...-.. .
9d00c8bc:	00000000                                ....

9d00c8c0 <Dlab1>:
9d00c8c0:	25afffff 	addiu	t7,t5,-1
9d00c8c4:	2de107fe 	sltiu	at,t7,2046
9d00c8c8:	102000f4 	beqz	at,9d00cc9c <DspecB>
9d00c8cc:	00000000 	nop

9d00c8d0 <Dlab2>:
9d00c8d0:	014d5023 	subu	t2,t2,t5
9d00c8d4:	254a03ff 	addiu	t2,t2,1023
9d00c8d8:	00084042 	srl	t0,t0,0x1
9d00c8dc:	00097fc0 	sll	t7,t1,0x1f
9d00c8e0:	010f4025 	or	t0,t0,t7
9d00c8e4:	00094842 	srl	t1,t1,0x1
9d00c8e8:	000c3c02 	srl	a3,t4,0x10
9d00c8ec:	00e001f4 	teq	a3,zero,0x7
9d00c8f0:	0127001b 	divu	zero,t1,a3
9d00c8f4:	00007012 	mflo	t6
9d00c8f8:	00004810 	mfhi	t1
9d00c8fc:	3186ffff 	andi	a2,t4,0xffff
9d00c900:	00ce0019 	multu	a2,t6
9d00c904:	00002012 	mflo	a0
9d00c908:	00094c00 	sll	t1,t1,0x10
9d00c90c:	00087c02 	srl	t7,t0,0x10
9d00c910:	012f4825 	or	t1,t1,t7
9d00c914:	0124782b 	sltu	t7,t1,a0
9d00c918:	11e00006 	beqz	t7,9d00c934 <i20>
9d00c91c:	01244823 	subu	t1,t1,a0

9d00c920 <b21>:
9d00c920:	25ceffff 	addiu	t6,t6,-1
9d00c924:	012c4821 	addu	t1,t1,t4
9d00c928:	012c082b 	sltu	at,t1,t4
9d00c92c:	1020fffc 	beqz	at,9d00c920 <b21>
9d00c930:	00000000 	nop

9d00c934 <i20>:
9d00c934:	00e001f4 	teq	a3,zero,0x7
9d00c938:	0127001b 	divu	zero,t1,a3
9d00c93c:	00003812 	mflo	a3
9d00c940:	00004810 	mfhi	t1
9d00c944:	00c70019 	multu	a2,a3
9d00c948:	00002012 	mflo	a0
9d00c94c:	00094c00 	sll	t1,t1,0x10
9d00c950:	310fffff 	andi	t7,t0,0xffff
9d00c954:	012f4825 	or	t1,t1,t7
9d00c958:	0124782b 	sltu	t7,t1,a0
9d00c95c:	11e00006 	beqz	t7,9d00c978 <i22>
9d00c960:	01244823 	subu	t1,t1,a0

9d00c964 <b23>:
9d00c964:	24e7ffff 	addiu	a3,a3,-1
9d00c968:	012c4821 	addu	t1,t1,t4
9d00c96c:	012c082b 	sltu	at,t1,t4
9d00c970:	1020fffc 	beqz	at,9d00c964 <b23>
9d00c974:	00000000 	nop

9d00c978 <i22>:
9d00c978:	000e7400 	sll	t6,t6,0x10
9d00c97c:	01c77021 	addu	t6,t6,a3
9d00c980:	01cb0019 	multu	t6,t3
9d00c984:	00003812 	mflo	a3
9d00c988:	00002010 	mfhi	a0
9d00c98c:	24080000 	li	t0,0
9d00c990:	0107782b 	sltu	t7,t0,a3
9d00c994:	01074023 	subu	t0,t0,a3
9d00c998:	012f102b 	sltu	v0,t1,t7
9d00c99c:	012f4823 	subu	t1,t1,t7
9d00c9a0:	0124782b 	sltu	t7,t1,a0
9d00c9a4:	01e27825 	or	t7,t7,v0
9d00c9a8:	11e0000b 	beqz	t7,9d00c9d8 <i24>
9d00c9ac:	01244823 	subu	t1,t1,a0

9d00c9b0 <Dlab3>:
9d00c9b0:	25ceffff 	addiu	t6,t6,-1
9d00c9b4:	010b4021 	addu	t0,t0,t3
9d00c9b8:	010b782b 	sltu	t7,t0,t3
9d00c9bc:	012c4821 	addu	t1,t1,t4
9d00c9c0:	012f4821 	addu	t1,t1,t7
9d00c9c4:	112c0002 	beq	t1,t4,9d00c9d0 <L31>
9d00c9c8:	00000000 	nop
9d00c9cc:	012c782b 	sltu	t7,t1,t4

9d00c9d0 <L31>:
9d00c9d0:	11e0fff7 	beqz	t7,9d00c9b0 <Dlab3>
9d00c9d4:	00000000 	nop

9d00c9d8 <i24>:
9d00c9d8:	152c0006 	bne	t1,t4,9d00c9f4 <i25>
9d00c9dc:	00000000 	nop
9d00c9e0:	000b2025 	or	a0,zero,t3
9d00c9e4:	00084825 	or	t1,zero,t0
9d00c9e8:	240d0000 	li	t5,0
9d00c9ec:	1000002a 	b	9d00ca98 <e25>
9d00c9f0:	000d3825 	or	a3,zero,t5

9d00c9f4 <i25>:
9d00c9f4:	000c3c02 	srl	a3,t4,0x10
9d00c9f8:	00e001f4 	teq	a3,zero,0x7
9d00c9fc:	0127001b 	divu	zero,t1,a3
9d00ca00:	00006812 	mflo	t5
9d00ca04:	00004810 	mfhi	t1
9d00ca08:	3186ffff 	andi	a2,t4,0xffff
9d00ca0c:	00cd0019 	multu	a2,t5
9d00ca10:	00002012 	mflo	a0
9d00ca14:	00094c00 	sll	t1,t1,0x10
9d00ca18:	00087c02 	srl	t7,t0,0x10
9d00ca1c:	012f4825 	or	t1,t1,t7
9d00ca20:	0124782b 	sltu	t7,t1,a0
9d00ca24:	11e00006 	beqz	t7,9d00ca40 <i26>
9d00ca28:	01244823 	subu	t1,t1,a0

9d00ca2c <b27>:
9d00ca2c:	25adffff 	addiu	t5,t5,-1
9d00ca30:	012c4821 	addu	t1,t1,t4
9d00ca34:	012c082b 	sltu	at,t1,t4
9d00ca38:	1020fffc 	beqz	at,9d00ca2c <b27>
9d00ca3c:	00000000 	nop

9d00ca40 <i26>:
9d00ca40:	00e001f4 	teq	a3,zero,0x7
9d00ca44:	0127001b 	divu	zero,t1,a3
9d00ca48:	00003812 	mflo	a3
9d00ca4c:	00004810 	mfhi	t1
9d00ca50:	00c70019 	multu	a2,a3
9d00ca54:	00002012 	mflo	a0
9d00ca58:	00094c00 	sll	t1,t1,0x10
9d00ca5c:	310fffff 	andi	t7,t0,0xffff
9d00ca60:	012f4825 	or	t1,t1,t7
9d00ca64:	0124782b 	sltu	t7,t1,a0
9d00ca68:	11e00006 	beqz	t7,9d00ca84 <i28>
9d00ca6c:	01244823 	subu	t1,t1,a0

9d00ca70 <b29>:
9d00ca70:	24e7ffff 	addiu	a3,a3,-1
9d00ca74:	012c4821 	addu	t1,t1,t4
9d00ca78:	012c082b 	sltu	at,t1,t4
9d00ca7c:	1020fffc 	beqz	at,9d00ca70 <b29>
9d00ca80:	00000000 	nop

9d00ca84 <i28>:
9d00ca84:	000d6c00 	sll	t5,t5,0x10
9d00ca88:	01a76821 	addu	t5,t5,a3
9d00ca8c:	01ab0019 	multu	t5,t3
9d00ca90:	00003812 	mflo	a3
9d00ca94:	00002010 	mfhi	a0

9d00ca98 <e25>:
9d00ca98:	24080000 	li	t0,0
9d00ca9c:	0107782b 	sltu	t7,t0,a3
9d00caa0:	01074023 	subu	t0,t0,a3
9d00caa4:	012f102b 	sltu	v0,t1,t7
9d00caa8:	012f4823 	subu	t1,t1,t7
9d00caac:	0124782b 	sltu	t7,t1,a0
9d00cab0:	01e27825 	or	t7,t7,v0
9d00cab4:	11e0000b 	beqz	t7,9d00cae4 <i30>
9d00cab8:	01244823 	subu	t1,t1,a0

9d00cabc <Dlab4>:
9d00cabc:	25adffff 	addiu	t5,t5,-1
9d00cac0:	010b4021 	addu	t0,t0,t3
9d00cac4:	010b782b 	sltu	t7,t0,t3
9d00cac8:	012c4821 	addu	t1,t1,t4
9d00cacc:	012f4821 	addu	t1,t1,t7
9d00cad0:	112c0002 	beq	t1,t4,9d00cadc <L32>
9d00cad4:	00000000 	nop
9d00cad8:	012c782b 	sltu	t7,t1,t4

9d00cadc <L32>:
9d00cadc:	11e0fff7 	beqz	t7,9d00cabc <Dlab4>
9d00cae0:	00000000 	nop

9d00cae4 <i30>:
9d00cae4:	05c00006 	bltz	t6,9d00cb00 <i31>
9d00cae8:	00000000 	nop
9d00caec:	01a0782a 	slt	t7,t5,zero
9d00caf0:	01ad6821 	addu	t5,t5,t5
9d00caf4:	01ce7021 	addu	t6,t6,t6
9d00caf8:	01cf7021 	addu	t6,t6,t7
9d00cafc:	254affff 	addiu	t2,t2,-1

9d00cb00 <i31>:
9d00cb00:	01287825 	or	t7,t1,t0
9d00cb04:	11e00002 	beqz	t7,9d00cb10 <i32>
9d00cb08:	00000000 	nop
9d00cb0c:	35ad0001 	ori	t5,t5,0x1

9d00cb10 <i32>:
9d00cb10:	000e4825 	or	t1,zero,t6
9d00cb14:	000d4025 	or	t0,zero,t5
9d00cb18:	254fffff 	addiu	t7,t2,-1
9d00cb1c:	2de107fe 	sltiu	at,t7,2046
9d00cb20:	10200015 	beqz	at,9d00cb78 <Doveund>
9d00cb24:	00000000 	nop
9d00cb28:	25080400 	addiu	t0,t0,1024
9d00cb2c:	2d0f0400 	sltiu	t7,t0,1024
9d00cb30:	012f4821 	addu	t1,t1,t7
9d00cb34:	012f782b 	sltu	t7,t1,t7
9d00cb38:	014f5021 	addu	t2,t2,t7

9d00cb3c <Dlab8>:
9d00cb3c:	00087ac2 	srl	t7,t0,0xb
9d00cb40:	31ef0001 	andi	t7,t7,0x1
9d00cb44:	010f4023 	subu	t0,t0,t7
9d00cb48:	000822c2 	srl	a0,t0,0xb
9d00cb4c:	00097d40 	sll	t7,t1,0x15
9d00cb50:	008f2025 	or	a0,a0,t7
9d00cb54:	00097840 	sll	t7,t1,0x1
9d00cb58:	000f7b02 	srl	t7,t7,0xc
9d00cb5c:	00af2825 	or	a1,a1,t7
9d00cb60:	000a7d00 	sll	t7,t2,0x14
9d00cb64:	00af2825 	or	a1,a1,t7

9d00cb68 <Dret>:
9d00cb68:	00041025 	or	v0,zero,a0
9d00cb6c:	00051825 	or	v1,zero,a1

9d00cb70 <D999>:
9d00cb70:	03e00008 	jr	ra
9d00cb74:	00000000 	nop

9d00cb78 <Doveund>:
9d00cb78:	1d400044 	bgtz	t2,9d00cc8c <Dinf>
9d00cb7c:	00000000 	nop
9d00cb80:	240e0001 	li	t6,1
9d00cb84:	01ca7023 	subu	t6,t6,t2

9d00cb88 <L33>:
9d00cb88:	2dc10020 	sltiu	at,t6,32
9d00cb8c:	14200007 	bnez	at,9d00cbac <L34>
9d00cb90:	00000000 	nop
9d00cb94:	21ceffe0 	addi	t6,t6,-32
9d00cb98:	0008202b 	sltu	a0,zero,t0
9d00cb9c:	1009000d 	beq	zero,t1,9d00cbd4 <L35>
9d00cba0:	01244025 	or	t0,t1,a0
9d00cba4:	1000fff8 	b	9d00cb88 <L33>
9d00cba8:	34090000 	li	t1,0x0

9d00cbac <L34>:
9d00cbac:	11c00009 	beqz	t6,9d00cbd4 <L35>
9d00cbb0:	00000000 	nop
9d00cbb4:	000e3022 	neg	a2,t6
9d00cbb8:	00c82004 	sllv	a0,t0,a2
9d00cbbc:	00c93004 	sllv	a2,t1,a2
9d00cbc0:	01c84006 	srlv	t0,t0,t6
9d00cbc4:	01c94806 	srlv	t1,t1,t6
9d00cbc8:	10800002 	beqz	a0,9d00cbd4 <L35>
9d00cbcc:	00c84025 	or	t0,a2,t0
9d00cbd0:	35080002 	ori	t0,t0,0x2

9d00cbd4 <L35>:
9d00cbd4:	25080400 	addiu	t0,t0,1024
9d00cbd8:	2d0f0400 	sltiu	t7,t0,1024
9d00cbdc:	012f4821 	addu	t1,t1,t7
9d00cbe0:	1000ffd6 	b	9d00cb3c <Dlab8>
9d00cbe4:	000957c2 	srl	t2,t1,0x1f

9d00cbe8 <DspecA>:
9d00cbe8:	0100782a 	slt	t7,t0,zero
9d00cbec:	01084021 	addu	t0,t0,t0
9d00cbf0:	01294821 	addu	t1,t1,t1
9d00cbf4:	15400017 	bnez	t2,9d00cc54 <i33>
9d00cbf8:	012f4821 	addu	t1,t1,t7
9d00cbfc:	01287825 	or	t7,t1,t0
9d00cc00:	11e00014 	beqz	t7,9d00cc54 <i33>
9d00cc04:	00000000 	nop
9d00cc08:	15200008 	bnez	t1,9d00cc2c <L36>
9d00cc0c:	00000000 	nop
9d00cc10:	15000003 	bnez	t0,9d00cc20 <L37>
9d00cc14:	00000000 	nop
9d00cc18:	1000ff29 	b	9d00c8c0 <Dlab1>
9d00cc1c:	240a0000 	li	t2,0

9d00cc20 <L37>:
9d00cc20:	01004825 	move	t1,t0
9d00cc24:	24080000 	li	t0,0
9d00cc28:	254affe0 	addiu	t2,t2,-32

9d00cc2c <L36>:
9d00cc2c:	712e7020 	clz	t6,t1
9d00cc30:	11c0ff23 	beqz	t6,9d00c8c0 <Dlab1>
9d00cc34:	00000000 	nop
9d00cc38:	014e5023 	subu	t2,t2,t6
9d00cc3c:	000e3022 	neg	a2,t6
9d00cc40:	00c83006 	srlv	a2,t0,a2
9d00cc44:	01c84004 	sllv	t0,t0,t6
9d00cc48:	01c94804 	sllv	t1,t1,t6
9d00cc4c:	1000ff1c 	b	9d00c8c0 <Dlab1>
9d00cc50:	01264825 	or	t1,t1,a2

9d00cc54 <i33>:
9d00cc54:	154d0005 	bne	t2,t5,9d00cc6c <i35>
9d00cc58:	00000000 	nop
9d00cc5c:	000c7840 	sll	t7,t4,0x1
9d00cc60:	01eb7825 	or	t7,t7,t3
9d00cc64:	11e0002b 	beqz	t7,9d00cd14 <Dnan>
9d00cc68:	00000000 	nop

9d00cc6c <i35>:
9d00cc6c:	240107ff 	li	at,2047
9d00cc70:	11a1000a 	beq	t5,at,9d00cc9c <DspecB>
9d00cc74:	00000000 	nop
9d00cc78:	1140ffbb 	beqz	t2,9d00cb68 <Dret>
9d00cc7c:	00000000 	nop
9d00cc80:	01287825 	or	t7,t1,t0
9d00cc84:	15e00023 	bnez	t7,9d00cd14 <Dnan>
9d00cc88:	00000000 	nop

9d00cc8c <Dinf>:
9d00cc8c:	3c017ff0 	lui	at,0x7ff0
9d00cc90:	00a12825 	or	a1,a1,at
9d00cc94:	1000ffb4 	b	9d00cb68 <Dret>
9d00cc98:	24040000 	li	a0,0

9d00cc9c <DspecB>:
9d00cc9c:	0160782a 	slt	t7,t3,zero
9d00cca0:	016b5821 	addu	t3,t3,t3
9d00cca4:	018c6021 	addu	t4,t4,t4
9d00cca8:	15a00017 	bnez	t5,9d00cd08 <i36>
9d00ccac:	018f6021 	addu	t4,t4,t7
9d00ccb0:	018b7825 	or	t7,t4,t3
9d00ccb4:	11e0fff5 	beqz	t7,9d00cc8c <Dinf>
9d00ccb8:	00000000 	nop
9d00ccbc:	15800008 	bnez	t4,9d00cce0 <L39>
9d00ccc0:	00000000 	nop
9d00ccc4:	15600003 	bnez	t3,9d00ccd4 <L40>
9d00ccc8:	00000000 	nop
9d00cccc:	1000ff00 	b	9d00c8d0 <Dlab2>
9d00ccd0:	240d0000 	li	t5,0

9d00ccd4 <L40>:
9d00ccd4:	01606025 	move	t4,t3
9d00ccd8:	240b0000 	li	t3,0
9d00ccdc:	25adffe0 	addiu	t5,t5,-32

9d00cce0 <L39>:
9d00cce0:	718e7020 	clz	t6,t4
9d00cce4:	11c0fefa 	beqz	t6,9d00c8d0 <Dlab2>
9d00cce8:	00000000 	nop
9d00ccec:	01ae6823 	subu	t5,t5,t6
9d00ccf0:	000e3022 	neg	a2,t6
9d00ccf4:	00cb3006 	srlv	a2,t3,a2
9d00ccf8:	01cb5804 	sllv	t3,t3,t6
9d00ccfc:	01cc6004 	sllv	t4,t4,t6
9d00cd00:	1000fef3 	b	9d00c8d0 <Dlab2>
9d00cd04:	01866025 	or	t4,t4,a2

9d00cd08 <i36>:
9d00cd08:	018b7825 	or	t7,t4,t3
9d00cd0c:	11e00002 	beqz	t7,9d00cd18 <i38>
9d00cd10:	00000000 	nop

9d00cd14 <Dnan>:
9d00cd14:	3c05fff8 	lui	a1,0xfff8

9d00cd18 <i38>:
9d00cd18:	1000ff93 	b	9d00cb68 <Dret>
9d00cd1c:	24040000 	li	a0,0
9d00cd20:	00000000 	nop

Disassembly of section .text.dreml:

9d00cd24 <dreml>:
9d00cd24:	27bdffa8 	addiu	sp,sp,-88
9d00cd28:	afa70064 	sw	a3,100(sp)
9d00cd2c:	afa5005c 	sw	a1,92(sp)
9d00cd30:	afbe0050 	sw	s8,80(sp)
9d00cd34:	afb10034 	sw	s1,52(sp)
9d00cd38:	97be005e 	lhu	s8,94(sp)
9d00cd3c:	97b10066 	lhu	s1,102(sp)
9d00cd40:	afb40040 	sw	s4,64(sp)
9d00cd44:	afb00030 	sw	s0,48(sp)
9d00cd48:	24147ff0 	li	s4,32752
9d00cd4c:	32307fff 	andi	s0,s1,0x7fff
9d00cd50:	33c27ff0 	andi	v0,s8,0x7ff0
9d00cd54:	afbf0054 	sw	ra,84(sp)
9d00cd58:	afb7004c 	sw	s7,76(sp)
9d00cd5c:	afb60048 	sw	s6,72(sp)
9d00cd60:	afb50044 	sw	s5,68(sp)
9d00cd64:	afb3003c 	sw	s3,60(sp)
9d00cd68:	afb20038 	sw	s2,56(sp)
9d00cd6c:	afa60060 	sw	a2,96(sp)
9d00cd70:	afa40058 	sw	a0,88(sp)
9d00cd74:	105400a6 	beq	v0,s4,9d00d010 <dreml+0x2ec>
9d00cd78:	a7b00066 	sh	s0,102(sp)
9d00cd7c:	8fb20060 	lw	s2,96(sp)
9d00cd80:	8fb30064 	lw	s3,100(sp)
9d00cd84:	00003025 	move	a2,zero
9d00cd88:	00003825 	move	a3,zero
9d00cd8c:	02402025 	move	a0,s2
9d00cd90:	0f404331 	jal	9d010cc4 <__eqdf2>
9d00cd94:	02602825 	move	a1,s3
9d00cd98:	10400088 	beqz	v0,9d00cfbc <dreml+0x298>
9d00cd9c:	32317ff0 	andi	s1,s1,0x7ff0
9d00cda0:	123400b3 	beq	s1,s4,9d00d070 <dreml+0x34c>
9d00cda4:	00108103 	sra	s0,s0,0x4
9d00cda8:	321007fe 	andi	s0,s0,0x7fe
9d00cdac:	120000cb 	beqz	s0,9d00d0dc <dreml+0x3b8>
9d00cdb0:	3c109d00 	lui	s0,0x9d00
9d00cdb4:	8e067648 	lw	a2,30280(s0)
9d00cdb8:	8e07764c 	lw	a3,30284(s0)
9d00cdbc:	02402025 	move	a0,s2
9d00cdc0:	0f403a65 	jal	9d00e994 <__muldf3>
9d00cdc4:	02602825 	move	a1,s3
9d00cdc8:	afa20020 	sw	v0,32(sp)
9d00cdcc:	3c029d00 	lui	v0,0x9d00
9d00cdd0:	8c467650 	lw	a2,30288(v0)
9d00cdd4:	8c477654 	lw	a3,30292(v0)
9d00cdd8:	02402025 	move	a0,s2
9d00cddc:	02602825 	move	a1,s3
9d00cde0:	0f404331 	jal	9d010cc4 <__eqdf2>
9d00cde4:	afa30024 	sw	v1,36(sp)
9d00cde8:	044100aa 	bgez	v0,9d00d094 <dreml+0x370>
9d00cdec:	33c87fff 	andi	t0,s8,0x7fff
9d00cdf0:	02403025 	move	a2,s2
9d00cdf4:	02603825 	move	a3,s3
9d00cdf8:	02402025 	move	a0,s2
9d00cdfc:	02602825 	move	a1,s3
9d00ce00:	0f40367e 	jal	9d00d9f8 <__adddf3>
9d00ce04:	afa80018 	sw	t0,24(sp)
9d00ce08:	8fa80018 	lw	t0,24(sp)
9d00ce0c:	8fb00058 	lw	s0,88(sp)
9d00ce10:	7c1e7004 	ins	s8,zero,0x0,0xf
9d00ce14:	a7a8005e 	sh	t0,94(sp)
9d00ce18:	8fb1005c 	lw	s1,92(sp)
9d00ce1c:	00402025 	move	a0,v0
9d00ce20:	0040a825 	move	s5,v0
9d00ce24:	00602825 	move	a1,v1
9d00ce28:	7c1e1620 	seh	v0,s8
9d00ce2c:	02003025 	move	a2,s0
9d00ce30:	02203825 	move	a3,s1
9d00ce34:	0003b402 	srl	s6,v1,0x10
9d00ce38:	0060a025 	move	s4,v1
9d00ce3c:	0f40437c 	jal	9d010df0 <dpcmplt>
9d00ce40:	afa20028 	sw	v0,40(sp)
9d00ce44:	32d77ff0 	andi	s7,s6,0x7ff0
9d00ce48:	04400003 	bltz	v0,9d00ce58 <dreml+0x134>
9d00ce4c:	8fa80018 	lw	t0,24(sp)
9d00ce50:	10000029 	b	9d00cef8 <dreml+0x1d4>
9d00ce54:	8fb40020 	lw	s4,32(sp)
9d00ce58:	31037ff0 	andi	v1,t0,0x7ff0
9d00ce5c:	02c31821 	addu	v1,s6,v1
9d00ce60:	00771823 	subu	v1,v1,s7
9d00ce64:	307effff 	andi	s8,v1,0xffff
9d00ce68:	afb40014 	sw	s4,20(sp)
9d00ce6c:	afb50010 	sw	s5,16(sp)
9d00ce70:	a7be0016 	sh	s8,22(sp)
9d00ce74:	8fa80010 	lw	t0,16(sp)
9d00ce78:	8fa90014 	lw	t1,20(sp)
9d00ce7c:	02003025 	move	a2,s0
9d00ce80:	01002025 	move	a0,t0
9d00ce84:	01202825 	move	a1,t1
9d00ce88:	02203825 	move	a3,s1
9d00ce8c:	afa80018 	sw	t0,24(sp)
9d00ce90:	0f404331 	jal	9d010cc4 <__eqdf2>
9d00ce94:	afa9001c 	sw	t1,28(sp)
9d00ce98:	02002025 	move	a0,s0
9d00ce9c:	02202825 	move	a1,s1
9d00cea0:	27c3fff0 	addiu	v1,s8,-16
9d00cea4:	8fa80018 	lw	t0,24(sp)
9d00cea8:	18400004 	blez	v0,9d00cebc <dreml+0x198>
9d00ceac:	8fa9001c 	lw	t1,28(sp)
9d00ceb0:	a7a30016 	sh	v1,22(sp)
9d00ceb4:	8fa80010 	lw	t0,16(sp)
9d00ceb8:	8fa90014 	lw	t1,20(sp)
9d00cebc:	01003025 	move	a2,t0
9d00cec0:	0f40367c 	jal	9d00d9f0 <__subdf3>
9d00cec4:	01203825 	move	a3,t1
9d00cec8:	00403025 	move	a2,v0
9d00cecc:	02a02025 	move	a0,s5
9d00ced0:	02802825 	move	a1,s4
9d00ced4:	00603825 	move	a3,v1
9d00ced8:	00408025 	move	s0,v0
9d00cedc:	00608825 	move	s1,v1
9d00cee0:	afa20058 	sw	v0,88(sp)
9d00cee4:	0f40437c 	jal	9d010df0 <dpcmplt>
9d00cee8:	afa3005c 	sw	v1,92(sp)
9d00ceec:	0440ffda 	bltz	v0,9d00ce58 <dreml+0x134>
9d00cef0:	97a8005e 	lhu	t0,94(sp)
9d00cef4:	8fb40020 	lw	s4,32(sp)
9d00cef8:	8fb50024 	lw	s5,36(sp)
9d00cefc:	02002025 	move	a0,s0
9d00cf00:	02803025 	move	a2,s4
9d00cf04:	02a03825 	move	a3,s5
9d00cf08:	0f404331 	jal	9d010cc4 <__eqdf2>
9d00cf0c:	02202825 	move	a1,s1
9d00cf10:	18400017 	blez	v0,9d00cf70 <dreml+0x24c>
9d00cf14:	97a2005e 	lhu	v0,94(sp)
9d00cf18:	02002025 	move	a0,s0
9d00cf1c:	02202825 	move	a1,s1
9d00cf20:	02403025 	move	a2,s2
9d00cf24:	0f40367c 	jal	9d00d9f0 <__subdf3>
9d00cf28:	02603825 	move	a3,s3
9d00cf2c:	00402025 	move	a0,v0
9d00cf30:	02803025 	move	a2,s4
9d00cf34:	02a03825 	move	a3,s5
9d00cf38:	00602825 	move	a1,v1
9d00cf3c:	00408025 	move	s0,v0
9d00cf40:	0f404331 	jal	9d010cc4 <__eqdf2>
9d00cf44:	00608825 	move	s1,v1
9d00cf48:	04420089 	bltzl	v0,9d00d170 <dreml+0x44c>
9d00cf4c:	afb00058 	sw	s0,88(sp)
9d00cf50:	02403025 	move	a2,s2
9d00cf54:	02603825 	move	a3,s3
9d00cf58:	02002025 	move	a0,s0
9d00cf5c:	0f40367c 	jal	9d00d9f0 <__subdf3>
9d00cf60:	02202825 	move	a1,s1
9d00cf64:	afa20058 	sw	v0,88(sp)
9d00cf68:	afa3005c 	sw	v1,92(sp)
9d00cf6c:	97a2005e 	lhu	v0,94(sp)
9d00cf70:	8fa30028 	lw	v1,40(sp)
9d00cf74:	0062f026 	xor	s8,v1,v0
9d00cf78:	a7be005e 	sh	s8,94(sp)
9d00cf7c:	8fb20058 	lw	s2,88(sp)
9d00cf80:	8fb3005c 	lw	s3,92(sp)
9d00cf84:	8fbf0054 	lw	ra,84(sp)
9d00cf88:	02401025 	move	v0,s2
9d00cf8c:	02601825 	move	v1,s3
9d00cf90:	8fbe0050 	lw	s8,80(sp)
9d00cf94:	8fb7004c 	lw	s7,76(sp)
9d00cf98:	8fb60048 	lw	s6,72(sp)
9d00cf9c:	8fb50044 	lw	s5,68(sp)
9d00cfa0:	8fb40040 	lw	s4,64(sp)
9d00cfa4:	8fb3003c 	lw	s3,60(sp)
9d00cfa8:	8fb20038 	lw	s2,56(sp)
9d00cfac:	8fb10034 	lw	s1,52(sp)
9d00cfb0:	8fb00030 	lw	s0,48(sp)
9d00cfb4:	03e00008 	jr	ra
9d00cfb8:	27bd0058 	addiu	sp,sp,88
9d00cfbc:	00003025 	move	a2,zero
9d00cfc0:	00003825 	move	a3,zero
9d00cfc4:	00c02025 	move	a0,a2
9d00cfc8:	0f40321b 	jal	9d00c86c <__divdf3>
9d00cfcc:	00e02825 	move	a1,a3
9d00cfd0:	00409025 	move	s2,v0
9d00cfd4:	00609825 	move	s3,v1
9d00cfd8:	8fbf0054 	lw	ra,84(sp)
9d00cfdc:	02401025 	move	v0,s2
9d00cfe0:	02601825 	move	v1,s3
9d00cfe4:	8fbe0050 	lw	s8,80(sp)
9d00cfe8:	8fb7004c 	lw	s7,76(sp)
9d00cfec:	8fb60048 	lw	s6,72(sp)
9d00cff0:	8fb50044 	lw	s5,68(sp)
9d00cff4:	8fb40040 	lw	s4,64(sp)
9d00cff8:	8fb3003c 	lw	s3,60(sp)
9d00cffc:	8fb20038 	lw	s2,56(sp)
9d00d000:	8fb10034 	lw	s1,52(sp)
9d00d004:	8fb00030 	lw	s0,48(sp)
9d00d008:	03e00008 	jr	ra
9d00d00c:	27bd0058 	addiu	sp,sp,88
9d00d010:	8fa60060 	lw	a2,96(sp)
9d00d014:	0f40367c 	jal	9d00d9f0 <__subdf3>
9d00d018:	8fa70064 	lw	a3,100(sp)
9d00d01c:	00403025 	move	a2,v0
9d00d020:	00603825 	move	a3,v1
9d00d024:	00402025 	move	a0,v0
9d00d028:	0f40367c 	jal	9d00d9f0 <__subdf3>
9d00d02c:	00602825 	move	a1,v1
9d00d030:	8fbf0054 	lw	ra,84(sp)
9d00d034:	00409025 	move	s2,v0
9d00d038:	00609825 	move	s3,v1
9d00d03c:	02401025 	move	v0,s2
9d00d040:	02601825 	move	v1,s3
9d00d044:	8fbe0050 	lw	s8,80(sp)
9d00d048:	8fb7004c 	lw	s7,76(sp)
9d00d04c:	8fb60048 	lw	s6,72(sp)
9d00d050:	8fb50044 	lw	s5,68(sp)
9d00d054:	8fb40040 	lw	s4,64(sp)
9d00d058:	8fb3003c 	lw	s3,60(sp)
9d00d05c:	8fb20038 	lw	s2,56(sp)
9d00d060:	8fb10034 	lw	s1,52(sp)
9d00d064:	8fb00030 	lw	s0,48(sp)
9d00d068:	03e00008 	jr	ra
9d00d06c:	27bd0058 	addiu	sp,sp,88
9d00d070:	02403025 	move	a2,s2
9d00d074:	02603825 	move	a3,s3
9d00d078:	02402025 	move	a0,s2
9d00d07c:	0f404331 	jal	9d010cc4 <__eqdf2>
9d00d080:	02602825 	move	a1,s3
9d00d084:	1440ffd5 	bnez	v0,9d00cfdc <dreml+0x2b8>
9d00d088:	8fbf0054 	lw	ra,84(sp)
9d00d08c:	1000ffbc 	b	9d00cf80 <dreml+0x25c>
9d00d090:	8fb20058 	lw	s2,88(sp)
9d00d094:	8e067648 	lw	a2,30280(s0)
9d00d098:	8e07764c 	lw	a3,30284(s0)
9d00d09c:	8fa40058 	lw	a0,88(sp)
9d00d0a0:	0f403a65 	jal	9d00e994 <__muldf3>
9d00d0a4:	8fa5005c 	lw	a1,92(sp)
9d00d0a8:	8fa60020 	lw	a2,32(sp)
9d00d0ac:	8fa70024 	lw	a3,36(sp)
9d00d0b0:	00402025 	move	a0,v0
9d00d0b4:	0f403349 	jal	9d00cd24 <dreml>
9d00d0b8:	00602825 	move	a1,v1
9d00d0bc:	00403025 	move	a2,v0
9d00d0c0:	00603825 	move	a3,v1
9d00d0c4:	00402025 	move	a0,v0
9d00d0c8:	0f40367e 	jal	9d00d9f8 <__adddf3>
9d00d0cc:	00602825 	move	a1,v1
9d00d0d0:	00409025 	move	s2,v0
9d00d0d4:	1000ffc0 	b	9d00cfd8 <dreml+0x2b4>
9d00d0d8:	00609825 	move	s3,v1
9d00d0dc:	3c029d00 	lui	v0,0x9d00
9d00d0e0:	8c447640 	lw	a0,30272(v0)
9d00d0e4:	8c457644 	lw	a1,30276(v0)
9d00d0e8:	0f4040e8 	jal	9d0103a0 <__mchp_ldexp>
9d00d0ec:	24060036 	li	a2,54
9d00d0f0:	00403025 	move	a2,v0
9d00d0f4:	02402025 	move	a0,s2
9d00d0f8:	02602825 	move	a1,s3
9d00d0fc:	00603825 	move	a3,v1
9d00d100:	00408025 	move	s0,v0
9d00d104:	0f403a65 	jal	9d00e994 <__muldf3>
9d00d108:	00608825 	move	s1,v1
9d00d10c:	8fa40058 	lw	a0,88(sp)
9d00d110:	8fa5005c 	lw	a1,92(sp)
9d00d114:	00403025 	move	a2,v0
9d00d118:	00603825 	move	a3,v1
9d00d11c:	00409025 	move	s2,v0
9d00d120:	0f403349 	jal	9d00cd24 <dreml>
9d00d124:	00609825 	move	s3,v1
9d00d128:	00402025 	move	a0,v0
9d00d12c:	02003025 	move	a2,s0
9d00d130:	02203825 	move	a3,s1
9d00d134:	0f403a65 	jal	9d00e994 <__muldf3>
9d00d138:	00602825 	move	a1,v1
9d00d13c:	00402025 	move	a0,v0
9d00d140:	02403025 	move	a2,s2
9d00d144:	02603825 	move	a3,s3
9d00d148:	0f403349 	jal	9d00cd24 <dreml>
9d00d14c:	00602825 	move	a1,v1
9d00d150:	00402025 	move	a0,v0
9d00d154:	02003025 	move	a2,s0
9d00d158:	02203825 	move	a3,s1
9d00d15c:	0f40321b 	jal	9d00c86c <__divdf3>
9d00d160:	00602825 	move	a1,v1
9d00d164:	00409025 	move	s2,v0
9d00d168:	1000ff9b 	b	9d00cfd8 <dreml+0x2b4>
9d00d16c:	00609825 	move	s3,v1
9d00d170:	1000ff7e 	b	9d00cf6c <dreml+0x248>
9d00d174:	afb1005c 	sw	s1,92(sp)

Disassembly of section .text:

9d00d178 <__divdi3>:
9d00d178:	04a10007 	bgez	a1,9d00d198 <__divdi3+0x20>
9d00d17c:	00005025 	move	t2,zero
9d00d180:	00041023 	negu	v0,a0
9d00d184:	0002182b 	sltu	v1,zero,v0
9d00d188:	00052823 	negu	a1,a1
9d00d18c:	00402025 	move	a0,v0
9d00d190:	00a32823 	subu	a1,a1,v1
9d00d194:	240affff 	li	t2,-1
9d00d198:	04e10008 	bgez	a3,9d00d1bc <__divdi3+0x44>
9d00d19c:	00c04025 	move	t0,a2
9d00d1a0:	00061023 	negu	v0,a2
9d00d1a4:	0002182b 	sltu	v1,zero,v0
9d00d1a8:	00073823 	negu	a3,a3
9d00d1ac:	000a5027 	nor	t2,zero,t2
9d00d1b0:	00403025 	move	a2,v0
9d00d1b4:	00e33823 	subu	a3,a3,v1
9d00d1b8:	00c04025 	move	t0,a2
9d00d1bc:	00e01825 	move	v1,a3
9d00d1c0:	00804825 	move	t1,a0
9d00d1c4:	14e000ab 	bnez	a3,9d00d474 <__divdi3+0x2fc>
9d00d1c8:	00a01025 	move	v0,a1
9d00d1cc:	00a6302b 	sltu	a2,a1,a2
9d00d1d0:	10c0003c 	beqz	a2,9d00d2c4 <__divdi3+0x14c>
9d00d1d4:	00000000 	nop
9d00d1d8:	71052820 	clz	a1,t0
9d00d1dc:	10a00006 	beqz	a1,9d00d1f8 <__divdi3+0x80>
9d00d1e0:	00a22004 	sllv	a0,v0,a1
9d00d1e4:	00051023 	negu	v0,a1
9d00d1e8:	00491006 	srlv	v0,t1,v0
9d00d1ec:	00a84004 	sllv	t0,t0,a1
9d00d1f0:	00441025 	or	v0,v0,a0
9d00d1f4:	00a94804 	sllv	t1,t1,a1
9d00d1f8:	00083402 	srl	a2,t0,0x10
9d00d1fc:	0046001b 	divu	zero,v0,a2
9d00d200:	00c001f4 	teq	a2,zero,0x7
9d00d204:	310bffff 	andi	t3,t0,0xffff
9d00d208:	00091402 	srl	v0,t1,0x10
9d00d20c:	00003812 	mflo	a3
9d00d210:	00002010 	mfhi	a0
9d00d214:	00042400 	sll	a0,a0,0x10
9d00d218:	00821025 	or	v0,a0,v0
9d00d21c:	71676002 	mul	t4,t3,a3
9d00d220:	004c202b 	sltu	a0,v0,t4
9d00d224:	1080000a 	beqz	a0,9d00d250 <__divdi3+0xd8>
9d00d228:	00e02825 	move	a1,a3
9d00d22c:	00481021 	addu	v0,v0,t0
9d00d230:	0048202b 	sltu	a0,v0,t0
9d00d234:	14800006 	bnez	a0,9d00d250 <__divdi3+0xd8>
9d00d238:	24e5ffff 	addiu	a1,a3,-1
9d00d23c:	004c202b 	sltu	a0,v0,t4
9d00d240:	50800004 	beqzl	a0,9d00d254 <__divdi3+0xdc>
9d00d244:	004c1023 	subu	v0,v0,t4
9d00d248:	24e5fffe 	addiu	a1,a3,-2
9d00d24c:	00481021 	addu	v0,v0,t0
9d00d250:	004c1023 	subu	v0,v0,t4
9d00d254:	0046001b 	divu	zero,v0,a2
9d00d258:	00c001f4 	teq	a2,zero,0x7
9d00d25c:	3129ffff 	andi	t1,t1,0xffff
9d00d260:	00001012 	mflo	v0
9d00d264:	00003010 	mfhi	a2
9d00d268:	00063400 	sll	a2,a2,0x10
9d00d26c:	00c94825 	or	t1,a2,t1
9d00d270:	71625802 	mul	t3,t3,v0
9d00d274:	012b302b 	sltu	a2,t1,t3
9d00d278:	10c00008 	beqz	a2,9d00d29c <__divdi3+0x124>
9d00d27c:	00402025 	move	a0,v0
9d00d280:	01094821 	addu	t1,t0,t1
9d00d284:	0128402b 	sltu	t0,t1,t0
9d00d288:	15000004 	bnez	t0,9d00d29c <__divdi3+0x124>
9d00d28c:	2444ffff 	addiu	a0,v0,-1
9d00d290:	012b482b 	sltu	t1,t1,t3
9d00d294:	55200001 	bnezl	t1,9d00d29c <__divdi3+0x124>
9d00d298:	2444fffe 	addiu	a0,v0,-2
9d00d29c:	00051400 	sll	v0,a1,0x10
9d00d2a0:	00441025 	or	v0,v0,a0
9d00d2a4:	11400005 	beqz	t2,9d00d2bc <__divdi3+0x144>
9d00d2a8:	00000000 	nop
9d00d2ac:	00021023 	negu	v0,v0
9d00d2b0:	0002202b 	sltu	a0,zero,v0
9d00d2b4:	00031823 	negu	v1,v1
9d00d2b8:	00641823 	subu	v1,v1,a0
9d00d2bc:	03e00008 	jr	ra
9d00d2c0:	00000000 	nop
9d00d2c4:	15000006 	bnez	t0,9d00d2e0 <__divdi3+0x168>
9d00d2c8:	710b5820 	clz	t3,t0
9d00d2cc:	24080001 	li	t0,1
9d00d2d0:	0107001b 	divu	zero,t0,a3
9d00d2d4:	00e001f4 	teq	a3,zero,0x7
9d00d2d8:	00004012 	mflo	t0
9d00d2dc:	710b5820 	clz	t3,t0
9d00d2e0:	1560002d 	bnez	t3,9d00d398 <__divdi3+0x220>
9d00d2e4:	24030001 	li	v1,1
9d00d2e8:	00a82823 	subu	a1,a1,t0
9d00d2ec:	00083c02 	srl	a3,t0,0x10
9d00d2f0:	00a7001b 	divu	zero,a1,a3
9d00d2f4:	00e001f4 	teq	a3,zero,0x7
9d00d2f8:	310bffff 	andi	t3,t0,0xffff
9d00d2fc:	00091402 	srl	v0,t1,0x10
9d00d300:	00002812 	mflo	a1
9d00d304:	00002010 	mfhi	a0
9d00d308:	00042400 	sll	a0,a0,0x10
9d00d30c:	00821025 	or	v0,a0,v0
9d00d310:	71656002 	mul	t4,t3,a1
9d00d314:	004c202b 	sltu	a0,v0,t4
9d00d318:	1080000a 	beqz	a0,9d00d344 <__divdi3+0x1cc>
9d00d31c:	00a03025 	move	a2,a1
9d00d320:	00481021 	addu	v0,v0,t0
9d00d324:	0048202b 	sltu	a0,v0,t0
9d00d328:	14800006 	bnez	a0,9d00d344 <__divdi3+0x1cc>
9d00d32c:	24a6ffff 	addiu	a2,a1,-1
9d00d330:	004c202b 	sltu	a0,v0,t4
9d00d334:	50800004 	beqzl	a0,9d00d348 <__divdi3+0x1d0>
9d00d338:	004c1023 	subu	v0,v0,t4
9d00d33c:	24a6fffe 	addiu	a2,a1,-2
9d00d340:	00481021 	addu	v0,v0,t0
9d00d344:	004c1023 	subu	v0,v0,t4
9d00d348:	0047001b 	divu	zero,v0,a3
9d00d34c:	00e001f4 	teq	a3,zero,0x7
9d00d350:	3129ffff 	andi	t1,t1,0xffff
9d00d354:	00001012 	mflo	v0
9d00d358:	00003810 	mfhi	a3
9d00d35c:	00073c00 	sll	a3,a3,0x10
9d00d360:	00e93825 	or	a3,a3,t1
9d00d364:	71622802 	mul	a1,t3,v0
9d00d368:	00e5482b 	sltu	t1,a3,a1
9d00d36c:	11200008 	beqz	t1,9d00d390 <__divdi3+0x218>
9d00d370:	00402025 	move	a0,v0
9d00d374:	01073821 	addu	a3,t0,a3
9d00d378:	00e8402b 	sltu	t0,a3,t0
9d00d37c:	15000004 	bnez	t0,9d00d390 <__divdi3+0x218>
9d00d380:	2444ffff 	addiu	a0,v0,-1
9d00d384:	00e5382b 	sltu	a3,a3,a1
9d00d388:	54e00001 	bnezl	a3,9d00d390 <__divdi3+0x218>
9d00d38c:	2444fffe 	addiu	a0,v0,-2
9d00d390:	1000ffc3 	b	9d00d2a0 <__divdi3+0x128>
9d00d394:	00061400 	sll	v0,a2,0x10
9d00d398:	24070020 	li	a3,32
9d00d39c:	00eb3823 	subu	a3,a3,t3
9d00d3a0:	01684004 	sllv	t0,t0,t3
9d00d3a4:	01651004 	sllv	v0,a1,t3
9d00d3a8:	00081c02 	srl	v1,t0,0x10
9d00d3ac:	00e52806 	srlv	a1,a1,a3
9d00d3b0:	00a3001b 	divu	zero,a1,v1
9d00d3b4:	006001f4 	teq	v1,zero,0x7
9d00d3b8:	3106ffff 	andi	a2,t0,0xffff
9d00d3bc:	00e44806 	srlv	t1,a0,a3
9d00d3c0:	01224825 	or	t1,t1,v0
9d00d3c4:	00091402 	srl	v0,t1,0x10
9d00d3c8:	00002812 	mflo	a1
9d00d3cc:	00003810 	mfhi	a3
9d00d3d0:	00073c00 	sll	a3,a3,0x10
9d00d3d4:	00e23825 	or	a3,a3,v0
9d00d3d8:	70c56002 	mul	t4,a2,a1
9d00d3dc:	00ec682b 	sltu	t5,a3,t4
9d00d3e0:	11a0000a 	beqz	t5,9d00d40c <__divdi3+0x294>
9d00d3e4:	00a01025 	move	v0,a1
9d00d3e8:	00e83821 	addu	a3,a3,t0
9d00d3ec:	00e8682b 	sltu	t5,a3,t0
9d00d3f0:	15a00006 	bnez	t5,9d00d40c <__divdi3+0x294>
9d00d3f4:	24a2ffff 	addiu	v0,a1,-1
9d00d3f8:	00ec682b 	sltu	t5,a3,t4
9d00d3fc:	51a00004 	beqzl	t5,9d00d410 <__divdi3+0x298>
9d00d400:	00ec3823 	subu	a3,a3,t4
9d00d404:	24a2fffe 	addiu	v0,a1,-2
9d00d408:	00e83821 	addu	a3,a3,t0
9d00d40c:	00ec3823 	subu	a3,a3,t4
9d00d410:	00e3001b 	divu	zero,a3,v1
9d00d414:	006001f4 	teq	v1,zero,0x7
9d00d418:	3125ffff 	andi	a1,t1,0xffff
9d00d41c:	00001812 	mflo	v1
9d00d420:	00003810 	mfhi	a3
9d00d424:	00073c00 	sll	a3,a3,0x10
9d00d428:	00e52825 	or	a1,a3,a1
9d00d42c:	70c33002 	mul	a2,a2,v1
9d00d430:	00a6482b 	sltu	t1,a1,a2
9d00d434:	1120000a 	beqz	t1,9d00d460 <__divdi3+0x2e8>
9d00d438:	00603825 	move	a3,v1
9d00d43c:	00a82821 	addu	a1,a1,t0
9d00d440:	00a8482b 	sltu	t1,a1,t0
9d00d444:	15200006 	bnez	t1,9d00d460 <__divdi3+0x2e8>
9d00d448:	2467ffff 	addiu	a3,v1,-1
9d00d44c:	00a6482b 	sltu	t1,a1,a2
9d00d450:	51200004 	beqzl	t1,9d00d464 <__divdi3+0x2ec>
9d00d454:	00021c00 	sll	v1,v0,0x10
9d00d458:	2467fffe 	addiu	a3,v1,-2
9d00d45c:	00a82821 	addu	a1,a1,t0
9d00d460:	00021c00 	sll	v1,v0,0x10
9d00d464:	01644804 	sllv	t1,a0,t3
9d00d468:	00a62823 	subu	a1,a1,a2
9d00d46c:	1000ff9f 	b	9d00d2ec <__divdi3+0x174>
9d00d470:	00671825 	or	v1,v1,a3
9d00d474:	00a7402b 	sltu	t0,a1,a3
9d00d478:	00001825 	move	v1,zero
9d00d47c:	1500ff89 	bnez	t0,9d00d2a4 <__divdi3+0x12c>
9d00d480:	00001025 	move	v0,zero
9d00d484:	70eb5820 	clz	t3,a3
9d00d488:	15600007 	bnez	t3,9d00d4a8 <__divdi3+0x330>
9d00d48c:	24090020 	li	t1,32
9d00d490:	00e5282b 	sltu	a1,a3,a1
9d00d494:	14a0ff83 	bnez	a1,9d00d2a4 <__divdi3+0x12c>
9d00d498:	24020001 	li	v0,1
9d00d49c:	0086102b 	sltu	v0,a0,a2
9d00d4a0:	1000ff80 	b	9d00d2a4 <__divdi3+0x12c>
9d00d4a4:	38420001 	xori	v0,v0,0x1
9d00d4a8:	012b4823 	subu	t1,t1,t3
9d00d4ac:	01261006 	srlv	v0,a2,t1
9d00d4b0:	01673804 	sllv	a3,a3,t3
9d00d4b4:	00473825 	or	a3,v0,a3
9d00d4b8:	00074402 	srl	t0,a3,0x10
9d00d4bc:	01651004 	sllv	v0,a1,t3
9d00d4c0:	01252806 	srlv	a1,a1,t1
9d00d4c4:	00a8001b 	divu	zero,a1,t0
9d00d4c8:	010001f4 	teq	t0,zero,0x7
9d00d4cc:	30ecffff 	andi	t4,a3,0xffff
9d00d4d0:	01241806 	srlv	v1,a0,t1
9d00d4d4:	00621025 	or	v0,v1,v0
9d00d4d8:	00021c02 	srl	v1,v0,0x10
9d00d4dc:	00002812 	mflo	a1
9d00d4e0:	00004810 	mfhi	t1
9d00d4e4:	00094c00 	sll	t1,t1,0x10
9d00d4e8:	01234825 	or	t1,t1,v1
9d00d4ec:	71856802 	mul	t5,t4,a1
9d00d4f0:	012d702b 	sltu	t6,t1,t5
9d00d4f4:	11c0000a 	beqz	t6,9d00d520 <__divdi3+0x3a8>
9d00d4f8:	00a01825 	move	v1,a1
9d00d4fc:	01274821 	addu	t1,t1,a3
9d00d500:	0127702b 	sltu	t6,t1,a3
9d00d504:	15c00006 	bnez	t6,9d00d520 <__divdi3+0x3a8>
9d00d508:	24a3ffff 	addiu	v1,a1,-1
9d00d50c:	012d702b 	sltu	t6,t1,t5
9d00d510:	51c00004 	beqzl	t6,9d00d524 <__divdi3+0x3ac>
9d00d514:	012d4823 	subu	t1,t1,t5
9d00d518:	24a3fffe 	addiu	v1,a1,-2
9d00d51c:	01274821 	addu	t1,t1,a3
9d00d520:	012d4823 	subu	t1,t1,t5
9d00d524:	0128001b 	divu	zero,t1,t0
9d00d528:	010001f4 	teq	t0,zero,0x7
9d00d52c:	3045ffff 	andi	a1,v0,0xffff
9d00d530:	00004012 	mflo	t0
9d00d534:	00004810 	mfhi	t1
9d00d538:	00094c00 	sll	t1,t1,0x10
9d00d53c:	01252825 	or	a1,t1,a1
9d00d540:	71886002 	mul	t4,t4,t0
9d00d544:	00ac102b 	sltu	v0,a1,t4
9d00d548:	1040000a 	beqz	v0,9d00d574 <__divdi3+0x3fc>
9d00d54c:	01004825 	move	t1,t0
9d00d550:	00a72821 	addu	a1,a1,a3
9d00d554:	00a7102b 	sltu	v0,a1,a3
9d00d558:	14400006 	bnez	v0,9d00d574 <__divdi3+0x3fc>
9d00d55c:	2509ffff 	addiu	t1,t0,-1
9d00d560:	00ac102b 	sltu	v0,a1,t4
9d00d564:	10400004 	beqz	v0,9d00d578 <__divdi3+0x400>
9d00d568:	00031400 	sll	v0,v1,0x10
9d00d56c:	2509fffe 	addiu	t1,t0,-2
9d00d570:	00a72821 	addu	a1,a1,a3
9d00d574:	00031400 	sll	v0,v1,0x10
9d00d578:	01663004 	sllv	a2,a2,t3
9d00d57c:	00491025 	or	v0,v0,t1
9d00d580:	00c20019 	multu	a2,v0
9d00d584:	00ac2823 	subu	a1,a1,t4
9d00d588:	00003810 	mfhi	a3
9d00d58c:	00a7182b 	sltu	v1,a1,a3
9d00d590:	14600007 	bnez	v1,9d00d5b0 <__divdi3+0x438>
9d00d594:	00003012 	mflo	a2
9d00d598:	14a7ff42 	bne	a1,a3,9d00d2a4 <__divdi3+0x12c>
9d00d59c:	00001825 	move	v1,zero
9d00d5a0:	01642004 	sllv	a0,a0,t3
9d00d5a4:	0086202b 	sltu	a0,a0,a2
9d00d5a8:	1080ff3e 	beqz	a0,9d00d2a4 <__divdi3+0x12c>
9d00d5ac:	00000000 	nop
9d00d5b0:	2442ffff 	addiu	v0,v0,-1
9d00d5b4:	1000ff3b 	b	9d00d2a4 <__divdi3+0x12c>
9d00d5b8:	00001825 	move	v1,zero

9d00d5bc <__moddi3>:
9d00d5bc:	04a10007 	bgez	a1,9d00d5dc <__moddi3+0x20>
9d00d5c0:	00006025 	move	t4,zero
9d00d5c4:	00041023 	negu	v0,a0
9d00d5c8:	0002482b 	sltu	t1,zero,v0
9d00d5cc:	00052823 	negu	a1,a1
9d00d5d0:	00402025 	move	a0,v0
9d00d5d4:	00a92823 	subu	a1,a1,t1
9d00d5d8:	240cffff 	li	t4,-1
9d00d5dc:	04e10006 	bgez	a3,9d00d5f8 <__moddi3+0x3c>
9d00d5e0:	00c04825 	move	t1,a2
9d00d5e4:	00063023 	negu	a2,a2
9d00d5e8:	0006102b 	sltu	v0,zero,a2
9d00d5ec:	00073823 	negu	a3,a3
9d00d5f0:	00e23823 	subu	a3,a3,v0
9d00d5f4:	00c04825 	move	t1,a2
9d00d5f8:	00801025 	move	v0,a0
9d00d5fc:	14e0009c 	bnez	a3,9d00d870 <__moddi3+0x2b4>
9d00d600:	00a01825 	move	v1,a1
9d00d604:	00a6302b 	sltu	a2,a1,a2
9d00d608:	10c00039 	beqz	a2,9d00d6f0 <__moddi3+0x134>
9d00d60c:	712a5020 	clz	t2,t1
9d00d610:	51400008 	beqzl	t2,9d00d634 <__moddi3+0x78>
9d00d614:	00092402 	srl	a0,t1,0x10
9d00d618:	01451804 	sllv	v1,a1,t2
9d00d61c:	000a2823 	negu	a1,t2
9d00d620:	00a42806 	srlv	a1,a0,a1
9d00d624:	01494804 	sllv	t1,t1,t2
9d00d628:	00a31825 	or	v1,a1,v1
9d00d62c:	01441004 	sllv	v0,a0,t2
9d00d630:	00092402 	srl	a0,t1,0x10
9d00d634:	0064001b 	divu	zero,v1,a0
9d00d638:	008001f4 	teq	a0,zero,0x7
9d00d63c:	3127ffff 	andi	a3,t1,0xffff
9d00d640:	00001812 	mflo	v1
9d00d644:	00002810 	mfhi	a1
9d00d648:	70673002 	mul	a2,v1,a3
9d00d64c:	00051c00 	sll	v1,a1,0x10
9d00d650:	00022c02 	srl	a1,v0,0x10
9d00d654:	00651825 	or	v1,v1,a1
9d00d658:	0066282b 	sltu	a1,v1,a2
9d00d65c:	50a00008 	beqzl	a1,9d00d680 <__moddi3+0xc4>
9d00d660:	00661823 	subu	v1,v1,a2
9d00d664:	00691821 	addu	v1,v1,t1
9d00d668:	0069282b 	sltu	a1,v1,t1
9d00d66c:	14a00003 	bnez	a1,9d00d67c <__moddi3+0xc0>
9d00d670:	0066282b 	sltu	a1,v1,a2
9d00d674:	54a00001 	bnezl	a1,9d00d67c <__moddi3+0xc0>
9d00d678:	00691821 	addu	v1,v1,t1
9d00d67c:	00661823 	subu	v1,v1,a2
9d00d680:	0064001b 	divu	zero,v1,a0
9d00d684:	008001f4 	teq	a0,zero,0x7
9d00d688:	3042ffff 	andi	v0,v0,0xffff
9d00d68c:	00001812 	mflo	v1
9d00d690:	00003010 	mfhi	a2
9d00d694:	70672002 	mul	a0,v1,a3
9d00d698:	00061c00 	sll	v1,a2,0x10
9d00d69c:	00621025 	or	v0,v1,v0
9d00d6a0:	0044182b 	sltu	v1,v0,a0
9d00d6a4:	50600008 	beqzl	v1,9d00d6c8 <__moddi3+0x10c>
9d00d6a8:	00441023 	subu	v0,v0,a0
9d00d6ac:	00491021 	addu	v0,v0,t1
9d00d6b0:	0049182b 	sltu	v1,v0,t1
9d00d6b4:	14600003 	bnez	v1,9d00d6c4 <__moddi3+0x108>
9d00d6b8:	0044182b 	sltu	v1,v0,a0
9d00d6bc:	54600001 	bnezl	v1,9d00d6c4 <__moddi3+0x108>
9d00d6c0:	00491021 	addu	v0,v0,t1
9d00d6c4:	00441023 	subu	v0,v0,a0
9d00d6c8:	01421006 	srlv	v0,v0,t2
9d00d6cc:	00001825 	move	v1,zero
9d00d6d0:	11800005 	beqz	t4,9d00d6e8 <__moddi3+0x12c>
9d00d6d4:	00000000 	nop
9d00d6d8:	00021023 	negu	v0,v0
9d00d6dc:	0002202b 	sltu	a0,zero,v0
9d00d6e0:	00031823 	negu	v1,v1
9d00d6e4:	00641823 	subu	v1,v1,a0
9d00d6e8:	03e00008 	jr	ra
9d00d6ec:	00000000 	nop
9d00d6f0:	15200006 	bnez	t1,9d00d70c <__moddi3+0x150>
9d00d6f4:	00000000 	nop
9d00d6f8:	24090001 	li	t1,1
9d00d6fc:	0127001b 	divu	zero,t1,a3
9d00d700:	00e001f4 	teq	a3,zero,0x7
9d00d704:	00004812 	mflo	t1
9d00d708:	712a5020 	clz	t2,t1
9d00d70c:	15400029 	bnez	t2,9d00d7b4 <__moddi3+0x1f8>
9d00d710:	24070020 	li	a3,32
9d00d714:	00a92823 	subu	a1,a1,t1
9d00d718:	00092402 	srl	a0,t1,0x10
9d00d71c:	00a4001b 	divu	zero,a1,a0
9d00d720:	008001f4 	teq	a0,zero,0x7
9d00d724:	3127ffff 	andi	a3,t1,0xffff
9d00d728:	00002812 	mflo	a1
9d00d72c:	00001810 	mfhi	v1
9d00d730:	70a73002 	mul	a2,a1,a3
9d00d734:	00032c00 	sll	a1,v1,0x10
9d00d738:	00021c02 	srl	v1,v0,0x10
9d00d73c:	00a32825 	or	a1,a1,v1
9d00d740:	00a6182b 	sltu	v1,a1,a2
9d00d744:	50600008 	beqzl	v1,9d00d768 <__moddi3+0x1ac>
9d00d748:	00a63023 	subu	a2,a1,a2
9d00d74c:	00a92821 	addu	a1,a1,t1
9d00d750:	00a9182b 	sltu	v1,a1,t1
9d00d754:	14600003 	bnez	v1,9d00d764 <__moddi3+0x1a8>
9d00d758:	00a6182b 	sltu	v1,a1,a2
9d00d75c:	54600001 	bnezl	v1,9d00d764 <__moddi3+0x1a8>
9d00d760:	00a92821 	addu	a1,a1,t1
9d00d764:	00a63023 	subu	a2,a1,a2
9d00d768:	00c4001b 	divu	zero,a2,a0
9d00d76c:	008001f4 	teq	a0,zero,0x7
9d00d770:	3042ffff 	andi	v0,v0,0xffff
9d00d774:	00003012 	mflo	a2
9d00d778:	00002810 	mfhi	a1
9d00d77c:	70c71802 	mul	v1,a2,a3
9d00d780:	00053400 	sll	a2,a1,0x10
9d00d784:	00c21025 	or	v0,a2,v0
9d00d788:	0043202b 	sltu	a0,v0,v1
9d00d78c:	5080ffce 	beqzl	a0,9d00d6c8 <__moddi3+0x10c>
9d00d790:	00431023 	subu	v0,v0,v1
9d00d794:	00491021 	addu	v0,v0,t1
9d00d798:	0049202b 	sltu	a0,v0,t1
9d00d79c:	14800003 	bnez	a0,9d00d7ac <__moddi3+0x1f0>
9d00d7a0:	0043202b 	sltu	a0,v0,v1
9d00d7a4:	54800001 	bnezl	a0,9d00d7ac <__moddi3+0x1f0>
9d00d7a8:	00491021 	addu	v0,v0,t1
9d00d7ac:	1000ffc6 	b	9d00d6c8 <__moddi3+0x10c>
9d00d7b0:	00431023 	subu	v0,v0,v1
9d00d7b4:	00ea3823 	subu	a3,a3,t2
9d00d7b8:	01494804 	sllv	t1,t1,t2
9d00d7bc:	00e41806 	srlv	v1,a0,a3
9d00d7c0:	00093402 	srl	a2,t1,0x10
9d00d7c4:	00e53806 	srlv	a3,a1,a3
9d00d7c8:	00e6001b 	divu	zero,a3,a2
9d00d7cc:	00c001f4 	teq	a2,zero,0x7
9d00d7d0:	01451004 	sllv	v0,a1,t2
9d00d7d4:	3128ffff 	andi	t0,t1,0xffff
9d00d7d8:	00621825 	or	v1,v1,v0
9d00d7dc:	00032c02 	srl	a1,v1,0x10
9d00d7e0:	00003812 	mflo	a3
9d00d7e4:	00005810 	mfhi	t3
9d00d7e8:	70e81002 	mul	v0,a3,t0
9d00d7ec:	000b3c00 	sll	a3,t3,0x10
9d00d7f0:	00e53825 	or	a3,a3,a1
9d00d7f4:	00e2282b 	sltu	a1,a3,v0
9d00d7f8:	50a00008 	beqzl	a1,9d00d81c <__moddi3+0x260>
9d00d7fc:	00e23823 	subu	a3,a3,v0
9d00d800:	00e93821 	addu	a3,a3,t1
9d00d804:	00e9282b 	sltu	a1,a3,t1
9d00d808:	14a00003 	bnez	a1,9d00d818 <__moddi3+0x25c>
9d00d80c:	00e2282b 	sltu	a1,a3,v0
9d00d810:	54a00001 	bnezl	a1,9d00d818 <__moddi3+0x25c>
9d00d814:	00e93821 	addu	a3,a3,t1
9d00d818:	00e23823 	subu	a3,a3,v0
9d00d81c:	00e6001b 	divu	zero,a3,a2
9d00d820:	00c001f4 	teq	a2,zero,0x7
9d00d824:	3065ffff 	andi	a1,v1,0xffff
9d00d828:	00003012 	mflo	a2
9d00d82c:	00003810 	mfhi	a3
9d00d830:	00073c00 	sll	a3,a3,0x10
9d00d834:	00e52825 	or	a1,a3,a1
9d00d838:	70c83002 	mul	a2,a2,t0
9d00d83c:	00a6102b 	sltu	v0,a1,a2
9d00d840:	10400009 	beqz	v0,9d00d868 <__moddi3+0x2ac>
9d00d844:	01441004 	sllv	v0,a0,t2
9d00d848:	00a92821 	addu	a1,a1,t1
9d00d84c:	00a9102b 	sltu	v0,a1,t1
9d00d850:	14400005 	bnez	v0,9d00d868 <__moddi3+0x2ac>
9d00d854:	01441004 	sllv	v0,a0,t2
9d00d858:	00a6102b 	sltu	v0,a1,a2
9d00d85c:	54400001 	bnezl	v0,9d00d864 <__moddi3+0x2a8>
9d00d860:	00a92821 	addu	a1,a1,t1
9d00d864:	01441004 	sllv	v0,a0,t2
9d00d868:	1000ffab 	b	9d00d718 <__moddi3+0x15c>
9d00d86c:	00a62823 	subu	a1,a1,a2
9d00d870:	00a7402b 	sltu	t0,a1,a3
9d00d874:	1500ff96 	bnez	t0,9d00d6d0 <__moddi3+0x114>
9d00d878:	70ed6820 	clz	t5,a3
9d00d87c:	15a0000a 	bnez	t5,9d00d8a8 <__moddi3+0x2ec>
9d00d880:	00e5402b 	sltu	t0,a3,a1
9d00d884:	15000003 	bnez	t0,9d00d894 <__moddi3+0x2d8>
9d00d888:	0086402b 	sltu	t0,a0,a2
9d00d88c:	1500ff90 	bnez	t0,9d00d6d0 <__moddi3+0x114>
9d00d890:	00000000 	nop
9d00d894:	00861023 	subu	v0,a0,a2
9d00d898:	00a72823 	subu	a1,a1,a3
9d00d89c:	0082182b 	sltu	v1,a0,v0
9d00d8a0:	1000ff8b 	b	9d00d6d0 <__moddi3+0x114>
9d00d8a4:	00a31823 	subu	v1,a1,v1
9d00d8a8:	240b0020 	li	t3,32
9d00d8ac:	016d5823 	subu	t3,t3,t5
9d00d8b0:	01664006 	srlv	t0,a2,t3
9d00d8b4:	01a73804 	sllv	a3,a3,t5
9d00d8b8:	01073825 	or	a3,t0,a3
9d00d8bc:	01a51004 	sllv	v0,a1,t5
9d00d8c0:	00074c02 	srl	t1,a3,0x10
9d00d8c4:	01652806 	srlv	a1,a1,t3
9d00d8c8:	00a9001b 	divu	zero,a1,t1
9d00d8cc:	012001f4 	teq	t1,zero,0x7
9d00d8d0:	30e8ffff 	andi	t0,a3,0xffff
9d00d8d4:	01641806 	srlv	v1,a0,t3
9d00d8d8:	00621825 	or	v1,v1,v0
9d00d8dc:	00031402 	srl	v0,v1,0x10
9d00d8e0:	00002812 	mflo	a1
9d00d8e4:	00005010 	mfhi	t2
9d00d8e8:	000a5400 	sll	t2,t2,0x10
9d00d8ec:	01425025 	or	t2,t2,v0
9d00d8f0:	71057002 	mul	t6,t0,a1
9d00d8f4:	014e782b 	sltu	t7,t2,t6
9d00d8f8:	11e0000a 	beqz	t7,9d00d924 <__moddi3+0x368>
9d00d8fc:	00a01025 	move	v0,a1
9d00d900:	01475021 	addu	t2,t2,a3
9d00d904:	0147782b 	sltu	t7,t2,a3
9d00d908:	15e00006 	bnez	t7,9d00d924 <__moddi3+0x368>
9d00d90c:	24a2ffff 	addiu	v0,a1,-1
9d00d910:	014e782b 	sltu	t7,t2,t6
9d00d914:	51e00004 	beqzl	t7,9d00d928 <__moddi3+0x36c>
9d00d918:	014e5023 	subu	t2,t2,t6
9d00d91c:	24a2fffe 	addiu	v0,a1,-2
9d00d920:	01475021 	addu	t2,t2,a3
9d00d924:	014e5023 	subu	t2,t2,t6
9d00d928:	0149001b 	divu	zero,t2,t1
9d00d92c:	012001f4 	teq	t1,zero,0x7
9d00d930:	00004812 	mflo	t1
9d00d934:	00005010 	mfhi	t2
9d00d938:	000a5400 	sll	t2,t2,0x10
9d00d93c:	71092802 	mul	a1,t0,t1
9d00d940:	3068ffff 	andi	t0,v1,0xffff
9d00d944:	01484025 	or	t0,t2,t0
9d00d948:	0105182b 	sltu	v1,t0,a1
9d00d94c:	1060000a 	beqz	v1,9d00d978 <__moddi3+0x3bc>
9d00d950:	01205025 	move	t2,t1
9d00d954:	01074021 	addu	t0,t0,a3
9d00d958:	0107182b 	sltu	v1,t0,a3
9d00d95c:	14600006 	bnez	v1,9d00d978 <__moddi3+0x3bc>
9d00d960:	252affff 	addiu	t2,t1,-1
9d00d964:	0105182b 	sltu	v1,t0,a1
9d00d968:	10600004 	beqz	v1,9d00d97c <__moddi3+0x3c0>
9d00d96c:	00027400 	sll	t6,v0,0x10
9d00d970:	252afffe 	addiu	t2,t1,-2
9d00d974:	01074021 	addu	t0,t0,a3
9d00d978:	00027400 	sll	t6,v0,0x10
9d00d97c:	01ca7025 	or	t6,t6,t2
9d00d980:	01a63004 	sllv	a2,a2,t5
9d00d984:	01c60019 	multu	t6,a2
9d00d988:	01054023 	subu	t0,t0,a1
9d00d98c:	01a41804 	sllv	v1,a0,t5
9d00d990:	00007810 	mfhi	t7
9d00d994:	010f102b 	sltu	v0,t0,t7
9d00d998:	01e02825 	move	a1,t7
9d00d99c:	00007012 	mflo	t6
9d00d9a0:	14400006 	bnez	v0,9d00d9bc <__moddi3+0x400>
9d00d9a4:	00002012 	mflo	a0
9d00d9a8:	150f0009 	bne	t0,t7,9d00d9d0 <__moddi3+0x414>
9d00d9ac:	00642023 	subu	a0,v1,a0
9d00d9b0:	006e102b 	sltu	v0,v1,t6
9d00d9b4:	50400007 	beqzl	v0,9d00d9d4 <__moddi3+0x418>
9d00d9b8:	0064182b 	sltu	v1,v1,a0
9d00d9bc:	01c62023 	subu	a0,t6,a2
9d00d9c0:	01e73823 	subu	a3,t7,a3
9d00d9c4:	01c4702b 	sltu	t6,t6,a0
9d00d9c8:	00ee2823 	subu	a1,a3,t6
9d00d9cc:	00642023 	subu	a0,v1,a0
9d00d9d0:	0064182b 	sltu	v1,v1,a0
9d00d9d4:	01054023 	subu	t0,t0,a1
9d00d9d8:	01031823 	subu	v1,t0,v1
9d00d9dc:	01631004 	sllv	v0,v1,t3
9d00d9e0:	01a42006 	srlv	a0,a0,t5
9d00d9e4:	00441025 	or	v0,v0,a0
9d00d9e8:	1000ff39 	b	9d00d6d0 <__moddi3+0x114>
9d00d9ec:	01a31806 	srlv	v1,v1,t5

Disassembly of section .text.dp32subadd:

9d00d9f0 <__subdf3>:
9d00d9f0:	3c018000 00e13826                       ...<&8..

9d00d9f8 <__adddf3>:
9d00d9f8:	00055840 000b5d42 000552c0 00047d42     @X..B]...R..B}..
9d00da08:	014f5025 00044ac0 3c088000 01485025     %PO..J.....<%PH.
9d00da18:	00077040 000e7542 00076ac0 00067d42     @p..Bu...j..B}..
9d00da28:	01af6825 000662c0 01a86825 256fffff     %h...b..%h....o%
9d00da38:	2de107fe 1020008d 00000000              ...-.. .....

9d00da44 <Blab1>:
9d00da44:	25cfffff 	addiu	t7,t6,-1
9d00da48:	2de107fe 	sltiu	at,t7,2046
9d00da4c:	102000bb 	beqz	at,9d00dd3c <BspecB>
9d00da50:	00000000 	nop

9d00da54 <Blab2>:
9d00da54:	3c018000 	lui	at,0x8000
9d00da58:	00a12824 	and	a1,a1,at
9d00da5c:	016e4023 	subu	t0,t3,t6
9d00da60:	1100002c 	beqz	t0,9d00db14 <Badd3>
9d00da64:	00000000 	nop
9d00da68:	19000015 	blez	t0,9d00dac0 <i1>
9d00da6c:	00000000 	nop

9d00da70 <L1>:
9d00da70:	2d010020 	sltiu	at,t0,32
9d00da74:	14200007 	bnez	at,9d00da94 <L2>
9d00da78:	00000000 	nop
9d00da7c:	2108ffe0 	addi	t0,t0,-32
9d00da80:	000c302b 	sltu	a2,zero,t4
9d00da84:	100d0023 	beq	zero,t5,9d00db14 <Badd3>
9d00da88:	01a66025 	or	t4,t5,a2
9d00da8c:	1000fff8 	b	9d00da70 <L1>
9d00da90:	340d0000 	li	t5,0x0

9d00da94 <L2>:
9d00da94:	1100001f 	beqz	t0,9d00db14 <Badd3>
9d00da98:	00000000 	nop
9d00da9c:	00082022 	neg	a0,t0
9d00daa0:	008c3004 	sllv	a2,t4,a0
9d00daa4:	008d2004 	sllv	a0,t5,a0
9d00daa8:	010c6006 	srlv	t4,t4,t0
9d00daac:	010d6806 	srlv	t5,t5,t0
9d00dab0:	10c00018 	beqz	a2,9d00db14 <Badd3>
9d00dab4:	008c6025 	or	t4,a0,t4
9d00dab8:	10000016 	b	9d00db14 <Badd3>
9d00dabc:	358c0002 	ori	t4,t4,0x2

9d00dac0 <i1>:
9d00dac0:	000e5825 	or	t3,zero,t6
9d00dac4:	00084023 	negu	t0,t0

9d00dac8 <L4>:
9d00dac8:	2d010020 	sltiu	at,t0,32
9d00dacc:	14200007 	bnez	at,9d00daec <L5>
9d00dad0:	00000000 	nop
9d00dad4:	2108ffe0 	addi	t0,t0,-32
9d00dad8:	0009302b 	sltu	a2,zero,t1
9d00dadc:	100a000d 	beq	zero,t2,9d00db14 <Badd3>
9d00dae0:	01464825 	or	t1,t2,a2
9d00dae4:	1000fff8 	b	9d00dac8 <L4>
9d00dae8:	340a0000 	li	t2,0x0

9d00daec <L5>:
9d00daec:	11000009 	beqz	t0,9d00db14 <Badd3>
9d00daf0:	00000000 	nop
9d00daf4:	00082022 	neg	a0,t0
9d00daf8:	00893004 	sllv	a2,t1,a0
9d00dafc:	008a2004 	sllv	a0,t2,a0
9d00db00:	01094806 	srlv	t1,t1,t0
9d00db04:	010a5006 	srlv	t2,t2,t0
9d00db08:	10c00002 	beqz	a2,9d00db14 <Badd3>
9d00db0c:	00894825 	or	t1,a0,t1
9d00db10:	35290002 	ori	t1,t1,0x2

9d00db14 <Badd3>:
9d00db14:	00a77826 	xor	t7,a1,a3
9d00db18:	05e0001c 	bltz	t7,9d00db8c <Bsub1>
9d00db1c:	00000000 	nop
9d00db20:	012c4821 	addu	t1,t1,t4
9d00db24:	012c782b 	sltu	t7,t1,t4
9d00db28:	014d5021 	addu	t2,t2,t5
9d00db2c:	014f5021 	addu	t2,t2,t7
9d00db30:	114d0002 	beq	t2,t5,9d00db3c <L7>
9d00db34:	00000000 	nop
9d00db38:	014d782b 	sltu	t7,t2,t5

9d00db3c <L7>:
9d00db3c:	11e00037 	beqz	t7,9d00dc1c <Bres>
9d00db40:	00000000 	nop
9d00db44:	312f0001 	andi	t7,t1,0x1
9d00db48:	11e00002 	beqz	t7,9d00db54 <i3>
9d00db4c:	00000000 	nop
9d00db50:	35290002 	ori	t1,t1,0x2

9d00db54 <i3>:
9d00db54:	00094842 	srl	t1,t1,0x1
9d00db58:	000a7fc0 	sll	t7,t2,0x1f
9d00db5c:	012f4825 	or	t1,t1,t7
9d00db60:	000a5042 	srl	t2,t2,0x1
9d00db64:	3c018000 	lui	at,0x8000
9d00db68:	01415025 	or	t2,t2,at
9d00db6c:	256b0001 	addiu	t3,t3,1
9d00db70:	240107ff 	li	at,2047
9d00db74:	15610029 	bne	t3,at,9d00dc1c <Bres>
9d00db78:	00000000 	nop
9d00db7c:	3c017ff0 	lui	at,0x7ff0
9d00db80:	00a12825 	or	a1,a1,at
9d00db84:	10000037 	b	9d00dc64 <BretA>
9d00db88:	24040000 	li	a0,0

9d00db8c <Bsub1>:
9d00db8c:	012c782b 	sltu	t7,t1,t4
9d00db90:	012c4823 	subu	t1,t1,t4
9d00db94:	014f102b 	sltu	v0,t2,t7
9d00db98:	014f5023 	subu	t2,t2,t7
9d00db9c:	014d782b 	sltu	t7,t2,t5
9d00dba0:	01e27825 	or	t7,t7,v0
9d00dba4:	11e00007 	beqz	t7,9d00dbc4 <i5>
9d00dba8:	014d5023 	subu	t2,t2,t5
9d00dbac:	3c018000 	lui	at,0x8000
9d00dbb0:	00a12826 	xor	a1,a1,at
9d00dbb4:	0009782b 	sltu	t7,zero,t1
9d00dbb8:	00094823 	negu	t1,t1
9d00dbbc:	000a5023 	negu	t2,t2
9d00dbc0:	014f5023 	subu	t2,t2,t7

9d00dbc4 <i5>:
9d00dbc4:	15400008 	bnez	t2,9d00dbe8 <L8>
9d00dbc8:	00000000 	nop
9d00dbcc:	15200003 	bnez	t1,9d00dbdc <L9>
9d00dbd0:	00000000 	nop
9d00dbd4:	1000000d 	b	9d00dc0c <L10>
9d00dbd8:	240b0000 	li	t3,0

9d00dbdc <L9>:
9d00dbdc:	01205025 	move	t2,t1
9d00dbe0:	24090000 	li	t1,0
9d00dbe4:	256bffe0 	addiu	t3,t3,-32

9d00dbe8 <L8>:
9d00dbe8:	71484020 	clz	t0,t2
9d00dbec:	11000007 	beqz	t0,9d00dc0c <L10>
9d00dbf0:	00000000 	nop
9d00dbf4:	01685823 	subu	t3,t3,t0
9d00dbf8:	00082022 	neg	a0,t0
9d00dbfc:	00892006 	srlv	a0,t1,a0
9d00dc00:	01094804 	sllv	t1,t1,t0
9d00dc04:	010a5004 	sllv	t2,t2,t0
9d00dc08:	01445025 	or	t2,t2,a0

9d00dc0c <L10>:
9d00dc0c:	01497825 	or	t7,t2,t1
9d00dc10:	15e00002 	bnez	t7,9d00dc1c <Bres>
9d00dc14:	00000000 	nop
9d00dc18:	24050000 	li	a1,0

9d00dc1c <Bres>:
9d00dc1c:	19600068 	blez	t3,9d00ddc0 <Bund>
9d00dc20:	00000000 	nop

9d00dc24 <Blab8>:
9d00dc24:	25290400 	addiu	t1,t1,1024
9d00dc28:	2d2f0400 	sltiu	t7,t1,1024
9d00dc2c:	014f5021 	addu	t2,t2,t7
9d00dc30:	014f782b 	sltu	t7,t2,t7
9d00dc34:	016f5821 	addu	t3,t3,t7
9d00dc38:	00097ac2 	srl	t7,t1,0xb
9d00dc3c:	31ef0001 	andi	t7,t7,0x1
9d00dc40:	012f4823 	subu	t1,t1,t7
9d00dc44:	000922c2 	srl	a0,t1,0xb
9d00dc48:	000a7d40 	sll	t7,t2,0x15
9d00dc4c:	008f2025 	or	a0,a0,t7
9d00dc50:	000a7840 	sll	t7,t2,0x1
9d00dc54:	000f7b02 	srl	t7,t7,0xc
9d00dc58:	00af2825 	or	a1,a1,t7
9d00dc5c:	000b7d00 	sll	t7,t3,0x14
9d00dc60:	00af2825 	or	a1,a1,t7

9d00dc64 <BretA>:
9d00dc64:	00041025 	or	v0,zero,a0
9d00dc68:	00051825 	or	v1,zero,a1

9d00dc6c <B999>:
9d00dc6c:	03e00008 	jr	ra
9d00dc70:	00000000 	nop

9d00dc74 <BspecA>:
9d00dc74:	0120782a 	slt	t7,t1,zero
9d00dc78:	01294821 	addu	t1,t1,t1
9d00dc7c:	014a5021 	addu	t2,t2,t2
9d00dc80:	15600023 	bnez	t3,9d00dd10 <i7>
9d00dc84:	014f5021 	addu	t2,t2,t7
9d00dc88:	01497825 	or	t7,t2,t1
9d00dc8c:	11e00014 	beqz	t7,9d00dce0 <i8>
9d00dc90:	00000000 	nop
9d00dc94:	15400008 	bnez	t2,9d00dcb8 <L11>
9d00dc98:	00000000 	nop
9d00dc9c:	15200003 	bnez	t1,9d00dcac <L12>
9d00dca0:	00000000 	nop
9d00dca4:	1000ff67 	b	9d00da44 <Blab1>
9d00dca8:	240b0000 	li	t3,0

9d00dcac <L12>:
9d00dcac:	01205025 	move	t2,t1
9d00dcb0:	24090000 	li	t1,0
9d00dcb4:	256bffe0 	addiu	t3,t3,-32

9d00dcb8 <L11>:
9d00dcb8:	71484020 	clz	t0,t2
9d00dcbc:	1100ff61 	beqz	t0,9d00da44 <Blab1>
9d00dcc0:	00000000 	nop
9d00dcc4:	01685823 	subu	t3,t3,t0
9d00dcc8:	00082022 	neg	a0,t0
9d00dccc:	00892006 	srlv	a0,t1,a0
9d00dcd0:	01094804 	sllv	t1,t1,t0
9d00dcd4:	010a5004 	sllv	t2,t2,t0
9d00dcd8:	1000ff5a 	b	9d00da44 <Blab1>
9d00dcdc:	01445025 	or	t2,t2,a0

9d00dce0 <i8>:
9d00dce0:	240107ff 	li	at,2047
9d00dce4:	11c10015 	beq	t6,at,9d00dd3c <BspecB>
9d00dce8:	00000000 	nop
9d00dcec:	00e74021 	addu	t0,a3,a3
9d00dcf0:	01067825 	or	t7,t0,a2
9d00dcf4:	15e00003 	bnez	t7,9d00dd04 <BretB>
9d00dcf8:	00000000 	nop
9d00dcfc:	04e0ffd9 	bltz	a3,9d00dc64 <BretA>
9d00dd00:	00000000 	nop

9d00dd04 <BretB>:
9d00dd04:	00061025 	or	v0,zero,a2
9d00dd08:	1000ffd8 	b	9d00dc6c <B999>
9d00dd0c:	00071825 	or	v1,zero,a3

9d00dd10 <i7>:
9d00dd10:	01497825 	or	t7,t2,t1
9d00dd14:	15e00027 	bnez	t7,9d00ddb4 <Bnan>
9d00dd18:	00000000 	nop
9d00dd1c:	240107ff 	li	at,2047
9d00dd20:	15c1ffd0 	bne	t6,at,9d00dc64 <BretA>
9d00dd24:	00000000 	nop
9d00dd28:	00a77826 	xor	t7,a1,a3
9d00dd2c:	05e00021 	bltz	t7,9d00ddb4 <Bnan>
9d00dd30:	00000000 	nop
9d00dd34:	1000fff3 	b	9d00dd04 <BretB>
9d00dd38:	00000000 	nop

9d00dd3c <BspecB>:
9d00dd3c:	0180782a 	slt	t7,t4,zero
9d00dd40:	018c6021 	addu	t4,t4,t4
9d00dd44:	01ad6821 	addu	t5,t5,t5
9d00dd48:	15c00017 	bnez	t6,9d00dda8 <i11>
9d00dd4c:	01af6821 	addu	t5,t5,t7
9d00dd50:	01ac7825 	or	t7,t5,t4
9d00dd54:	11e0ffc3 	beqz	t7,9d00dc64 <BretA>
9d00dd58:	00000000 	nop
9d00dd5c:	15a00008 	bnez	t5,9d00dd80 <L14>
9d00dd60:	00000000 	nop
9d00dd64:	15800003 	bnez	t4,9d00dd74 <L15>
9d00dd68:	00000000 	nop
9d00dd6c:	1000ff39 	b	9d00da54 <Blab2>
9d00dd70:	240e0000 	li	t6,0

9d00dd74 <L15>:
9d00dd74:	01806825 	move	t5,t4
9d00dd78:	240c0000 	li	t4,0
9d00dd7c:	25ceffe0 	addiu	t6,t6,-32

9d00dd80 <L14>:
9d00dd80:	71a84020 	clz	t0,t5
9d00dd84:	1100ff33 	beqz	t0,9d00da54 <Blab2>
9d00dd88:	00000000 	nop
9d00dd8c:	01c87023 	subu	t6,t6,t0
9d00dd90:	00082022 	neg	a0,t0
9d00dd94:	008c2006 	srlv	a0,t4,a0
9d00dd98:	010c6004 	sllv	t4,t4,t0
9d00dd9c:	010d6804 	sllv	t5,t5,t0
9d00dda0:	1000ff2c 	b	9d00da54 <Blab2>
9d00dda4:	01a46825 	or	t5,t5,a0

9d00dda8 <i11>:
9d00dda8:	01ac7825 	or	t7,t5,t4
9d00ddac:	11e0ffd5 	beqz	t7,9d00dd04 <BretB>
9d00ddb0:	00000000 	nop

9d00ddb4 <Bnan>:
9d00ddb4:	3c05fff8 	lui	a1,0xfff8
9d00ddb8:	1000ffaa 	b	9d00dc64 <BretA>
9d00ddbc:	24040000 	li	a0,0

9d00ddc0 <Bund>:
9d00ddc0:	24080001 	li	t0,1
9d00ddc4:	010b4023 	subu	t0,t0,t3

9d00ddc8 <L17>:
9d00ddc8:	2d010020 	sltiu	at,t0,32
9d00ddcc:	14200007 	bnez	at,9d00ddec <L18>
9d00ddd0:	00000000 	nop
9d00ddd4:	2108ffe0 	addi	t0,t0,-32
9d00ddd8:	0009302b 	sltu	a2,zero,t1
9d00dddc:	100a000d 	beq	zero,t2,9d00de14 <L19>
9d00dde0:	01464825 	or	t1,t2,a2
9d00dde4:	1000fff8 	b	9d00ddc8 <L17>
9d00dde8:	340a0000 	li	t2,0x0

9d00ddec <L18>:
9d00ddec:	11000009 	beqz	t0,9d00de14 <L19>
9d00ddf0:	00000000 	nop
9d00ddf4:	00082022 	neg	a0,t0
9d00ddf8:	00893004 	sllv	a2,t1,a0
9d00ddfc:	008a2004 	sllv	a0,t2,a0
9d00de00:	01094806 	srlv	t1,t1,t0
9d00de04:	010a5006 	srlv	t2,t2,t0
9d00de08:	10c00002 	beqz	a2,9d00de14 <L19>
9d00de0c:	00894825 	or	t1,a0,t1
9d00de10:	35290002 	ori	t1,t1,0x2

9d00de14 <L19>:
9d00de14:	1000ff83 	b	9d00dc24 <Blab8>
9d00de18:	240b0000 	li	t3,0
9d00de1c:	00000000 	nop

Disassembly of section .text.__scan_fp:

9d00de20 <__scan_fp>:
9d00de20:	8cc2000c 	lw	v0,12(a2)
9d00de24:	27bdffb0 	addiu	sp,sp,-80
9d00de28:	afb40038 	sw	s4,56(sp)
9d00de2c:	afb00028 	sw	s0,40(sp)
9d00de30:	00e0a025 	move	s4,a3
9d00de34:	8cd00010 	lw	s0,16(a2)
9d00de38:	afb70044 	sw	s7,68(sp)
9d00de3c:	afb60040 	sw	s6,64(sp)
9d00de40:	afb5003c 	sw	s5,60(sp)
9d00de44:	afb30034 	sw	s3,52(sp)
9d00de48:	afb20030 	sw	s2,48(sp)
9d00de4c:	afb1002c 	sw	s1,44(sp)
9d00de50:	00809825 	move	s3,a0
9d00de54:	8cd10008 	lw	s1,8(a2)
9d00de58:	afbf004c 	sw	ra,76(sp)
9d00de5c:	afbe0048 	sw	s8,72(sp)
9d00de60:	afa50054 	sw	a1,84(sp)
9d00de64:	0f404855 	jal	9d012154 <__skipws>
9d00de68:	afa20018 	sw	v0,24(sp)
9d00de6c:	8e840000 	lw	a0,0(s4)
9d00de70:	2603ffff 	addiu	v1,s0,-1
9d00de74:	0071880a 	movz	s1,v1,s1
9d00de78:	00821021 	addu	v0,a0,v0
9d00de7c:	ae820000 	sw	v0,0(s4)
9d00de80:	0071102a 	slt	v0,v1,s1
9d00de84:	0222180a 	movz	v1,s1,v0
9d00de88:	8fb10018 	lw	s1,24(sp)
9d00de8c:	afa30024 	sw	v1,36(sp)
9d00de90:	24170001 	li	s7,1
9d00de94:	00008025 	move	s0,zero
9d00de98:	0000b025 	move	s6,zero
9d00de9c:	00009025 	move	s2,zero
9d00dea0:	0000a825 	move	s5,zero
9d00dea4:	afa00020 	sw	zero,32(sp)
9d00dea8:	8fa20024 	lw	v0,36(sp)
9d00deac:	0202102a 	slt	v0,s0,v0
9d00deb0:	10400017 	beqz	v0,9d00df10 <__scan_fp+0xf0>
9d00deb4:	afb0001c 	sw	s0,28(sp)
9d00deb8:	8e62003c 	lw	v0,60(s3)
9d00debc:	8e63004c 	lw	v1,76(s3)
9d00dec0:	0043182b 	sltu	v1,v0,v1
9d00dec4:	10600024 	beqz	v1,9d00df58 <__scan_fp+0x138>
9d00dec8:	24430001 	addiu	v1,v0,1
9d00decc:	ae63003c 	sw	v1,60(s3)
9d00ded0:	905e0000 	lbu	s8,0(v0)
9d00ded4:	27c2ffd5 	addiu	v0,s8,-43
9d00ded8:	7c020844 	ins	v0,zero,0x1,0x1
9d00dedc:	00521025 	or	v0,v0,s2
9d00dee0:	5440003a 	bnezl	v0,9d00dfcc <__scan_fp+0x1ac>
9d00dee4:	8fa20020 	lw	v0,32(sp)
9d00dee8:	52000030 	beqzl	s0,9d00dfac <__scan_fp+0x18c>
9d00deec:	a23e0000 	sb	s8,0(s1)
9d00def0:	52b0002e 	beql	s5,s0,9d00dfac <__scan_fp+0x18c>
9d00def4:	a23e0000 	sb	s8,0(s1)
9d00def8:	8e62004c 	lw	v0,76(s3)
9d00defc:	10400005 	beqz	v0,9d00df14 <__scan_fp+0xf4>
9d00df00:	8fa20018 	lw	v0,24(sp)
9d00df04:	8e62003c 	lw	v0,60(s3)
9d00df08:	2442ffff 	addiu	v0,v0,-1
9d00df0c:	ae62003c 	sw	v0,60(s3)
9d00df10:	8fa20018 	lw	v0,24(sp)
9d00df14:	8fa3001c 	lw	v1,28(sp)
9d00df18:	27a50010 	addiu	a1,sp,16
9d00df1c:	00402025 	move	a0,v0
9d00df20:	00439821 	addu	s3,v0,v1
9d00df24:	0f404ed6 	jal	9d013b58 <strtold>
9d00df28:	a2600000 	sb	zero,0(s3)
9d00df2c:	8fa40054 	lw	a0,84(sp)
9d00df30:	ac820000 	sw	v0,0(a0)
9d00df34:	ac830004 	sw	v1,4(a0)
9d00df38:	8fa20018 	lw	v0,24(sp)
9d00df3c:	8fa30010 	lw	v1,16(sp)
9d00df40:	0062a026 	xor	s4,v1,v0
9d00df44:	2402fffe 	li	v0,-2
9d00df48:	24030001 	li	v1,1
9d00df4c:	0054180a 	movz	v1,v0,s4
9d00df50:	10000009 	b	9d00df78 <__scan_fp+0x158>
9d00df54:	0060f025 	move	s8,v1
9d00df58:	0f4046ff 	jal	9d011bfc <__shgetc>
9d00df5c:	02602025 	move	a0,s3
9d00df60:	0040f025 	move	s8,v0
9d00df64:	2402ffff 	li	v0,-1
9d00df68:	17c2ffda 	bne	s8,v0,9d00ded4 <__scan_fp+0xb4>
9d00df6c:	8fa2001c 	lw	v0,28(sp)
9d00df70:	1440ffe8 	bnez	v0,9d00df14 <__scan_fp+0xf4>
9d00df74:	8fa20018 	lw	v0,24(sp)
9d00df78:	8fbf004c 	lw	ra,76(sp)
9d00df7c:	03c01025 	move	v0,s8
9d00df80:	8fb70044 	lw	s7,68(sp)
9d00df84:	8fbe0048 	lw	s8,72(sp)
9d00df88:	8fb60040 	lw	s6,64(sp)
9d00df8c:	8fb5003c 	lw	s5,60(sp)
9d00df90:	8fb40038 	lw	s4,56(sp)
9d00df94:	8fb30034 	lw	s3,52(sp)
9d00df98:	8fb20030 	lw	s2,48(sp)
9d00df9c:	8fb1002c 	lw	s1,44(sp)
9d00dfa0:	8fb00028 	lw	s0,40(sp)
9d00dfa4:	03e00008 	jr	ra
9d00dfa8:	27bd0050 	addiu	sp,sp,80
9d00dfac:	8e820000 	lw	v0,0(s4)
9d00dfb0:	24120001 	li	s2,1
9d00dfb4:	24420001 	addiu	v0,v0,1
9d00dfb8:	ae820000 	sw	v0,0(s4)
9d00dfbc:	26100001 	addiu	s0,s0,1
9d00dfc0:	26f70001 	addiu	s7,s7,1
9d00dfc4:	1000ffb8 	b	9d00dea8 <__scan_fp+0x88>
9d00dfc8:	26310001 	addiu	s1,s1,1
9d00dfcc:	1440000c 	bnez	v0,9d00e000 <__scan_fp+0x1e0>
9d00dfd0:	2402002e 	li	v0,46
9d00dfd4:	17c2000a 	bne	s8,v0,9d00e000 <__scan_fp+0x1e0>
9d00dfd8:	00000000 	nop
9d00dfdc:	56a0ffc7 	bnezl	s5,9d00defc <__scan_fp+0xdc>
9d00dfe0:	8e62004c 	lw	v0,76(s3)
9d00dfe4:	a23e0000 	sb	s8,0(s1)
9d00dfe8:	8e820000 	lw	v0,0(s4)
9d00dfec:	24420001 	addiu	v0,v0,1
9d00dff0:	ae820000 	sw	v0,0(s4)
9d00dff4:	24020001 	li	v0,1
9d00dff8:	1000fff0 	b	9d00dfbc <__scan_fp+0x19c>
9d00dffc:	afa20020 	sw	v0,32(sp)
9d00e000:	16a0004c 	bnez	s5,9d00e134 <__scan_fp+0x314>
9d00e004:	00000000 	nop
9d00e008:	12c0000e 	beqz	s6,9d00e044 <__scan_fp+0x224>
9d00e00c:	03c02025 	move	a0,s8
9d00e010:	0f404ef2 	jal	9d013bc8 <tolower>
9d00e014:	00000000 	nop
9d00e018:	38420070 	xori	v0,v0,0x70
9d00e01c:	2c420001 	sltiu	v0,v0,1
9d00e020:	10400042 	beqz	v0,9d00e12c <__scan_fp+0x30c>
9d00e024:	26420001 	addiu	v0,s2,1
9d00e028:	a23e0000 	sb	s8,0(s1)
9d00e02c:	8e820000 	lw	v0,0(s4)
9d00e030:	00009025 	move	s2,zero
9d00e034:	02e0a825 	move	s5,s7
9d00e038:	24420001 	addiu	v0,v0,1
9d00e03c:	1000ffdf 	b	9d00dfbc <__scan_fp+0x19c>
9d00e040:	ae820000 	sw	v0,0(s4)
9d00e044:	0f404ef2 	jal	9d013bc8 <tolower>
9d00e048:	00000000 	nop
9d00e04c:	1000fff3 	b	9d00e01c <__scan_fp+0x1fc>
9d00e050:	38420065 	xori	v0,v0,0x65
9d00e054:	0f404ef2 	jal	9d013bc8 <tolower>
9d00e058:	03c02025 	move	a0,s8
9d00e05c:	24040078 	li	a0,120
9d00e060:	14440034 	bne	v0,a0,9d00e134 <__scan_fp+0x314>
9d00e064:	24020030 	li	v0,48
9d00e068:	8224ffff 	lb	a0,-1(s1)
9d00e06c:	14820031 	bne	a0,v0,9d00e134 <__scan_fp+0x314>
9d00e070:	00000000 	nop
9d00e074:	a23e0000 	sb	s8,0(s1)
9d00e078:	8e820000 	lw	v0,0(s4)
9d00e07c:	24160001 	li	s6,1
9d00e080:	24420001 	addiu	v0,v0,1
9d00e084:	1000ffcd 	b	9d00dfbc <__scan_fp+0x19c>
9d00e088:	ae820000 	sw	v0,0(s4)
9d00e08c:	2c42000a 	sltiu	v0,v0,10
9d00e090:	1000002d 	b	9d00e148 <__scan_fp+0x328>
9d00e094:	38420001 	xori	v0,v0,0x1
9d00e098:	0f4046ff 	jal	9d011bfc <__shgetc>
9d00e09c:	02602025 	move	a0,s3
9d00e0a0:	00408825 	move	s1,v0
9d00e0a4:	2402ffff 	li	v0,-1
9d00e0a8:	5222ff9a 	beql	s1,v0,9d00df14 <__scan_fp+0xf4>
9d00e0ac:	8fa20018 	lw	v0,24(sp)
9d00e0b0:	10000044 	b	9d00e1c4 <__scan_fp+0x3a4>
9d00e0b4:	02202025 	move	a0,s1
9d00e0b8:	0f404ef2 	jal	9d013bc8 <tolower>
9d00e0bc:	00000000 	nop
9d00e0c0:	00171880 	sll	v1,s7,0x2
9d00e0c4:	03a31821 	addu	v1,sp,v1
9d00e0c8:	8c630010 	lw	v1,16(v1)
9d00e0cc:	00761821 	addu	v1,v1,s6
9d00e0d0:	80630000 	lb	v1,0(v1)
9d00e0d4:	14430045 	bne	v0,v1,9d00e1ec <__scan_fp+0x3cc>
9d00e0d8:	0255102a 	slt	v0,s2,s5
9d00e0dc:	8fa20018 	lw	v0,24(sp)
9d00e0e0:	26d60001 	addiu	s6,s6,1
9d00e0e4:	0055a821 	addu	s5,v0,s5
9d00e0e8:	24020003 	li	v0,3
9d00e0ec:	16c2002b 	bne	s6,v0,9d00e19c <__scan_fp+0x37c>
9d00e0f0:	a2b10000 	sb	s1,0(s5)
9d00e0f4:	26020003 	addiu	v0,s0,3
9d00e0f8:	afa2001c 	sw	v0,28(sp)
9d00e0fc:	8e820000 	lw	v0,0(s4)
9d00e100:	24420003 	addiu	v0,v0,3
9d00e104:	1000ff82 	b	9d00df10 <__scan_fp+0xf0>
9d00e108:	ae820000 	sw	v0,0(s4)
9d00e10c:	1000fff3 	b	9d00e0dc <__scan_fp+0x2bc>
9d00e110:	0000b825 	move	s7,zero
9d00e114:	1000fff1 	b	9d00e0dc <__scan_fp+0x2bc>
9d00e118:	24170001 	li	s7,1
9d00e11c:	8e820000 	lw	v0,0(s4)
9d00e120:	24420001 	addiu	v0,v0,1
9d00e124:	1000ffa5 	b	9d00dfbc <__scan_fp+0x19c>
9d00e128:	ae820000 	sw	v0,0(s4)
9d00e12c:	1050ffc9 	beq	v0,s0,9d00e054 <__scan_fp+0x234>
9d00e130:	00000000 	nop
9d00e134:	12c0ffd5 	beqz	s6,9d00e08c <__scan_fp+0x26c>
9d00e138:	27c2ffd0 	addiu	v0,s8,-48
9d00e13c:	0f404eae 	jal	9d013ab8 <isxdigit>
9d00e140:	03c02025 	move	a0,s8
9d00e144:	2c420001 	sltiu	v0,v0,1
9d00e148:	5040fff4 	beqzl	v0,9d00e11c <__scan_fp+0x2fc>
9d00e14c:	a23e0000 	sb	s8,0(s1)
9d00e150:	8e62004c 	lw	v0,76(s3)
9d00e154:	10400004 	beqz	v0,9d00e168 <__scan_fp+0x348>
9d00e158:	00000000 	nop
9d00e15c:	8e62003c 	lw	v0,60(s3)
9d00e160:	2442ffff 	addiu	v0,v0,-1
9d00e164:	ae62003c 	sw	v0,60(s3)
9d00e168:	1612ff69 	bne	s0,s2,9d00df10 <__scan_fp+0xf0>
9d00e16c:	3c029d00 	lui	v0,0x9d00
9d00e170:	244275bc 	addiu	v0,v0,30140
9d00e174:	afa20010 	sw	v0,16(sp)
9d00e178:	8fa20024 	lw	v0,36(sp)
9d00e17c:	26120002 	addiu	s2,s0,2
9d00e180:	0242102a 	slt	v0,s2,v0
9d00e184:	1040ff62 	beqz	v0,9d00df10 <__scan_fp+0xf0>
9d00e188:	3c029d00 	lui	v0,0x9d00
9d00e18c:	244275c0 	addiu	v0,v0,30144
9d00e190:	afa20014 	sw	v0,20(sp)
9d00e194:	0000b025 	move	s6,zero
9d00e198:	2417ffff 	li	s7,-1
9d00e19c:	8e62003c 	lw	v0,60(s3)
9d00e1a0:	8e63004c 	lw	v1,76(s3)
9d00e1a4:	0043182b 	sltu	v1,v0,v1
9d00e1a8:	1060ffbb 	beqz	v1,9d00e098 <__scan_fp+0x278>
9d00e1ac:	02d0a821 	addu	s5,s6,s0
9d00e1b0:	24430001 	addiu	v1,v0,1
9d00e1b4:	ae63003c 	sw	v1,60(s3)
9d00e1b8:	90510000 	lbu	s1,0(v0)
9d00e1bc:	2402ffff 	li	v0,-1
9d00e1c0:	02202025 	move	a0,s1
9d00e1c4:	16e2ffbc 	bne	s7,v0,9d00e0b8 <__scan_fp+0x298>
9d00e1c8:	00000000 	nop
9d00e1cc:	0f404ef2 	jal	9d013bc8 <tolower>
9d00e1d0:	00000000 	nop
9d00e1d4:	00408825 	move	s1,v0
9d00e1d8:	24020069 	li	v0,105
9d00e1dc:	1222ffcb 	beq	s1,v0,9d00e10c <__scan_fp+0x2ec>
9d00e1e0:	2402006e 	li	v0,110
9d00e1e4:	1222ffcb 	beq	s1,v0,9d00e114 <__scan_fp+0x2f4>
9d00e1e8:	0255102a 	slt	v0,s2,s5
9d00e1ec:	1440ffc2 	bnez	v0,9d00e0f8 <__scan_fp+0x2d8>
9d00e1f0:	26020003 	addiu	v0,s0,3
9d00e1f4:	26b5ffff 	addiu	s5,s5,-1
9d00e1f8:	02b0102a 	slt	v0,s5,s0
9d00e1fc:	1440ff45 	bnez	v0,9d00df14 <__scan_fp+0xf4>
9d00e200:	8fa20018 	lw	v0,24(sp)
9d00e204:	8e62004c 	lw	v0,76(s3)
9d00e208:	5040fffb 	beqzl	v0,9d00e1f8 <__scan_fp+0x3d8>
9d00e20c:	26b5ffff 	addiu	s5,s5,-1
9d00e210:	8e62003c 	lw	v0,60(s3)
9d00e214:	2442ffff 	addiu	v0,v0,-1
9d00e218:	1000fff6 	b	9d00e1f4 <__scan_fp+0x3d4>
9d00e21c:	ae62003c 	sw	v0,60(s3)

Disassembly of section .text:

9d00e220 <__udivdi3>:
9d00e220:	00c04025 	move	t0,a2
9d00e224:	00e01825 	move	v1,a3
9d00e228:	00805025 	move	t2,a0
9d00e22c:	14e00098 	bnez	a3,9d00e490 <__udivdi3+0x270>
9d00e230:	00a01025 	move	v0,a1
9d00e234:	00a6302b 	sltu	a2,a1,a2
9d00e238:	10c00035 	beqz	a2,9d00e310 <__udivdi3+0xf0>
9d00e23c:	00000000 	nop
9d00e240:	71052820 	clz	a1,t0
9d00e244:	10a00006 	beqz	a1,9d00e260 <__udivdi3+0x40>
9d00e248:	00052023 	negu	a0,a1
9d00e24c:	008a2006 	srlv	a0,t2,a0
9d00e250:	00a21004 	sllv	v0,v0,a1
9d00e254:	00a84004 	sllv	t0,t0,a1
9d00e258:	00821025 	or	v0,a0,v0
9d00e25c:	00aa5004 	sllv	t2,t2,a1
9d00e260:	00083402 	srl	a2,t0,0x10
9d00e264:	0046001b 	divu	zero,v0,a2
9d00e268:	00c001f4 	teq	a2,zero,0x7
9d00e26c:	3105ffff 	andi	a1,t0,0xffff
9d00e270:	000a2402 	srl	a0,t2,0x10
9d00e274:	00003812 	mflo	a3
9d00e278:	00001010 	mfhi	v0
9d00e27c:	00021400 	sll	v0,v0,0x10
9d00e280:	00442025 	or	a0,v0,a0
9d00e284:	70a74802 	mul	t1,a1,a3
9d00e288:	0089582b 	sltu	t3,a0,t1
9d00e28c:	1160000a 	beqz	t3,9d00e2b8 <__udivdi3+0x98>
9d00e290:	00e01025 	move	v0,a3
9d00e294:	00882021 	addu	a0,a0,t0
9d00e298:	0088582b 	sltu	t3,a0,t0
9d00e29c:	15600006 	bnez	t3,9d00e2b8 <__udivdi3+0x98>
9d00e2a0:	24e2ffff 	addiu	v0,a3,-1
9d00e2a4:	0089582b 	sltu	t3,a0,t1
9d00e2a8:	51600004 	beqzl	t3,9d00e2bc <__udivdi3+0x9c>
9d00e2ac:	00892023 	subu	a0,a0,t1
9d00e2b0:	24e2fffe 	addiu	v0,a3,-2
9d00e2b4:	00882021 	addu	a0,a0,t0
9d00e2b8:	00892023 	subu	a0,a0,t1
9d00e2bc:	0086001b 	divu	zero,a0,a2
9d00e2c0:	00c001f4 	teq	a2,zero,0x7
9d00e2c4:	00003010 	mfhi	a2
9d00e2c8:	00063400 	sll	a2,a2,0x10
9d00e2cc:	00002012 	mflo	a0
9d00e2d0:	70a43802 	mul	a3,a1,a0
9d00e2d4:	3145ffff 	andi	a1,t2,0xffff
9d00e2d8:	00c52825 	or	a1,a2,a1
9d00e2dc:	00a7482b 	sltu	t1,a1,a3
9d00e2e0:	11200008 	beqz	t1,9d00e304 <__udivdi3+0xe4>
9d00e2e4:	00803025 	move	a2,a0
9d00e2e8:	01052821 	addu	a1,t0,a1
9d00e2ec:	00a8402b 	sltu	t0,a1,t0
9d00e2f0:	15000004 	bnez	t0,9d00e304 <__udivdi3+0xe4>
9d00e2f4:	2486ffff 	addiu	a2,a0,-1
9d00e2f8:	00a7282b 	sltu	a1,a1,a3
9d00e2fc:	54a00001 	bnezl	a1,9d00e304 <__udivdi3+0xe4>
9d00e300:	2486fffe 	addiu	a2,a0,-2
9d00e304:	00021400 	sll	v0,v0,0x10
9d00e308:	03e00008 	jr	ra
9d00e30c:	00461025 	or	v0,v0,a2
9d00e310:	15000004 	bnez	t0,9d00e324 <__udivdi3+0x104>
9d00e314:	24020001 	li	v0,1
9d00e318:	0048001b 	divu	zero,v0,t0
9d00e31c:	010001f4 	teq	t0,zero,0x7
9d00e320:	00004012 	mflo	t0
9d00e324:	710b5820 	clz	t3,t0
9d00e328:	15600023 	bnez	t3,9d00e3b8 <__udivdi3+0x198>
9d00e32c:	24070020 	li	a3,32
9d00e330:	00a82823 	subu	a1,a1,t0
9d00e334:	24030001 	li	v1,1
9d00e338:	00083402 	srl	a2,t0,0x10
9d00e33c:	00a6001b 	divu	zero,a1,a2
9d00e340:	00c001f4 	teq	a2,zero,0x7
9d00e344:	3107ffff 	andi	a3,t0,0xffff
9d00e348:	000a2402 	srl	a0,t2,0x10
9d00e34c:	00002812 	mflo	a1
9d00e350:	00001010 	mfhi	v0
9d00e354:	00021400 	sll	v0,v0,0x10
9d00e358:	00442025 	or	a0,v0,a0
9d00e35c:	70e54802 	mul	t1,a3,a1
9d00e360:	0089582b 	sltu	t3,a0,t1
9d00e364:	1160000a 	beqz	t3,9d00e390 <__udivdi3+0x170>
9d00e368:	00a01025 	move	v0,a1
9d00e36c:	00882021 	addu	a0,a0,t0
9d00e370:	0088582b 	sltu	t3,a0,t0
9d00e374:	15600006 	bnez	t3,9d00e390 <__udivdi3+0x170>
9d00e378:	24a2ffff 	addiu	v0,a1,-1
9d00e37c:	0089582b 	sltu	t3,a0,t1
9d00e380:	51600004 	beqzl	t3,9d00e394 <__udivdi3+0x174>
9d00e384:	00892023 	subu	a0,a0,t1
9d00e388:	24a2fffe 	addiu	v0,a1,-2
9d00e38c:	00882021 	addu	a0,a0,t0
9d00e390:	00892023 	subu	a0,a0,t1
9d00e394:	0086001b 	divu	zero,a0,a2
9d00e398:	00c001f4 	teq	a2,zero,0x7
9d00e39c:	314affff 	andi	t2,t2,0xffff
9d00e3a0:	00002810 	mfhi	a1
9d00e3a4:	00052c00 	sll	a1,a1,0x10
9d00e3a8:	00aa2825 	or	a1,a1,t2
9d00e3ac:	00002012 	mflo	a0
9d00e3b0:	1000ffca 	b	9d00e2dc <__udivdi3+0xbc>
9d00e3b4:	70e43802 	mul	a3,a3,a0
9d00e3b8:	00eb3823 	subu	a3,a3,t3
9d00e3bc:	01684004 	sllv	t0,t0,t3
9d00e3c0:	00e44806 	srlv	t1,a0,a3
9d00e3c4:	00083402 	srl	a2,t0,0x10
9d00e3c8:	00e53806 	srlv	a3,a1,a3
9d00e3cc:	00e6001b 	divu	zero,a3,a2
9d00e3d0:	00c001f4 	teq	a2,zero,0x7
9d00e3d4:	01651004 	sllv	v0,a1,t3
9d00e3d8:	01224825 	or	t1,t1,v0
9d00e3dc:	3102ffff 	andi	v0,t0,0xffff
9d00e3e0:	00091c02 	srl	v1,t1,0x10
9d00e3e4:	00002812 	mflo	a1
9d00e3e8:	00003810 	mfhi	a3
9d00e3ec:	00073c00 	sll	a3,a3,0x10
9d00e3f0:	00e33825 	or	a3,a3,v1
9d00e3f4:	70455002 	mul	t2,v0,a1
9d00e3f8:	00ea602b 	sltu	t4,a3,t2
9d00e3fc:	1180000a 	beqz	t4,9d00e428 <__udivdi3+0x208>
9d00e400:	00a01825 	move	v1,a1
9d00e404:	00e83821 	addu	a3,a3,t0
9d00e408:	00e8602b 	sltu	t4,a3,t0
9d00e40c:	15800006 	bnez	t4,9d00e428 <__udivdi3+0x208>
9d00e410:	24a3ffff 	addiu	v1,a1,-1
9d00e414:	00ea602b 	sltu	t4,a3,t2
9d00e418:	51800004 	beqzl	t4,9d00e42c <__udivdi3+0x20c>
9d00e41c:	00ea3823 	subu	a3,a3,t2
9d00e420:	24a3fffe 	addiu	v1,a1,-2
9d00e424:	00e83821 	addu	a3,a3,t0
9d00e428:	00ea3823 	subu	a3,a3,t2
9d00e42c:	00e6001b 	divu	zero,a3,a2
9d00e430:	00c001f4 	teq	a2,zero,0x7
9d00e434:	3125ffff 	andi	a1,t1,0xffff
9d00e438:	00003012 	mflo	a2
9d00e43c:	00003810 	mfhi	a3
9d00e440:	00073c00 	sll	a3,a3,0x10
9d00e444:	00e52825 	or	a1,a3,a1
9d00e448:	70461002 	mul	v0,v0,a2
9d00e44c:	00a2482b 	sltu	t1,a1,v0
9d00e450:	1120000a 	beqz	t1,9d00e47c <__udivdi3+0x25c>
9d00e454:	00c03825 	move	a3,a2
9d00e458:	00a82821 	addu	a1,a1,t0
9d00e45c:	00a8482b 	sltu	t1,a1,t0
9d00e460:	15200006 	bnez	t1,9d00e47c <__udivdi3+0x25c>
9d00e464:	24c7ffff 	addiu	a3,a2,-1
9d00e468:	00a2482b 	sltu	t1,a1,v0
9d00e46c:	51200004 	beqzl	t1,9d00e480 <__udivdi3+0x260>
9d00e470:	00031c00 	sll	v1,v1,0x10
9d00e474:	24c7fffe 	addiu	a3,a2,-2
9d00e478:	00a82821 	addu	a1,a1,t0
9d00e47c:	00031c00 	sll	v1,v1,0x10
9d00e480:	01645004 	sllv	t2,a0,t3
9d00e484:	00a22823 	subu	a1,a1,v0
9d00e488:	1000ffab 	b	9d00e338 <__udivdi3+0x118>
9d00e48c:	00671825 	or	v1,v1,a3
9d00e490:	00a7402b 	sltu	t0,a1,a3
9d00e494:	00001825 	move	v1,zero
9d00e498:	1500004e 	bnez	t0,9d00e5d4 <__udivdi3+0x3b4>
9d00e49c:	00001025 	move	v0,zero
9d00e4a0:	70ea5020 	clz	t2,a3
9d00e4a4:	15400007 	bnez	t2,9d00e4c4 <__udivdi3+0x2a4>
9d00e4a8:	24090020 	li	t1,32
9d00e4ac:	00e5282b 	sltu	a1,a3,a1
9d00e4b0:	14a00048 	bnez	a1,9d00e5d4 <__udivdi3+0x3b4>
9d00e4b4:	24020001 	li	v0,1
9d00e4b8:	0086102b 	sltu	v0,a0,a2
9d00e4bc:	03e00008 	jr	ra
9d00e4c0:	38420001 	xori	v0,v0,0x1
9d00e4c4:	012a4823 	subu	t1,t1,t2
9d00e4c8:	01261006 	srlv	v0,a2,t1
9d00e4cc:	01473804 	sllv	a3,a3,t2
9d00e4d0:	00473825 	or	a3,v0,a3
9d00e4d4:	01451804 	sllv	v1,a1,t2
9d00e4d8:	00074402 	srl	t0,a3,0x10
9d00e4dc:	01252806 	srlv	a1,a1,t1
9d00e4e0:	00a8001b 	divu	zero,a1,t0
9d00e4e4:	010001f4 	teq	t0,zero,0x7
9d00e4e8:	30ebffff 	andi	t3,a3,0xffff
9d00e4ec:	01241006 	srlv	v0,a0,t1
9d00e4f0:	00431025 	or	v0,v0,v1
9d00e4f4:	00021c02 	srl	v1,v0,0x10
9d00e4f8:	00002812 	mflo	a1
9d00e4fc:	00004810 	mfhi	t1
9d00e500:	00094c00 	sll	t1,t1,0x10
9d00e504:	01234825 	or	t1,t1,v1
9d00e508:	71656002 	mul	t4,t3,a1
9d00e50c:	012c682b 	sltu	t5,t1,t4
9d00e510:	11a0000a 	beqz	t5,9d00e53c <__udivdi3+0x31c>
9d00e514:	00a01825 	move	v1,a1
9d00e518:	01274821 	addu	t1,t1,a3
9d00e51c:	0127682b 	sltu	t5,t1,a3
9d00e520:	15a00006 	bnez	t5,9d00e53c <__udivdi3+0x31c>
9d00e524:	24a3ffff 	addiu	v1,a1,-1
9d00e528:	012c682b 	sltu	t5,t1,t4
9d00e52c:	51a00004 	beqzl	t5,9d00e540 <__udivdi3+0x320>
9d00e530:	012c4823 	subu	t1,t1,t4
9d00e534:	24a3fffe 	addiu	v1,a1,-2
9d00e538:	01274821 	addu	t1,t1,a3
9d00e53c:	012c4823 	subu	t1,t1,t4
9d00e540:	0128001b 	divu	zero,t1,t0
9d00e544:	010001f4 	teq	t0,zero,0x7
9d00e548:	3045ffff 	andi	a1,v0,0xffff
9d00e54c:	00004012 	mflo	t0
9d00e550:	00004810 	mfhi	t1
9d00e554:	00094c00 	sll	t1,t1,0x10
9d00e558:	01252825 	or	a1,t1,a1
9d00e55c:	71685802 	mul	t3,t3,t0
9d00e560:	00ab102b 	sltu	v0,a1,t3
9d00e564:	1040000a 	beqz	v0,9d00e590 <__udivdi3+0x370>
9d00e568:	01004825 	move	t1,t0
9d00e56c:	00a72821 	addu	a1,a1,a3
9d00e570:	00a7102b 	sltu	v0,a1,a3
9d00e574:	14400006 	bnez	v0,9d00e590 <__udivdi3+0x370>
9d00e578:	2509ffff 	addiu	t1,t0,-1
9d00e57c:	00ab102b 	sltu	v0,a1,t3
9d00e580:	10400004 	beqz	v0,9d00e594 <__udivdi3+0x374>
9d00e584:	00031400 	sll	v0,v1,0x10
9d00e588:	2509fffe 	addiu	t1,t0,-2
9d00e58c:	00a72821 	addu	a1,a1,a3
9d00e590:	00031400 	sll	v0,v1,0x10
9d00e594:	01463004 	sllv	a2,a2,t2
9d00e598:	00491025 	or	v0,v0,t1
9d00e59c:	00c20019 	multu	a2,v0
9d00e5a0:	00ab2823 	subu	a1,a1,t3
9d00e5a4:	00003810 	mfhi	a3
9d00e5a8:	00a7182b 	sltu	v1,a1,a3
9d00e5ac:	14600007 	bnez	v1,9d00e5cc <__udivdi3+0x3ac>
9d00e5b0:	00003012 	mflo	a2
9d00e5b4:	14a70007 	bne	a1,a3,9d00e5d4 <__udivdi3+0x3b4>
9d00e5b8:	00001825 	move	v1,zero
9d00e5bc:	01442004 	sllv	a0,a0,t2
9d00e5c0:	0086202b 	sltu	a0,a0,a2
9d00e5c4:	10800003 	beqz	a0,9d00e5d4 <__udivdi3+0x3b4>
9d00e5c8:	00000000 	nop
9d00e5cc:	2442ffff 	addiu	v0,v0,-1
9d00e5d0:	00001825 	move	v1,zero
9d00e5d4:	03e00008 	jr	ra
9d00e5d8:	00000000 	nop

9d00e5dc <__umoddi3>:
9d00e5dc:	00c04825 	move	t1,a2
9d00e5e0:	00801025 	move	v0,a0
9d00e5e4:	14e0008b 	bnez	a3,9d00e814 <__umoddi3+0x238>
9d00e5e8:	00a01825 	move	v1,a1
9d00e5ec:	00a6302b 	sltu	a2,a1,a2
9d00e5f0:	10c00033 	beqz	a2,9d00e6c0 <__umoddi3+0xe4>
9d00e5f4:	712a5020 	clz	t2,t1
9d00e5f8:	11400008 	beqz	t2,9d00e61c <__umoddi3+0x40>
9d00e5fc:	00095c02 	srl	t3,t1,0x10
9d00e600:	01451804 	sllv	v1,a1,t2
9d00e604:	000a2823 	negu	a1,t2
9d00e608:	00a42806 	srlv	a1,a0,a1
9d00e60c:	01494804 	sllv	t1,t1,t2
9d00e610:	00a31825 	or	v1,a1,v1
9d00e614:	01441004 	sllv	v0,a0,t2
9d00e618:	00095c02 	srl	t3,t1,0x10
9d00e61c:	006b001b 	divu	zero,v1,t3
9d00e620:	016001f4 	teq	t3,zero,0x7
9d00e624:	3124ffff 	andi	a0,t1,0xffff
9d00e628:	00001812 	mflo	v1
9d00e62c:	00002810 	mfhi	a1
9d00e630:	70643002 	mul	a2,v1,a0
9d00e634:	00051c00 	sll	v1,a1,0x10
9d00e638:	00022c02 	srl	a1,v0,0x10
9d00e63c:	00651825 	or	v1,v1,a1
9d00e640:	0066282b 	sltu	a1,v1,a2
9d00e644:	50a00008 	beqzl	a1,9d00e668 <__umoddi3+0x8c>
9d00e648:	00661823 	subu	v1,v1,a2
9d00e64c:	00691821 	addu	v1,v1,t1
9d00e650:	0069282b 	sltu	a1,v1,t1
9d00e654:	14a00003 	bnez	a1,9d00e664 <__umoddi3+0x88>
9d00e658:	0066282b 	sltu	a1,v1,a2
9d00e65c:	54a00001 	bnezl	a1,9d00e664 <__umoddi3+0x88>
9d00e660:	00691821 	addu	v1,v1,t1
9d00e664:	00661823 	subu	v1,v1,a2
9d00e668:	006b001b 	divu	zero,v1,t3
9d00e66c:	016001f4 	teq	t3,zero,0x7
9d00e670:	3042ffff 	andi	v0,v0,0xffff
9d00e674:	00003010 	mfhi	a2
9d00e678:	00001812 	mflo	v1
9d00e67c:	70645802 	mul	t3,v1,a0
9d00e680:	00061c00 	sll	v1,a2,0x10
9d00e684:	00621025 	or	v0,v1,v0
9d00e688:	004b182b 	sltu	v1,v0,t3
9d00e68c:	50600009 	beqzl	v1,9d00e6b4 <__umoddi3+0xd8>
9d00e690:	004b1023 	subu	v0,v0,t3
9d00e694:	00491021 	addu	v0,v0,t1
9d00e698:	0049182b 	sltu	v1,v0,t1
9d00e69c:	54600005 	bnezl	v1,9d00e6b4 <__umoddi3+0xd8>
9d00e6a0:	004b1023 	subu	v0,v0,t3
9d00e6a4:	004b182b 	sltu	v1,v0,t3
9d00e6a8:	54600001 	bnezl	v1,9d00e6b0 <__umoddi3+0xd4>
9d00e6ac:	00491021 	addu	v0,v0,t1
9d00e6b0:	004b1023 	subu	v0,v0,t3
9d00e6b4:	01421006 	srlv	v0,v0,t2
9d00e6b8:	03e00008 	jr	ra
9d00e6bc:	00001825 	move	v1,zero
9d00e6c0:	15200004 	bnez	t1,9d00e6d4 <__umoddi3+0xf8>
9d00e6c4:	24030001 	li	v1,1
9d00e6c8:	0069001b 	divu	zero,v1,t1
9d00e6cc:	012001f4 	teq	t1,zero,0x7
9d00e6d0:	00004812 	mflo	t1
9d00e6d4:	712a5020 	clz	t2,t1
9d00e6d8:	1540001f 	bnez	t2,9d00e758 <__umoddi3+0x17c>
9d00e6dc:	24070020 	li	a3,32
9d00e6e0:	00a92823 	subu	a1,a1,t1
9d00e6e4:	00095c02 	srl	t3,t1,0x10
9d00e6e8:	00ab001b 	divu	zero,a1,t3
9d00e6ec:	016001f4 	teq	t3,zero,0x7
9d00e6f0:	3124ffff 	andi	a0,t1,0xffff
9d00e6f4:	00002812 	mflo	a1
9d00e6f8:	00001810 	mfhi	v1
9d00e6fc:	70a43002 	mul	a2,a1,a0
9d00e700:	00032c00 	sll	a1,v1,0x10
9d00e704:	00021c02 	srl	v1,v0,0x10
9d00e708:	00a32825 	or	a1,a1,v1
9d00e70c:	00a6182b 	sltu	v1,a1,a2
9d00e710:	50600008 	beqzl	v1,9d00e734 <__umoddi3+0x158>
9d00e714:	00a63023 	subu	a2,a1,a2
9d00e718:	00a92821 	addu	a1,a1,t1
9d00e71c:	00a9182b 	sltu	v1,a1,t1
9d00e720:	14600003 	bnez	v1,9d00e730 <__umoddi3+0x154>
9d00e724:	00a6182b 	sltu	v1,a1,a2
9d00e728:	54600001 	bnezl	v1,9d00e730 <__umoddi3+0x154>
9d00e72c:	00a92821 	addu	a1,a1,t1
9d00e730:	00a63023 	subu	a2,a1,a2
9d00e734:	00cb001b 	divu	zero,a2,t3
9d00e738:	016001f4 	teq	t3,zero,0x7
9d00e73c:	3042ffff 	andi	v0,v0,0xffff
9d00e740:	00002810 	mfhi	a1
9d00e744:	00003012 	mflo	a2
9d00e748:	70c45802 	mul	t3,a2,a0
9d00e74c:	00053400 	sll	a2,a1,0x10
9d00e750:	1000ffcd 	b	9d00e688 <__umoddi3+0xac>
9d00e754:	00c21025 	or	v0,a2,v0
9d00e758:	00ea3823 	subu	a3,a3,t2
9d00e75c:	01494804 	sllv	t1,t1,t2
9d00e760:	00e41806 	srlv	v1,a0,a3
9d00e764:	00093402 	srl	a2,t1,0x10
9d00e768:	00e53806 	srlv	a3,a1,a3
9d00e76c:	00e6001b 	divu	zero,a3,a2
9d00e770:	00c001f4 	teq	a2,zero,0x7
9d00e774:	01451004 	sllv	v0,a1,t2
9d00e778:	3128ffff 	andi	t0,t1,0xffff
9d00e77c:	00621825 	or	v1,v1,v0
9d00e780:	00032c02 	srl	a1,v1,0x10
9d00e784:	00003812 	mflo	a3
9d00e788:	00006010 	mfhi	t4
9d00e78c:	70e81002 	mul	v0,a3,t0
9d00e790:	000c3c00 	sll	a3,t4,0x10
9d00e794:	00e53825 	or	a3,a3,a1
9d00e798:	00e2282b 	sltu	a1,a3,v0
9d00e79c:	50a00008 	beqzl	a1,9d00e7c0 <__umoddi3+0x1e4>
9d00e7a0:	00e23823 	subu	a3,a3,v0
9d00e7a4:	00e93821 	addu	a3,a3,t1
9d00e7a8:	00e9282b 	sltu	a1,a3,t1
9d00e7ac:	14a00003 	bnez	a1,9d00e7bc <__umoddi3+0x1e0>
9d00e7b0:	00e2282b 	sltu	a1,a3,v0
9d00e7b4:	54a00001 	bnezl	a1,9d00e7bc <__umoddi3+0x1e0>
9d00e7b8:	00e93821 	addu	a3,a3,t1
9d00e7bc:	00e23823 	subu	a3,a3,v0
9d00e7c0:	00e6001b 	divu	zero,a3,a2
9d00e7c4:	00c001f4 	teq	a2,zero,0x7
9d00e7c8:	3065ffff 	andi	a1,v1,0xffff
9d00e7cc:	00003012 	mflo	a2
9d00e7d0:	00003810 	mfhi	a3
9d00e7d4:	00073c00 	sll	a3,a3,0x10
9d00e7d8:	00e52825 	or	a1,a3,a1
9d00e7dc:	70c83002 	mul	a2,a2,t0
9d00e7e0:	00a6102b 	sltu	v0,a1,a2
9d00e7e4:	10400009 	beqz	v0,9d00e80c <__umoddi3+0x230>
9d00e7e8:	01441004 	sllv	v0,a0,t2
9d00e7ec:	00a92821 	addu	a1,a1,t1
9d00e7f0:	00a9102b 	sltu	v0,a1,t1
9d00e7f4:	14400005 	bnez	v0,9d00e80c <__umoddi3+0x230>
9d00e7f8:	01441004 	sllv	v0,a0,t2
9d00e7fc:	00a6102b 	sltu	v0,a1,a2
9d00e800:	54400001 	bnezl	v0,9d00e808 <__umoddi3+0x22c>
9d00e804:	00a92821 	addu	a1,a1,t1
9d00e808:	01441004 	sllv	v0,a0,t2
9d00e80c:	1000ffb5 	b	9d00e6e4 <__umoddi3+0x108>
9d00e810:	00a62823 	subu	a1,a1,a2
9d00e814:	00a7402b 	sltu	t0,a1,a3
9d00e818:	1500005c 	bnez	t0,9d00e98c <__umoddi3+0x3b0>
9d00e81c:	70ee7020 	clz	t6,a3
9d00e820:	15c0000a 	bnez	t6,9d00e84c <__umoddi3+0x270>
9d00e824:	00e5402b 	sltu	t0,a3,a1
9d00e828:	15000003 	bnez	t0,9d00e838 <__umoddi3+0x25c>
9d00e82c:	0086402b 	sltu	t0,a0,a2
9d00e830:	15000056 	bnez	t0,9d00e98c <__umoddi3+0x3b0>
9d00e834:	00000000 	nop
9d00e838:	00861023 	subu	v0,a0,a2
9d00e83c:	00a72823 	subu	a1,a1,a3
9d00e840:	0082182b 	sltu	v1,a0,v0
9d00e844:	03e00008 	jr	ra
9d00e848:	00a31823 	subu	v1,a1,v1
9d00e84c:	240b0020 	li	t3,32
9d00e850:	016e5823 	subu	t3,t3,t6
9d00e854:	01666006 	srlv	t4,a2,t3
9d00e858:	01c73804 	sllv	a3,a3,t6
9d00e85c:	01873825 	or	a3,t4,a3
9d00e860:	01c54004 	sllv	t0,a1,t6
9d00e864:	00074c02 	srl	t1,a3,0x10
9d00e868:	01652806 	srlv	a1,a1,t3
9d00e86c:	00a9001b 	divu	zero,a1,t1
9d00e870:	012001f4 	teq	t1,zero,0x7
9d00e874:	01641006 	srlv	v0,a0,t3
9d00e878:	00481025 	or	v0,v0,t0
9d00e87c:	30e8ffff 	andi	t0,a3,0xffff
9d00e880:	00026402 	srl	t4,v0,0x10
9d00e884:	00002812 	mflo	a1
9d00e888:	00005010 	mfhi	t2
9d00e88c:	000a5400 	sll	t2,t2,0x10
9d00e890:	014c5025 	or	t2,t2,t4
9d00e894:	71051802 	mul	v1,t0,a1
9d00e898:	0143602b 	sltu	t4,t2,v1
9d00e89c:	1180000a 	beqz	t4,9d00e8c8 <__umoddi3+0x2ec>
9d00e8a0:	00a06825 	move	t5,a1
9d00e8a4:	01475021 	addu	t2,t2,a3
9d00e8a8:	0147602b 	sltu	t4,t2,a3
9d00e8ac:	15800006 	bnez	t4,9d00e8c8 <__umoddi3+0x2ec>
9d00e8b0:	24adffff 	addiu	t5,a1,-1
9d00e8b4:	0143602b 	sltu	t4,t2,v1
9d00e8b8:	51800004 	beqzl	t4,9d00e8cc <__umoddi3+0x2f0>
9d00e8bc:	01435023 	subu	t2,t2,v1
9d00e8c0:	24adfffe 	addiu	t5,a1,-2
9d00e8c4:	01475021 	addu	t2,t2,a3
9d00e8c8:	01435023 	subu	t2,t2,v1
9d00e8cc:	0149001b 	divu	zero,t2,t1
9d00e8d0:	012001f4 	teq	t1,zero,0x7
9d00e8d4:	00004812 	mflo	t1
9d00e8d8:	00005010 	mfhi	t2
9d00e8dc:	000a5400 	sll	t2,t2,0x10
9d00e8e0:	71092802 	mul	a1,t0,t1
9d00e8e4:	3048ffff 	andi	t0,v0,0xffff
9d00e8e8:	01484025 	or	t0,t2,t0
9d00e8ec:	0105102b 	sltu	v0,t0,a1
9d00e8f0:	1040000a 	beqz	v0,9d00e91c <__umoddi3+0x340>
9d00e8f4:	01205025 	move	t2,t1
9d00e8f8:	01074021 	addu	t0,t0,a3
9d00e8fc:	0107102b 	sltu	v0,t0,a3
9d00e900:	14400006 	bnez	v0,9d00e91c <__umoddi3+0x340>
9d00e904:	252affff 	addiu	t2,t1,-1
9d00e908:	0105102b 	sltu	v0,t0,a1
9d00e90c:	10400004 	beqz	v0,9d00e920 <__umoddi3+0x344>
9d00e910:	000d6400 	sll	t4,t5,0x10
9d00e914:	252afffe 	addiu	t2,t1,-2
9d00e918:	01074021 	addu	t0,t0,a3
9d00e91c:	000d6400 	sll	t4,t5,0x10
9d00e920:	01c61004 	sllv	v0,a2,t6
9d00e924:	018a6025 	or	t4,t4,t2
9d00e928:	01820019 	multu	t4,v0
9d00e92c:	01054023 	subu	t0,t0,a1
9d00e930:	01c41804 	sllv	v1,a0,t6
9d00e934:	00006810 	mfhi	t5
9d00e938:	010d202b 	sltu	a0,t0,t5
9d00e93c:	01a02825 	move	a1,t5
9d00e940:	00006012 	mflo	t4
9d00e944:	14800005 	bnez	a0,9d00e95c <__umoddi3+0x380>
9d00e948:	00003012 	mflo	a2
9d00e94c:	150d0007 	bne	t0,t5,9d00e96c <__umoddi3+0x390>
9d00e950:	006c202b 	sltu	a0,v1,t4
9d00e954:	10800006 	beqz	a0,9d00e970 <__umoddi3+0x394>
9d00e958:	00663023 	subu	a2,v1,a2
9d00e95c:	01823023 	subu	a2,t4,v0
9d00e960:	01a73823 	subu	a3,t5,a3
9d00e964:	0186602b 	sltu	t4,t4,a2
9d00e968:	00ec2823 	subu	a1,a3,t4
9d00e96c:	00663023 	subu	a2,v1,a2
9d00e970:	0066182b 	sltu	v1,v1,a2
9d00e974:	01054023 	subu	t0,t0,a1
9d00e978:	01031823 	subu	v1,t0,v1
9d00e97c:	01631004 	sllv	v0,v1,t3
9d00e980:	01c63006 	srlv	a2,a2,t6
9d00e984:	00461025 	or	v0,v0,a2
9d00e988:	01c31806 	srlv	v1,v1,t6
9d00e98c:	03e00008 	jr	ra
9d00e990:	00000000 	nop

Disassembly of section .text.dp32mul:

9d00e994 <__muldf3>:
9d00e994:	00055040 000a5542 00054ac0 00047d42     @P..BU...J..B}..
9d00e9a4:	012f4825 000442c0 3c0e8000 012e4825     %H/..B.....<%H..
9d00e9b4:	00076840 000d6d42 000762c0 00067d42     @h..Bm...b..B}..
9d00e9c4:	018f6025 00065ac0 018e6025 00a72826     %`...Z..%`..&(..
9d00e9d4:	00ae2824 254fffff 2de107fe 10200047     $(....O%...-G. .
9d00e9e4:	00000000                                ....

9d00e9e8 <Clab1>:
9d00e9e8:	25afffff 	addiu	t7,t5,-1
9d00e9ec:	2de107fe 	sltiu	at,t7,2046
9d00e9f0:	1020006f 	beqz	at,9d00ebb0 <CspecB>
9d00e9f4:	00000000 	nop

9d00e9f8 <Clab2>:
9d00e9f8:	25affc02 	addiu	t7,t5,-1022
9d00e9fc:	014f5021 	addu	t2,t2,t7
9d00ea00:	012c0019 	multu	t1,t4
9d00ea04:	00003812 	mflo	a3
9d00ea08:	00007010 	mfhi	t6
9d00ea0c:	010b0019 	multu	t0,t3
9d00ea10:	00002012 	mflo	a0
9d00ea14:	00003010 	mfhi	a2
9d00ea18:	012b0019 	multu	t1,t3
9d00ea1c:	00005812 	mflo	t3
9d00ea20:	00006810 	mfhi	t5
9d00ea24:	00cb3021 	addu	a2,a2,t3
9d00ea28:	00cb782b 	sltu	t7,a2,t3
9d00ea2c:	00ed3821 	addu	a3,a3,t5
9d00ea30:	00ef3821 	addu	a3,a3,t7
9d00ea34:	10ed0002 	beq	a3,t5,9d00ea40 <L20>
9d00ea38:	00000000 	nop
9d00ea3c:	00ed782b 	sltu	t7,a3,t5

9d00ea40 <L20>:
9d00ea40:	01cf7021 	addu	t6,t6,t7
9d00ea44:	010c0019 	multu	t0,t4
9d00ea48:	00004012 	mflo	t0
9d00ea4c:	00004810 	mfhi	t1
9d00ea50:	00c83021 	addu	a2,a2,t0
9d00ea54:	00c8782b 	sltu	t7,a2,t0
9d00ea58:	00e93821 	addu	a3,a3,t1
9d00ea5c:	00ef3821 	addu	a3,a3,t7
9d00ea60:	10e90002 	beq	a3,t1,9d00ea6c <L21>
9d00ea64:	00000000 	nop
9d00ea68:	00e9782b 	sltu	t7,a3,t1

9d00ea6c <L21>:
9d00ea6c:	01cf7021 	addu	t6,t6,t7
9d00ea70:	00867825 	or	t7,a0,a2
9d00ea74:	11e00002 	beqz	t7,9d00ea80 <i13>
9d00ea78:	00000000 	nop
9d00ea7c:	34e70001 	ori	a3,a3,0x1

9d00ea80 <i13>:
9d00ea80:	000e4825 	or	t1,zero,t6
9d00ea84:	05200006 	bltz	t1,9d00eaa0 <i14>
9d00ea88:	00074025 	or	t0,zero,a3
9d00ea8c:	0100782a 	slt	t7,t0,zero
9d00ea90:	01084021 	addu	t0,t0,t0
9d00ea94:	01294821 	addu	t1,t1,t1
9d00ea98:	012f4821 	addu	t1,t1,t7
9d00ea9c:	254affff 	addiu	t2,t2,-1

9d00eaa0 <i14>:
9d00eaa0:	254fffff 	addiu	t7,t2,-1
9d00eaa4:	2de107fe 	sltiu	at,t7,2046
9d00eaa8:	10200068 	beqz	at,9d00ec4c <Coveund>
9d00eaac:	00000000 	nop
9d00eab0:	25080400 	addiu	t0,t0,1024
9d00eab4:	2d0f0400 	sltiu	t7,t0,1024
9d00eab8:	012f4821 	addu	t1,t1,t7
9d00eabc:	012f782b 	sltu	t7,t1,t7
9d00eac0:	014f5021 	addu	t2,t2,t7

9d00eac4 <Clab8>:
9d00eac4:	00087ac2 	srl	t7,t0,0xb
9d00eac8:	31ef0001 	andi	t7,t7,0x1
9d00eacc:	010f4023 	subu	t0,t0,t7
9d00ead0:	000822c2 	srl	a0,t0,0xb
9d00ead4:	00097d40 	sll	t7,t1,0x15
9d00ead8:	008f2025 	or	a0,a0,t7
9d00eadc:	00097840 	sll	t7,t1,0x1
9d00eae0:	000f7b02 	srl	t7,t7,0xc
9d00eae4:	00af2825 	or	a1,a1,t7
9d00eae8:	000a7d00 	sll	t7,t2,0x14
9d00eaec:	00af2825 	or	a1,a1,t7

9d00eaf0 <Cret>:
9d00eaf0:	00041025 	or	v0,zero,a0
9d00eaf4:	00051825 	or	v1,zero,a1

9d00eaf8 <C999>:
9d00eaf8:	03e00008 	jr	ra
9d00eafc:	00000000 	nop

9d00eb00 <CspecA>:
9d00eb00:	0100782a 	slt	t7,t0,zero
9d00eb04:	01084021 	addu	t0,t0,t0
9d00eb08:	01294821 	addu	t1,t1,t1
9d00eb0c:	1540001c 	bnez	t2,9d00eb80 <i15>
9d00eb10:	012f4821 	addu	t1,t1,t7
9d00eb14:	01287825 	or	t7,t1,t0
9d00eb18:	11e00014 	beqz	t7,9d00eb6c <i16>
9d00eb1c:	00000000 	nop
9d00eb20:	15200008 	bnez	t1,9d00eb44 <L22>
9d00eb24:	00000000 	nop
9d00eb28:	15000003 	bnez	t0,9d00eb38 <L23>
9d00eb2c:	00000000 	nop
9d00eb30:	1000ffad 	b	9d00e9e8 <Clab1>
9d00eb34:	240a0000 	li	t2,0

9d00eb38 <L23>:
9d00eb38:	01004825 	move	t1,t0
9d00eb3c:	24080000 	li	t0,0
9d00eb40:	254affe0 	addiu	t2,t2,-32

9d00eb44 <L22>:
9d00eb44:	712e7020 	clz	t6,t1
9d00eb48:	11c0ffa7 	beqz	t6,9d00e9e8 <Clab1>
9d00eb4c:	00000000 	nop
9d00eb50:	014e5023 	subu	t2,t2,t6
9d00eb54:	000e3822 	neg	a3,t6
9d00eb58:	00e83806 	srlv	a3,t0,a3
9d00eb5c:	01c84004 	sllv	t0,t0,t6
9d00eb60:	01c94804 	sllv	t1,t1,t6
9d00eb64:	1000ffa0 	b	9d00e9e8 <Clab1>
9d00eb68:	01274825 	or	t1,t1,a3

9d00eb6c <i16>:
9d00eb6c:	240107ff 	li	at,2047
9d00eb70:	11a10033 	beq	t5,at,9d00ec40 <Cnan>
9d00eb74:	00000000 	nop
9d00eb78:	1000ffdd 	b	9d00eaf0 <Cret>
9d00eb7c:	00000000 	nop

9d00eb80 <i15>:
9d00eb80:	01287825 	or	t7,t1,t0
9d00eb84:	15e0002e 	bnez	t7,9d00ec40 <Cnan>
9d00eb88:	00000000 	nop
9d00eb8c:	15a00005 	bnez	t5,9d00eba4 <i17>
9d00eb90:	00000000 	nop
9d00eb94:	000c7840 	sll	t7,t4,0x1
9d00eb98:	01eb7825 	or	t7,t7,t3
9d00eb9c:	11e00028 	beqz	t7,9d00ec40 <Cnan>
9d00eba0:	00000000 	nop

9d00eba4 <i17>:
9d00eba4:	240107ff 	li	at,2047
9d00eba8:	15a10021 	bne	t5,at,9d00ec30 <Cinf>
9d00ebac:	00000000 	nop

9d00ebb0 <CspecB>:
9d00ebb0:	0160782a 	slt	t7,t3,zero
9d00ebb4:	016b5821 	addu	t3,t3,t3
9d00ebb8:	018c6021 	addu	t4,t4,t4
9d00ebbc:	15a00019 	bnez	t5,9d00ec24 <i18>
9d00ebc0:	018f6021 	addu	t4,t4,t7
9d00ebc4:	018b7825 	or	t7,t4,t3
9d00ebc8:	11e00014 	beqz	t7,9d00ec1c <i19>
9d00ebcc:	00000000 	nop
9d00ebd0:	15800008 	bnez	t4,9d00ebf4 <L25>
9d00ebd4:	00000000 	nop
9d00ebd8:	15600003 	bnez	t3,9d00ebe8 <L26>
9d00ebdc:	00000000 	nop
9d00ebe0:	1000ff85 	b	9d00e9f8 <Clab2>
9d00ebe4:	240d0000 	li	t5,0

9d00ebe8 <L26>:
9d00ebe8:	01606025 	move	t4,t3
9d00ebec:	240b0000 	li	t3,0
9d00ebf0:	25adffe0 	addiu	t5,t5,-32

9d00ebf4 <L25>:
9d00ebf4:	71863020 	clz	a2,t4
9d00ebf8:	10c0ff7f 	beqz	a2,9d00e9f8 <Clab2>
9d00ebfc:	00000000 	nop
9d00ec00:	01a66823 	subu	t5,t5,a2
9d00ec04:	00067022 	neg	t6,a2
9d00ec08:	01cb7006 	srlv	t6,t3,t6
9d00ec0c:	00cb5804 	sllv	t3,t3,a2
9d00ec10:	00cc6004 	sllv	t4,t4,a2
9d00ec14:	1000ff78 	b	9d00e9f8 <Clab2>
9d00ec18:	018e6025 	or	t4,t4,t6

9d00ec1c <i19>:
9d00ec1c:	1000ffb4 	b	9d00eaf0 <Cret>
9d00ec20:	24040000 	li	a0,0

9d00ec24 <i18>:
9d00ec24:	018b7825 	or	t7,t4,t3
9d00ec28:	15e00005 	bnez	t7,9d00ec40 <Cnan>
9d00ec2c:	00000000 	nop

9d00ec30 <Cinf>:
9d00ec30:	3c017ff0 	lui	at,0x7ff0
9d00ec34:	00a12825 	or	a1,a1,at
9d00ec38:	1000ffad 	b	9d00eaf0 <Cret>
9d00ec3c:	24040000 	li	a0,0

9d00ec40 <Cnan>:
9d00ec40:	3c05fff8 	lui	a1,0xfff8
9d00ec44:	1000ffaa 	b	9d00eaf0 <Cret>
9d00ec48:	24040000 	li	a0,0

9d00ec4c <Coveund>:
9d00ec4c:	1d40fff8 	bgtz	t2,9d00ec30 <Cinf>
9d00ec50:	00000000 	nop
9d00ec54:	240e0001 	li	t6,1
9d00ec58:	01ca7023 	subu	t6,t6,t2

9d00ec5c <L28>:
9d00ec5c:	2dc10020 	sltiu	at,t6,32
9d00ec60:	14200007 	bnez	at,9d00ec80 <L29>
9d00ec64:	00000000 	nop
9d00ec68:	21ceffe0 	addi	t6,t6,-32
9d00ec6c:	0008302b 	sltu	a2,zero,t0
9d00ec70:	1009000d 	beq	zero,t1,9d00eca8 <L30>
9d00ec74:	01264025 	or	t0,t1,a2
9d00ec78:	1000fff8 	b	9d00ec5c <L28>
9d00ec7c:	34090000 	li	t1,0x0

9d00ec80 <L29>:
9d00ec80:	11c00009 	beqz	t6,9d00eca8 <L30>
9d00ec84:	00000000 	nop
9d00ec88:	000e3822 	neg	a3,t6
9d00ec8c:	00e83004 	sllv	a2,t0,a3
9d00ec90:	00e93804 	sllv	a3,t1,a3
9d00ec94:	01c84006 	srlv	t0,t0,t6
9d00ec98:	01c94806 	srlv	t1,t1,t6
9d00ec9c:	10c00002 	beqz	a2,9d00eca8 <L30>
9d00eca0:	00e84025 	or	t0,a3,t0
9d00eca4:	35080002 	ori	t0,t0,0x2

9d00eca8 <L30>:
9d00eca8:	25080400 	addiu	t0,t0,1024
9d00ecac:	2d0f0400 	sltiu	t7,t0,1024
9d00ecb0:	012f4821 	addu	t1,t1,t7
9d00ecb4:	1000ff83 	b	9d00eac4 <Clab8>
9d00ecb8:	000957c2 	srl	t2,t1,0x1f
9d00ecbc:	00000000 	nop

Disassembly of section .text:

9d00ecc0 <get_encoder_flag>:
char rx_message[MAX_RX_MESSAGE];
volatile int pos = 0;
volatile int newPosFlag = 0;

int get_encoder_flag(){
    return newPosFlag;
9d00ecc0:	8f82802c 	lw	v0,-32724(gp)
}
9d00ecc4:	03e00008 	jr	ra
9d00ecc8:	00000000 	nop

9d00eccc <set_encoder_flag>:

void set_encoder_flag(int f){
    newPosFlag = f;
9d00eccc:	af84802c 	sw	a0,-32724(gp)
}
9d00ecd0:	03e00008 	jr	ra
9d00ecd4:	00000000 	nop

9d00ecd8 <get_encoder_count>:

int get_encoder_count(){
    return pos;
9d00ecd8:	8f828030 	lw	v0,-32720(gp)
}
9d00ecdc:	03e00008 	jr	ra
9d00ece0:	00000000 	nop

9d00ece4 <U2ISR>:

void __ISR(_UART_2_VECTOR, IPL7SOFT) U2ISR(void) { 
9d00ece4:	415de800 	rdpgpr	sp,sp
9d00ece8:	401a7000 	mfc0	k0,c0_epc
9d00ecec:	401b6000 	mfc0	k1,c0_status
9d00ecf0:	27bdff80 	addiu	sp,sp,-128
9d00ecf4:	afbb007c 	sw	k1,124(sp)
9d00ecf8:	7c1b7844 	ins	k1,zero,0x1,0xf
9d00ecfc:	377b1c00 	ori	k1,k1,0x1c00
9d00ed00:	409b6000 	mtc0	k1,c0_status
9d00ed04:	afbf0064 	sw	ra,100(sp)
9d00ed08:	afbe0060 	sw	s8,96(sp)
9d00ed0c:	afb9005c 	sw	t9,92(sp)
9d00ed10:	afb80058 	sw	t8,88(sp)
9d00ed14:	afb20054 	sw	s2,84(sp)
9d00ed18:	afb10050 	sw	s1,80(sp)
9d00ed1c:	afb0004c 	sw	s0,76(sp)
9d00ed20:	afaf0048 	sw	t7,72(sp)
9d00ed24:	afae0044 	sw	t6,68(sp)
9d00ed28:	afad0040 	sw	t5,64(sp)
9d00ed2c:	afac003c 	sw	t4,60(sp)
9d00ed30:	afab0038 	sw	t3,56(sp)
9d00ed34:	afaa0034 	sw	t2,52(sp)
9d00ed38:	afa90030 	sw	t1,48(sp)
9d00ed3c:	afa8002c 	sw	t0,44(sp)
9d00ed40:	afa70028 	sw	a3,40(sp)
9d00ed44:	afa60024 	sw	a2,36(sp)
9d00ed48:	afa50020 	sw	a1,32(sp)
9d00ed4c:	afa4001c 	sw	a0,28(sp)
9d00ed50:	afa30018 	sw	v1,24(sp)
9d00ed54:	afa20014 	sw	v0,20(sp)
9d00ed58:	afa10010 	sw	at,16(sp)
9d00ed5c:	00001012 	mflo	v0
9d00ed60:	afa2006c 	sw	v0,108(sp)
9d00ed64:	00001810 	mfhi	v1
9d00ed68:	afa30068 	sw	v1,104(sp)
9d00ed6c:	03a0f025 	move	s8,sp
  char data = U2RXREG; // read the data
9d00ed70:	3c10bf80 	lui	s0,0xbf80
9d00ed74:	8e106230 	lw	s0,25136(s0)
9d00ed78:	7c108420 	seb	s0,s0
  if (data == '\n') {
9d00ed7c:	2411000a 	li	s1,10
9d00ed80:	16110031 	bne	s0,s1,9d00ee48 <U2ISR+0x164>
9d00ed84:	00000000 	nop
    rx_message[rx_num_bytes] = '\0';
9d00ed88:	8f828034 	lw	v0,-32716(gp)
9d00ed8c:	3c04a000 	lui	a0,0xa000
9d00ed90:	24840050 	addiu	a0,a0,80
9d00ed94:	00441021 	addu	v0,v0,a0
9d00ed98:	a0400000 	sb	zero,0(v0)
    sscanf(rx_message,"%d",&pos);
9d00ed9c:	27868030 	addiu	a2,gp,-32720
9d00eda0:	3c059d00 	lui	a1,0x9d00
9d00eda4:	0f404e68 	jal	9d0139a0 <_dsscanf_deEfFgGn>
9d00eda8:	24a57490 	addiu	a1,a1,29840
    newPosFlag = 1;
9d00edac:	24100001 	li	s0,1
9d00edb0:	af90802c 	sw	s0,-32724(gp)
    rx_num_bytes = 0;
9d00edb4:	af808034 	sw	zero,-32716(gp)
    // roll over if got more bytes than the size of the array
    if (rx_num_bytes >= MAX_RX_MESSAGE) {
      rx_num_bytes = 0;
    }
  }
  IFS1bits.U2RXIF = 0;
9d00edb8:	3c10bf88 	lui	s0,0xbf88
9d00edbc:	8e111040 	lw	s1,4160(s0)
9d00edc0:	7c11b584 	ins	s1,zero,0x16,0x1
9d00edc4:	ae111040 	sw	s1,4160(s0)
}
9d00edc8:	03c0e825 	move	sp,s8
9d00edcc:	8fa2006c 	lw	v0,108(sp)
9d00edd0:	00400013 	mtlo	v0
9d00edd4:	8fa30068 	lw	v1,104(sp)
9d00edd8:	00600011 	mthi	v1
9d00eddc:	8fbf0064 	lw	ra,100(sp)
9d00ede0:	8fbe0060 	lw	s8,96(sp)
9d00ede4:	8fb9005c 	lw	t9,92(sp)
9d00ede8:	8fb80058 	lw	t8,88(sp)
9d00edec:	8fb20054 	lw	s2,84(sp)
9d00edf0:	8fb10050 	lw	s1,80(sp)
9d00edf4:	8fb0004c 	lw	s0,76(sp)
9d00edf8:	8faf0048 	lw	t7,72(sp)
9d00edfc:	8fae0044 	lw	t6,68(sp)
9d00ee00:	8fad0040 	lw	t5,64(sp)
9d00ee04:	8fac003c 	lw	t4,60(sp)
9d00ee08:	8fab0038 	lw	t3,56(sp)
9d00ee0c:	8faa0034 	lw	t2,52(sp)
9d00ee10:	8fa90030 	lw	t1,48(sp)
9d00ee14:	8fa8002c 	lw	t0,44(sp)
9d00ee18:	8fa70028 	lw	a3,40(sp)
9d00ee1c:	8fa60024 	lw	a2,36(sp)
9d00ee20:	8fa50020 	lw	a1,32(sp)
9d00ee24:	8fa4001c 	lw	a0,28(sp)
9d00ee28:	8fa30018 	lw	v1,24(sp)
9d00ee2c:	8fa20014 	lw	v0,20(sp)
9d00ee30:	8fa10010 	lw	at,16(sp)
9d00ee34:	8fbb007c 	lw	k1,124(sp)
9d00ee38:	27bd0080 	addiu	sp,sp,128
9d00ee3c:	41dde800 	wrpgpr	sp,sp
9d00ee40:	409b6000 	mtc0	k1,c0_status
9d00ee44:	42000018 	eret
    rx_message[rx_num_bytes] = data;
9d00ee48:	8f918034 	lw	s1,-32716(gp)
9d00ee4c:	3c12a000 	lui	s2,0xa000
9d00ee50:	26520050 	addiu	s2,s2,80
9d00ee54:	02328821 	addu	s1,s1,s2
9d00ee58:	a2300000 	sb	s0,0(s1)
    ++rx_num_bytes;
9d00ee5c:	8f908034 	lw	s0,-32716(gp)
9d00ee60:	26100001 	addiu	s0,s0,1
9d00ee64:	af908034 	sw	s0,-32716(gp)
    if (rx_num_bytes >= MAX_RX_MESSAGE) {
9d00ee68:	8f908034 	lw	s0,-32716(gp)
9d00ee6c:	2a100064 	slti	s0,s0,100
9d00ee70:	5200ffd1 	beqzl	s0,9d00edb8 <U2ISR+0xd4>
9d00ee74:	af808034 	sw	zero,-32716(gp)
  IFS1bits.U2RXIF = 0;
9d00ee78:	1000ffd0 	b	9d00edbc <U2ISR+0xd8>
9d00ee7c:	3c10bf88 	lui	s0,0xbf88

9d00ee80 <WriteUART2>:

// Write a character array using UART2
void WriteUART2(const char * string) {
  while (*string != '\0') {
9d00ee80:	80820000 	lb	v0,0(a0)
9d00ee84:	1040000c 	beqz	v0,9d00eeb8 <WriteUART2+0x38>
9d00ee88:	00000000 	nop
    while (U2STAbits.UTXBF) {
9d00ee8c:	3c06bf80 	lui	a2,0xbf80
      ; // wait until tx buffer isn't full
    }
    U2TXREG = *string;
9d00ee90:	3c05bf80 	lui	a1,0xbf80
    while (U2STAbits.UTXBF) {
9d00ee94:	8cc36210 	lw	v1,25104(a2)
9d00ee98:	7c630240 	ext	v1,v1,0x9,0x1
9d00ee9c:	1460fffd 	bnez	v1,9d00ee94 <WriteUART2+0x14>
9d00eea0:	00000000 	nop
    U2TXREG = *string;
9d00eea4:	aca26220 	sw	v0,25120(a1)
    ++string;
9d00eea8:	24840001 	addiu	a0,a0,1
  while (*string != '\0') {
9d00eeac:	80820000 	lb	v0,0(a0)
9d00eeb0:	1440fff8 	bnez	v0,9d00ee94 <WriteUART2+0x14>
9d00eeb4:	00000000 	nop
  }
}
9d00eeb8:	03e00008 	jr	ra
9d00eebc:	00000000 	nop

9d00eec0 <UART2_Startup>:

//  Initialize the serial port - UART2 
void UART2_Startup() {
9d00eec0:	27bdfff8 	addiu	sp,sp,-8
9d00eec4:	afbf0004 	sw	ra,4(sp)
  // disable interrupts
  __builtin_disable_interrupts();
9d00eec8:	41626000 	di	v0
9d00eecc:	000000c0 	ehb

  // set UART2 TX and RX pins
  ANSELBCLR = 0b11;
9d00eed0:	3c02bf88 	lui	v0,0xbf88
9d00eed4:	24030003 	li	v1,3
9d00eed8:	ac436104 	sw	v1,24836(v0)
  U2RXRbits.U2RXR = 0b0010; // U2RX on B1, pin 5
9d00eedc:	3c02bf81 	lui	v0,0xbf81
9d00eee0:	9043fa58 	lbu	v1,-1448(v0)
9d00eee4:	24040002 	li	a0,2
9d00eee8:	7c831804 	ins	v1,a0,0x0,0x4
9d00eeec:	a043fa58 	sb	v1,-1448(v0)
  RPB0Rbits.RPB0R = 0b0010; // U2TX on B0, pin 4
9d00eef0:	3c02bf81 	lui	v0,0xbf81
9d00eef4:	9043fb2c 	lbu	v1,-1236(v0)
9d00eef8:	7c831804 	ins	v1,a0,0x0,0x4
9d00eefc:	a043fb2c 	sb	v1,-1236(v0)

  // turn on UART2 with interrupt on RX
  U2MODEbits.BRGH = 0; // set baud to NU32_DESIRED_BAUD
9d00ef00:	3c02bf80 	lui	v0,0xbf80
9d00ef04:	94436200 	lhu	v1,25088(v0)
9d00ef08:	7c0318c4 	ins	v1,zero,0x3,0x1
9d00ef0c:	a4436200 	sh	v1,25088(v0)
  U2BRG = ((NU32DIP_SYS_FREQ / UART2_DESIRED_BAUD) / 16) - 1;
9d00ef10:	3c03bf80 	lui	v1,0xbf80
9d00ef14:	2404000c 	li	a0,12
9d00ef18:	ac646240 	sw	a0,25152(v1)

  // 8 bit, no parity bit, and 1 stop bit (8N1 setup)
  U2MODEbits.PDSEL = 0;
9d00ef1c:	94436200 	lhu	v1,25088(v0)
9d00ef20:	7c031044 	ins	v1,zero,0x1,0x2
9d00ef24:	a4436200 	sh	v1,25088(v0)
  U2MODEbits.STSEL = 0;
9d00ef28:	94436200 	lhu	v1,25088(v0)
9d00ef2c:	7c030004 	ins	v1,zero,0x0,0x1
9d00ef30:	a4436200 	sh	v1,25088(v0)

  // configure TX & RX pins as output & input pins
  U2STAbits.UTXEN = 1;
9d00ef34:	3c03bf80 	lui	v1,0xbf80
9d00ef38:	8c656210 	lw	a1,25104(v1)
9d00ef3c:	24040001 	li	a0,1
9d00ef40:	7c855284 	ins	a1,a0,0xa,0x1
9d00ef44:	ac656210 	sw	a1,25104(v1)
  U2STAbits.URXEN = 1;
9d00ef48:	8c656210 	lw	a1,25104(v1)
9d00ef4c:	7c856304 	ins	a1,a0,0xc,0x1
9d00ef50:	ac656210 	sw	a1,25104(v1)

  U2STAbits.URXISEL = 0; // interrupt when a char is rcvd
9d00ef54:	8c656210 	lw	a1,25104(v1)
9d00ef58:	7c053984 	ins	a1,zero,0x6,0x2
9d00ef5c:	ac656210 	sw	a1,25104(v1)
  IPC9bits.U2IP = 7;
9d00ef60:	3c03bf88 	lui	v1,0xbf88
9d00ef64:	8c651120 	lw	a1,4384(v1)
9d00ef68:	24060007 	li	a2,7
9d00ef6c:	7cc56284 	ins	a1,a2,0xa,0x3
9d00ef70:	ac651120 	sw	a1,4384(v1)
  IPC9bits.U2IS = 0;
9d00ef74:	8c651120 	lw	a1,4384(v1)
9d00ef78:	7c054a04 	ins	a1,zero,0x8,0x2
9d00ef7c:	ac651120 	sw	a1,4384(v1)
  IFS1bits.U2RXIF = 0;
9d00ef80:	3c03bf88 	lui	v1,0xbf88
9d00ef84:	8c651040 	lw	a1,4160(v1)
9d00ef88:	7c05b584 	ins	a1,zero,0x16,0x1
9d00ef8c:	ac651040 	sw	a1,4160(v1)
  IEC1bits.U2RXIE = 1;
9d00ef90:	3c03bf88 	lui	v1,0xbf88
9d00ef94:	8c651070 	lw	a1,4208(v1)
9d00ef98:	7c85b584 	ins	a1,a0,0x16,0x1
9d00ef9c:	ac651070 	sw	a1,4208(v1)

  // enable the uart
  U2MODEbits.ON = 1;
9d00efa0:	94436200 	lhu	v1,25088(v0)
9d00efa4:	7c837bc4 	ins	v1,a0,0xf,0x1
9d00efa8:	a4436200 	sh	v1,25088(v0)

  __builtin_enable_interrupts();
9d00efac:	41626020 	ei	v0
}
9d00efb0:	8fbf0004 	lw	ra,4(sp)
9d00efb4:	03e00008 	jr	ra
9d00efb8:	27bd0008 	addiu	sp,sp,8

Disassembly of section .text.__scan_i:

9d00efbc <__scan_i>:
9d00efbc:	27bdffb8 	addiu	sp,sp,-72
9d00efc0:	afb20028 	sw	s2,40(sp)
9d00efc4:	8cc20010 	lw	v0,16(a2)
9d00efc8:	8cd20008 	lw	s2,8(a2)
9d00efcc:	afb50034 	sw	s5,52(sp)
9d00efd0:	afb40030 	sw	s4,48(sp)
9d00efd4:	afb10024 	sw	s1,36(sp)
9d00efd8:	afbf0044 	sw	ra,68(sp)
9d00efdc:	afbe0040 	sw	s8,64(sp)
9d00efe0:	afb7003c 	sw	s7,60(sp)
9d00efe4:	afb60038 	sw	s6,56(sp)
9d00efe8:	afb3002c 	sw	s3,44(sp)
9d00efec:	afb00020 	sw	s0,32(sp)
9d00eff0:	0080a825 	move	s5,a0
9d00eff4:	afa5004c 	sw	a1,76(sp)
9d00eff8:	00e0a025 	move	s4,a3
9d00effc:	afa20018 	sw	v0,24(sp)
9d00f000:	0f404855 	jal	9d012154 <__skipws>
9d00f004:	8cd1000c 	lw	s1,12(a2)
9d00f008:	16400002 	bnez	s2,9d00f014 <__scan_i+0x58>
9d00f00c:	8fa30018 	lw	v1,24(sp)
9d00f010:	2472ffff 	addiu	s2,v1,-1
9d00f014:	8e830000 	lw	v1,0(s4)
9d00f018:	241e000a 	li	s8,10
9d00f01c:	00009825 	move	s3,zero
9d00f020:	00621821 	addu	v1,v1,v0
9d00f024:	ae830000 	sw	v1,0(s4)
9d00f028:	0000b825 	move	s7,zero
9d00f02c:	02f2102a 	slt	v0,s7,s2
9d00f030:	10400046 	beqz	v0,9d00f14c <__scan_i+0x190>
9d00f034:	8fa20018 	lw	v0,24(sp)
9d00f038:	2442ffff 	addiu	v0,v0,-1
9d00f03c:	02e2102a 	slt	v0,s7,v0
9d00f040:	10400043 	beqz	v0,9d00f150 <__scan_i+0x194>
9d00f044:	02371021 	addu	v0,s1,s7
9d00f048:	8ea2003c 	lw	v0,60(s5)
9d00f04c:	8ea4004c 	lw	a0,76(s5)
9d00f050:	0044202b 	sltu	a0,v0,a0
9d00f054:	1080000f 	beqz	a0,9d00f094 <__scan_i+0xd8>
9d00f058:	24440001 	addiu	a0,v0,1
9d00f05c:	aea4003c 	sw	a0,60(s5)
9d00f060:	90500000 	lbu	s0,0(v0)
9d00f064:	2602ffd5 	addiu	v0,s0,-43
9d00f068:	7c020844 	ins	v0,zero,0x1,0x1
9d00f06c:	00571025 	or	v0,v0,s7
9d00f070:	1440001d 	bnez	v0,9d00f0e8 <__scan_i+0x12c>
9d00f074:	00000000 	nop
9d00f078:	a2300000 	sb	s0,0(s1)
9d00f07c:	8e820000 	lw	v0,0(s4)
9d00f080:	24130001 	li	s3,1
9d00f084:	24170001 	li	s7,1
9d00f088:	24420001 	addiu	v0,v0,1
9d00f08c:	1000ffe7 	b	9d00f02c <__scan_i+0x70>
9d00f090:	ae820000 	sw	v0,0(s4)
9d00f094:	0f4046ff 	jal	9d011bfc <__shgetc>
9d00f098:	02a02025 	move	a0,s5
9d00f09c:	00408025 	move	s0,v0
9d00f0a0:	2402ffff 	li	v0,-1
9d00f0a4:	1602fff0 	bne	s0,v0,9d00f068 <__scan_i+0xac>
9d00f0a8:	2602ffd5 	addiu	v0,s0,-43
9d00f0ac:	16e00028 	bnez	s7,9d00f150 <__scan_i+0x194>
9d00f0b0:	02371021 	addu	v0,s1,s7
9d00f0b4:	8fbf0044 	lw	ra,68(sp)
9d00f0b8:	02001025 	move	v0,s0
9d00f0bc:	8fbe0040 	lw	s8,64(sp)
9d00f0c0:	8fb7003c 	lw	s7,60(sp)
9d00f0c4:	8fb60038 	lw	s6,56(sp)
9d00f0c8:	8fb50034 	lw	s5,52(sp)
9d00f0cc:	8fb40030 	lw	s4,48(sp)
9d00f0d0:	8fb3002c 	lw	s3,44(sp)
9d00f0d4:	8fb20028 	lw	s2,40(sp)
9d00f0d8:	8fb10024 	lw	s1,36(sp)
9d00f0dc:	8fb00020 	lw	s0,32(sp)
9d00f0e0:	03e00008 	jr	ra
9d00f0e4:	27bd0048 	addiu	sp,sp,72
9d00f0e8:	16f30008 	bne	s7,s3,9d00f10c <__scan_i+0x150>
9d00f0ec:	0237b021 	addu	s6,s1,s7
9d00f0f0:	2402000a 	li	v0,10
9d00f0f4:	17c20026 	bne	s8,v0,9d00f190 <__scan_i+0x1d4>
9d00f0f8:	26f30001 	addiu	s3,s7,1
9d00f0fc:	3a020030 	xori	v0,s0,0x30
9d00f100:	24040008 	li	a0,8
9d00f104:	0082f00a 	movz	s8,a0,v0
9d00f108:	0002980b 	movn	s3,zero,v0
9d00f10c:	2602ffd0 	addiu	v0,s0,-48
9d00f110:	2c42000a 	sltiu	v0,v0,10
9d00f114:	14400043 	bnez	v0,9d00f224 <__scan_i+0x268>
9d00f118:	24020010 	li	v0,16
9d00f11c:	57c20006 	bnel	s8,v0,9d00f138 <__scan_i+0x17c>
9d00f120:	8ea2004c 	lw	v0,76(s5)
9d00f124:	0f404eae 	jal	9d013ab8 <isxdigit>
9d00f128:	02002025 	move	a0,s0
9d00f12c:	54400043 	bnezl	v0,9d00f23c <__scan_i+0x280>
9d00f130:	a2d00000 	sb	s0,0(s6)
9d00f134:	8ea2004c 	lw	v0,76(s5)
9d00f138:	10400005 	beqz	v0,9d00f150 <__scan_i+0x194>
9d00f13c:	02371021 	addu	v0,s1,s7
9d00f140:	8ea2003c 	lw	v0,60(s5)
9d00f144:	2442ffff 	addiu	v0,v0,-1
9d00f148:	aea2003c 	sw	v0,60(s5)
9d00f14c:	02371021 	addu	v0,s1,s7
9d00f150:	a0400000 	sb	zero,0(v0)
9d00f154:	2402000a 	li	v0,10
9d00f158:	17c2003d 	bne	s8,v0,9d00f250 <__scan_i+0x294>
9d00f15c:	2406000a 	li	a2,10
9d00f160:	27a50010 	addiu	a1,sp,16
9d00f164:	0f404df0 	jal	9d0137c0 <strtoll>
9d00f168:	02202025 	move	a0,s1
9d00f16c:	8fa4004c 	lw	a0,76(sp)
9d00f170:	8fb00010 	lw	s0,16(sp)
9d00f174:	ac820000 	sw	v0,0(a0)
9d00f178:	02118826 	xor	s1,s0,s1
9d00f17c:	2402fffe 	li	v0,-2
9d00f180:	24100001 	li	s0,1
9d00f184:	ac830004 	sw	v1,4(a0)
9d00f188:	1000ffca 	b	9d00f0b4 <__scan_i+0xf8>
9d00f18c:	0051800a 	movz	s0,v0,s1
9d00f190:	24020008 	li	v0,8
9d00f194:	17c20021 	bne	s8,v0,9d00f21c <__scan_i+0x260>
9d00f198:	36020020 	ori	v0,s0,0x20
9d00f19c:	24040078 	li	a0,120
9d00f1a0:	5444ffda 	bnel	v0,a0,9d00f10c <__scan_i+0x150>
9d00f1a4:	00009825 	move	s3,zero
9d00f1a8:	8ea2003c 	lw	v0,60(s5)
9d00f1ac:	8ea4004c 	lw	a0,76(s5)
9d00f1b0:	0044202b 	sltu	a0,v0,a0
9d00f1b4:	10800015 	beqz	a0,9d00f20c <__scan_i+0x250>
9d00f1b8:	00000000 	nop
9d00f1bc:	24440001 	addiu	a0,v0,1
9d00f1c0:	aea4003c 	sw	a0,60(s5)
9d00f1c4:	90420000 	lbu	v0,0(v0)
9d00f1c8:	8ea4004c 	lw	a0,76(s5)
9d00f1cc:	10800004 	beqz	a0,9d00f1e0 <__scan_i+0x224>
9d00f1d0:	00000000 	nop
9d00f1d4:	8ea5003c 	lw	a1,60(s5)
9d00f1d8:	24a5ffff 	addiu	a1,a1,-1
9d00f1dc:	aea5003c 	sw	a1,60(s5)
9d00f1e0:	0f404eae 	jal	9d013ab8 <isxdigit>
9d00f1e4:	00402025 	move	a0,v0
9d00f1e8:	5040ffd3 	beqzl	v0,9d00f138 <__scan_i+0x17c>
9d00f1ec:	8ea2004c 	lw	v0,76(s5)
9d00f1f0:	a2d00000 	sb	s0,0(s6)
9d00f1f4:	8e820000 	lw	v0,0(s4)
9d00f1f8:	0260b825 	move	s7,s3
9d00f1fc:	241e0010 	li	s8,16
9d00f200:	24420001 	addiu	v0,v0,1
9d00f204:	1000ff89 	b	9d00f02c <__scan_i+0x70>
9d00f208:	ae820000 	sw	v0,0(s4)
9d00f20c:	0f4046ff 	jal	9d011bfc <__shgetc>
9d00f210:	02a02025 	move	a0,s5
9d00f214:	1000ffed 	b	9d00f1cc <__scan_i+0x210>
9d00f218:	8ea4004c 	lw	a0,76(s5)
9d00f21c:	1000ffbb 	b	9d00f10c <__scan_i+0x150>
9d00f220:	00009825 	move	s3,zero
9d00f224:	24020008 	li	v0,8
9d00f228:	17c20003 	bne	s8,v0,9d00f238 <__scan_i+0x27c>
9d00f22c:	2a020038 	slti	v0,s0,56
9d00f230:	2404000a 	li	a0,10
9d00f234:	0082f00a 	movz	s8,a0,v0
9d00f238:	a2d00000 	sb	s0,0(s6)
9d00f23c:	8e820000 	lw	v0,0(s4)
9d00f240:	26f70001 	addiu	s7,s7,1
9d00f244:	24420001 	addiu	v0,v0,1
9d00f248:	1000ff78 	b	9d00f02c <__scan_i+0x70>
9d00f24c:	ae820000 	sw	v0,0(s4)
9d00f250:	03c03025 	move	a2,s8
9d00f254:	27a50010 	addiu	a1,sp,16
9d00f258:	0f404de5 	jal	9d013794 <strtoull>
9d00f25c:	02202025 	move	a0,s1
9d00f260:	1000ffc3 	b	9d00f170 <__scan_i+0x1b4>
9d00f264:	8fa4004c 	lw	a0,76(sp)

Disassembly of section .text.libm:

9d00f268 <dpfmod>:
9d00f268:	00055040 000a5542 00054ac0 00047d42     @P..BU...J..B}..
9d00f278:	012f4825 000442c0 3c0e8000 012e4825     %H/..B.....<%H..
9d00f288:	00076840 000d6d42 000762c0 00067d42     @h..Bm...b..B}..
9d00f298:	018f6025 00065ac0 018e6025 01c57024     %`...Z..%`..$p..
9d00f2a8:	254fffff 2de107fe 10200056 00000000     ..O%...-V. .....

9d00f2b8 <Alab1>:
9d00f2b8:	25afffff 	addiu	t7,t5,-1
9d00f2bc:	2de107fe 	sltiu	at,t7,2046
9d00f2c0:	1020006e 	beqz	at,9d00f47c <AspecB>
9d00f2c4:	00000000 	nop

9d00f2c8 <Alab2>:
9d00f2c8:	014d3823 	subu	a3,t2,t5
9d00f2cc:	04e0004b 	bltz	a3,9d00f3fc <Aret2>
9d00f2d0:	00000000 	nop
9d00f2d4:	00084042 	srl	t0,t0,0x1
9d00f2d8:	00097fc0 	sll	t7,t1,0x1f
9d00f2dc:	010f4025 	or	t0,t0,t7
9d00f2e0:	00094842 	srl	t1,t1,0x1
9d00f2e4:	000b5842 	srl	t3,t3,0x1
9d00f2e8:	000c7fc0 	sll	t7,t4,0x1f
9d00f2ec:	016f5825 	or	t3,t3,t7
9d00f2f0:	000c6042 	srl	t4,t4,0x1

9d00f2f4 <b1>:
9d00f2f4:	010b782b 	sltu	t7,t0,t3
9d00f2f8:	010b4023 	subu	t0,t0,t3
9d00f2fc:	012f102b 	sltu	v0,t1,t7
9d00f300:	012f4823 	subu	t1,t1,t7
9d00f304:	012c782b 	sltu	t7,t1,t4
9d00f308:	01e27825 	or	t7,t7,v0
9d00f30c:	11e00005 	beqz	t7,9d00f324 <i2>
9d00f310:	012c4823 	subu	t1,t1,t4
9d00f314:	010b4021 	addu	t0,t0,t3
9d00f318:	010b782b 	sltu	t7,t0,t3
9d00f31c:	012c4821 	addu	t1,t1,t4
9d00f320:	012f4821 	addu	t1,t1,t7

9d00f324 <i2>:
9d00f324:	0100782a 	slt	t7,t0,zero
9d00f328:	01084021 	addu	t0,t0,t0
9d00f32c:	01294821 	addu	t1,t1,t1
9d00f330:	012f4821 	addu	t1,t1,t7
9d00f334:	24e7ffff 	addiu	a3,a3,-1
9d00f338:	04e1ffee 	bgez	a3,9d00f2f4 <b1>
9d00f33c:	00000000 	nop
9d00f340:	15200008 	bnez	t1,9d00f364 <L1>
9d00f344:	000d5025 	or	t2,zero,t5
9d00f348:	15000003 	bnez	t0,9d00f358 <L2>
9d00f34c:	00000000 	nop
9d00f350:	1000000d 	b	9d00f388 <L3>
9d00f354:	240a0000 	li	t2,0

9d00f358 <L2>:
9d00f358:	01004825 	move	t1,t0
9d00f35c:	24080000 	li	t0,0
9d00f360:	254affe0 	addiu	t2,t2,-32

9d00f364 <L1>:
9d00f364:	71273820 	clz	a3,t1
9d00f368:	10e00007 	beqz	a3,9d00f388 <L3>
9d00f36c:	00000000 	nop
9d00f370:	01475023 	subu	t2,t2,a3
9d00f374:	00073022 	neg	a2,a3
9d00f378:	00c83006 	srlv	a2,t0,a2
9d00f37c:	00e84004 	sllv	t0,t0,a3
9d00f380:	00e94804 	sllv	t1,t1,a3
9d00f384:	01264825 	or	t1,t1,a2

9d00f388 <L3>:
9d00f388:	1d400014 	bgtz	t2,9d00f3dc <i3>
9d00f38c:	00000000 	nop
9d00f390:	24070001 	li	a3,1
9d00f394:	00ea3823 	subu	a3,a3,t2

9d00f398 <L4>:
9d00f398:	2ce10020 	sltiu	at,a3,32
9d00f39c:	14200005 	bnez	at,9d00f3b4 <L5>
9d00f3a0:	00000000 	nop
9d00f3a4:	00094025 	or	t0,zero,t1
9d00f3a8:	24090000 	li	t1,0
9d00f3ac:	1500fffa 	bnez	t0,9d00f398 <L4>
9d00f3b0:	24e7ffe0 	addiu	a3,a3,-32

9d00f3b4 <L5>:
9d00f3b4:	10e00008 	beqz	a3,9d00f3d8 <L6>
9d00f3b8:	00000000 	nop
9d00f3bc:	00093025 	or	a2,zero,t1
9d00f3c0:	00e84006 	srlv	t0,t0,a3
9d00f3c4:	00e94806 	srlv	t1,t1,a3
9d00f3c8:	240f0020 	li	t7,32
9d00f3cc:	01e73823 	subu	a3,t7,a3
9d00f3d0:	00e63004 	sllv	a2,a2,a3
9d00f3d4:	01064025 	or	t0,t0,a2

9d00f3d8 <L6>:
9d00f3d8:	240a0000 	li	t2,0

9d00f3dc <i3>:
9d00f3dc:	000822c2 	srl	a0,t0,0xb
9d00f3e0:	00097d40 	sll	t7,t1,0x15
9d00f3e4:	008f2025 	or	a0,a0,t7
9d00f3e8:	00092840 	sll	a1,t1,0x1
9d00f3ec:	00052b02 	srl	a1,a1,0xc
9d00f3f0:	000a7d00 	sll	t7,t2,0x14
9d00f3f4:	00af2825 	or	a1,a1,t7
9d00f3f8:	00ae2825 	or	a1,a1,t6

9d00f3fc <Aret2>:
9d00f3fc:	00041025 	or	v0,zero,a0
9d00f400:	00051825 	or	v1,zero,a1

9d00f404 <A999>:
9d00f404:	03e00008 	jr	ra
9d00f408:	00000000 	nop

9d00f40c <AspecA>:
9d00f40c:	1540003b 	bnez	t2,9d00f4fc <Anan>
9d00f410:	00000000 	nop
9d00f414:	0100782a 	slt	t7,t0,zero
9d00f418:	01084021 	addu	t0,t0,t0
9d00f41c:	01294821 	addu	t1,t1,t1
9d00f420:	012f4821 	addu	t1,t1,t7
9d00f424:	01287825 	or	t7,t1,t0
9d00f428:	11e0ffa3 	beqz	t7,9d00f2b8 <Alab1>
9d00f42c:	00000000 	nop
9d00f430:	15200008 	bnez	t1,9d00f454 <L7>
9d00f434:	00000000 	nop
9d00f438:	15000003 	bnez	t0,9d00f448 <L8>
9d00f43c:	00000000 	nop
9d00f440:	1000ff9d 	b	9d00f2b8 <Alab1>
9d00f444:	240a0000 	li	t2,0

9d00f448 <L8>:
9d00f448:	01004825 	move	t1,t0
9d00f44c:	24080000 	li	t0,0
9d00f450:	254affe0 	addiu	t2,t2,-32

9d00f454 <L7>:
9d00f454:	71273820 	clz	a3,t1
9d00f458:	10e0ff97 	beqz	a3,9d00f2b8 <Alab1>
9d00f45c:	00000000 	nop
9d00f460:	01475023 	subu	t2,t2,a3
9d00f464:	00073022 	neg	a2,a3
9d00f468:	00c83006 	srlv	a2,t0,a2
9d00f46c:	00e84004 	sllv	t0,t0,a3
9d00f470:	00e94804 	sllv	t1,t1,a3
9d00f474:	1000ff90 	b	9d00f2b8 <Alab1>
9d00f478:	01264825 	or	t1,t1,a2

9d00f47c <AspecB>:
9d00f47c:	15a0001b 	bnez	t5,9d00f4ec <i5>
9d00f480:	00000000 	nop
9d00f484:	0160782a 	slt	t7,t3,zero
9d00f488:	016b5821 	addu	t3,t3,t3
9d00f48c:	018c6021 	addu	t4,t4,t4
9d00f490:	018f6021 	addu	t4,t4,t7
9d00f494:	018b7825 	or	t7,t4,t3
9d00f498:	11e00018 	beqz	t7,9d00f4fc <Anan>
9d00f49c:	00000000 	nop
9d00f4a0:	15800008 	bnez	t4,9d00f4c4 <L10>
9d00f4a4:	00000000 	nop
9d00f4a8:	15600003 	bnez	t3,9d00f4b8 <L11>
9d00f4ac:	00000000 	nop
9d00f4b0:	1000ff85 	b	9d00f2c8 <Alab2>
9d00f4b4:	240d0000 	li	t5,0

9d00f4b8 <L11>:
9d00f4b8:	01606025 	move	t4,t3
9d00f4bc:	240b0000 	li	t3,0
9d00f4c0:	25adffe0 	addiu	t5,t5,-32

9d00f4c4 <L10>:
9d00f4c4:	71873820 	clz	a3,t4
9d00f4c8:	10e0ff7f 	beqz	a3,9d00f2c8 <Alab2>
9d00f4cc:	00000000 	nop
9d00f4d0:	01a76823 	subu	t5,t5,a3
9d00f4d4:	00073022 	neg	a2,a3
9d00f4d8:	00cb3006 	srlv	a2,t3,a2
9d00f4dc:	00eb5804 	sllv	t3,t3,a3
9d00f4e0:	00ec6004 	sllv	t4,t4,a3
9d00f4e4:	1000ff78 	b	9d00f2c8 <Alab2>
9d00f4e8:	01866025 	or	t4,t4,a2

9d00f4ec <i5>:
9d00f4ec:	000c7840 	sll	t7,t4,0x1
9d00f4f0:	01eb7825 	or	t7,t7,t3
9d00f4f4:	11e0ffc1 	beqz	t7,9d00f3fc <Aret2>
9d00f4f8:	00000000 	nop

9d00f4fc <Anan>:
9d00f4fc:	3c05fff8 	lui	a1,0xfff8
9d00f500:	1000ffbe 	b	9d00f3fc <Aret2>
9d00f504:	24040000 	li	a0,0
9d00f508:	00000000 	nop

Disassembly of section .text.scanexp:

9d00f50c <scanexp>:
9d00f50c:	8c82003c 	lw	v0,60(a0)
9d00f510:	8c83004c 	lw	v1,76(a0)
9d00f514:	27bdffd0 	addiu	sp,sp,-48
9d00f518:	afb10014 	sw	s1,20(sp)
9d00f51c:	0043182b 	sltu	v1,v0,v1
9d00f520:	afb00010 	sw	s0,16(sp)
9d00f524:	afbf002c 	sw	ra,44(sp)
9d00f528:	afb60028 	sw	s6,40(sp)
9d00f52c:	afb50024 	sw	s5,36(sp)
9d00f530:	afb40020 	sw	s4,32(sp)
9d00f534:	afb3001c 	sw	s3,28(sp)
9d00f538:	afb20018 	sw	s2,24(sp)
9d00f53c:	00808025 	move	s0,a0
9d00f540:	10600033 	beqz	v1,9d00f610 <scanexp+0x104>
9d00f544:	00a08825 	move	s1,a1
9d00f548:	24430001 	addiu	v1,v0,1
9d00f54c:	ac83003c 	sw	v1,60(a0)
9d00f550:	90520000 	lbu	s2,0(v0)
9d00f554:	2642ffd5 	addiu	v0,s2,-43
9d00f558:	7c020844 	ins	v0,zero,0x1,0x1
9d00f55c:	14400016 	bnez	v0,9d00f5b8 <scanexp+0xac>
9d00f560:	0000a025 	move	s4,zero
9d00f564:	8e02003c 	lw	v0,60(s0)
9d00f568:	8e03004c 	lw	v1,76(s0)
9d00f56c:	3a52002d 	xori	s2,s2,0x2d
9d00f570:	0043182b 	sltu	v1,v0,v1
9d00f574:	1060002a 	beqz	v1,9d00f620 <scanexp+0x114>
9d00f578:	2e540001 	sltiu	s4,s2,1
9d00f57c:	24430001 	addiu	v1,v0,1
9d00f580:	ae03003c 	sw	v1,60(s0)
9d00f584:	90520000 	lbu	s2,0(v0)
9d00f588:	2642ffd0 	addiu	v0,s2,-48
9d00f58c:	2c42000a 	sltiu	v0,v0,10
9d00f590:	1440000a 	bnez	v0,9d00f5bc <scanexp+0xb0>
9d00f594:	2642ffd0 	addiu	v0,s2,-48
9d00f598:	12200009 	beqz	s1,9d00f5c0 <scanexp+0xb4>
9d00f59c:	2c42000a 	sltiu	v0,v0,10
9d00f5a0:	8e02004c 	lw	v0,76(s0)
9d00f5a4:	10400005 	beqz	v0,9d00f5bc <scanexp+0xb0>
9d00f5a8:	2642ffd0 	addiu	v0,s2,-48
9d00f5ac:	8e02003c 	lw	v0,60(s0)
9d00f5b0:	2442ffff 	addiu	v0,v0,-1
9d00f5b4:	ae02003c 	sw	v0,60(s0)
9d00f5b8:	2642ffd0 	addiu	v0,s2,-48
9d00f5bc:	2c42000a 	sltiu	v0,v0,10
9d00f5c0:	1440001b 	bnez	v0,9d00f630 <scanexp+0x124>
9d00f5c4:	00009825 	move	s3,zero
9d00f5c8:	8e02004c 	lw	v0,76(s0)
9d00f5cc:	10400004 	beqz	v0,9d00f5e0 <scanexp+0xd4>
9d00f5d0:	3c158000 	lui	s5,0x8000
9d00f5d4:	8e02003c 	lw	v0,60(s0)
9d00f5d8:	2442ffff 	addiu	v0,v0,-1
9d00f5dc:	ae02003c 	sw	v0,60(s0)
9d00f5e0:	8fbf002c 	lw	ra,44(sp)
9d00f5e4:	02601025 	move	v0,s3
9d00f5e8:	02a01825 	move	v1,s5
9d00f5ec:	8fb60028 	lw	s6,40(sp)
9d00f5f0:	8fb50024 	lw	s5,36(sp)
9d00f5f4:	8fb40020 	lw	s4,32(sp)
9d00f5f8:	8fb3001c 	lw	s3,28(sp)
9d00f5fc:	8fb20018 	lw	s2,24(sp)
9d00f600:	8fb10014 	lw	s1,20(sp)
9d00f604:	8fb00010 	lw	s0,16(sp)
9d00f608:	03e00008 	jr	ra
9d00f60c:	27bd0030 	addiu	sp,sp,48
9d00f610:	0f4046ff 	jal	9d011bfc <__shgetc>
9d00f614:	00000000 	nop
9d00f618:	1000ffce 	b	9d00f554 <scanexp+0x48>
9d00f61c:	00409025 	move	s2,v0
9d00f620:	0f4046ff 	jal	9d011bfc <__shgetc>
9d00f624:	02002025 	move	a0,s0
9d00f628:	1000ffd7 	b	9d00f588 <scanexp+0x7c>
9d00f62c:	00409025 	move	s2,v0
9d00f630:	3c150ccc 	lui	s5,0xccc
9d00f634:	36b5cccc 	ori	s5,s5,0xcccc
9d00f638:	8e02003c 	lw	v0,60(s0)
9d00f63c:	8e03004c 	lw	v1,76(s0)
9d00f640:	0043182b 	sltu	v1,v0,v1
9d00f644:	1060001d 	beqz	v1,9d00f6bc <scanexp+0x1b0>
9d00f648:	24430001 	addiu	v1,v0,1
9d00f64c:	ae03003c 	sw	v1,60(s0)
9d00f650:	90510000 	lbu	s1,0(v0)
9d00f654:	2402000a 	li	v0,10
9d00f658:	72621802 	mul	v1,s3,v0
9d00f65c:	2622ffd0 	addiu	v0,s1,-48
9d00f660:	2c42000a 	sltiu	v0,v0,10
9d00f664:	00729821 	addu	s3,v1,s2
9d00f668:	10400004 	beqz	v0,9d00f67c <scanexp+0x170>
9d00f66c:	2673ffd0 	addiu	s3,s3,-48
9d00f670:	0275102a 	slt	v0,s3,s5
9d00f674:	1440fff0 	bnez	v0,9d00f638 <scanexp+0x12c>
9d00f678:	02209025 	move	s2,s1
9d00f67c:	3c160147 	lui	s6,0x147
9d00f680:	0013afc3 	sra	s5,s3,0x1f
9d00f684:	36d6ae15 	ori	s6,s6,0xae15
9d00f688:	2622ffd0 	addiu	v0,s1,-48
9d00f68c:	2c42000a 	sltiu	v0,v0,10
9d00f690:	14400012 	bnez	v0,9d00f6dc <scanexp+0x1d0>
9d00f694:	02b6102a 	slt	v0,s5,s6
9d00f698:	8e02004c 	lw	v0,76(s0)
9d00f69c:	54400040 	bnezl	v0,9d00f7a0 <scanexp+0x294>
9d00f6a0:	8e02003c 	lw	v0,60(s0)
9d00f6a4:	1280ffce 	beqz	s4,9d00f5e0 <scanexp+0xd4>
9d00f6a8:	00158823 	negu	s1,s5
9d00f6ac:	00139823 	negu	s3,s3
9d00f6b0:	0013102b 	sltu	v0,zero,s3
9d00f6b4:	1000ffca 	b	9d00f5e0 <scanexp+0xd4>
9d00f6b8:	0222a823 	subu	s5,s1,v0
9d00f6bc:	0f4046ff 	jal	9d011bfc <__shgetc>
9d00f6c0:	02002025 	move	a0,s0
9d00f6c4:	1000ffe3 	b	9d00f654 <scanexp+0x148>
9d00f6c8:	00408825 	move	s1,v0
9d00f6cc:	0f4046ff 	jal	9d011bfc <__shgetc>
9d00f6d0:	02002025 	move	a0,s0
9d00f6d4:	10000012 	b	9d00f720 <scanexp+0x214>
9d00f6d8:	2403000a 	li	v1,10
9d00f6dc:	10400026 	beqz	v0,9d00f778 <scanexp+0x26c>
9d00f6e0:	26c2ffff 	addiu	v0,s6,-1
9d00f6e4:	16a20005 	bne	s5,v0,9d00f6fc <scanexp+0x1f0>
9d00f6e8:	3c027ae1 	lui	v0,0x7ae1
9d00f6ec:	244247ae 	addiu	v0,v0,18350
9d00f6f0:	0262102b 	sltu	v0,s3,v0
9d00f6f4:	50400021 	beqzl	v0,9d00f77c <scanexp+0x270>
9d00f6f8:	2631ffd0 	addiu	s1,s1,-48
9d00f6fc:	8e02003c 	lw	v0,60(s0)
9d00f700:	8e03004c 	lw	v1,76(s0)
9d00f704:	0043182b 	sltu	v1,v0,v1
9d00f708:	1060fff0 	beqz	v1,9d00f6cc <scanexp+0x1c0>
9d00f70c:	00000000 	nop
9d00f710:	24430001 	addiu	v1,v0,1
9d00f714:	ae03003c 	sw	v1,60(s0)
9d00f718:	90420000 	lbu	v0,0(v0)
9d00f71c:	2403000a 	li	v1,10
9d00f720:	00730019 	multu	v1,s3
9d00f724:	00009012 	mflo	s2
9d00f728:	00009810 	mfhi	s3
9d00f72c:	70752002 	mul	a0,v1,s5
9d00f730:	00939821 	addu	s3,a0,s3
9d00f734:	001127c3 	sra	a0,s1,0x1f
9d00f738:	02518821 	addu	s1,s2,s1
9d00f73c:	0232182b 	sltu	v1,s1,s2
9d00f740:	02642021 	addu	a0,s3,a0
9d00f744:	00641821 	addu	v1,v1,a0
9d00f748:	2633ffd0 	addiu	s3,s1,-48
9d00f74c:	0271882b 	sltu	s1,s3,s1
9d00f750:	2463ffff 	addiu	v1,v1,-1
9d00f754:	0223a821 	addu	s5,s1,v1
9d00f758:	1000ffcb 	b	9d00f688 <scanexp+0x17c>
9d00f75c:	00408825 	move	s1,v0
9d00f760:	8e03004c 	lw	v1,76(s0)
9d00f764:	0043182b 	sltu	v1,v0,v1
9d00f768:	10600009 	beqz	v1,9d00f790 <scanexp+0x284>
9d00f76c:	24430001 	addiu	v1,v0,1
9d00f770:	ae03003c 	sw	v1,60(s0)
9d00f774:	90510000 	lbu	s1,0(v0)
9d00f778:	2631ffd0 	addiu	s1,s1,-48
9d00f77c:	2e31000a 	sltiu	s1,s1,10
9d00f780:	5620fff7 	bnezl	s1,9d00f760 <scanexp+0x254>
9d00f784:	8e02003c 	lw	v0,60(s0)
9d00f788:	1000ffc4 	b	9d00f69c <scanexp+0x190>
9d00f78c:	8e02004c 	lw	v0,76(s0)
9d00f790:	0f4046ff 	jal	9d011bfc <__shgetc>
9d00f794:	02002025 	move	a0,s0
9d00f798:	1000fff7 	b	9d00f778 <scanexp+0x26c>
9d00f79c:	00408825 	move	s1,v0
9d00f7a0:	2442ffff 	addiu	v0,v0,-1
9d00f7a4:	1000ffbf 	b	9d00f6a4 <scanexp+0x198>
9d00f7a8:	ae02003c 	sw	v0,60(s0)

Disassembly of section .text.fpsubadd:

9d00f7ac <__subsf3>:
9d00f7ac:	3c018000 00a12826                       ...<&(..

9d00f7b4 <__addsf3>:
9d00f7b4:	00044dc2 312900ff 00055dc2 316b00ff     .M....)1.]....k1
9d00f7c4:	3c078000 00044200 01074025 00055200     ...<.B..%@...R..
9d00f7d4:	01475025 252dffff 2da100fe 10200061     %PG...-%...-a. .
9d00f7e4:	00000000                                ....

9d00f7e8 <Blab1>:
9d00f7e8:	256dffff 	addiu	t5,t3,-1
9d00f7ec:	2da100fe 	sltiu	at,t5,254
9d00f7f0:	10200077 	beqz	at,9d00f9d0 <BspecB>
9d00f7f4:	00000000 	nop

9d00f7f8 <Blab2>:
9d00f7f8:	012b6023 	subu	t4,t1,t3
9d00f7fc:	0580000d 	bltz	t4,9d00f834 <i1>
9d00f800:	00000000 	nop
9d00f804:	29810020 	slti	at,t4,32
9d00f808:	14200003 	bnez	at,9d00f818 <i2>
9d00f80c:	00000000 	nop
9d00f810:	10000015 	b	9d00f868 <e1>
9d00f814:	240a0002 	li	t2,2

9d00f818 <i2>:
9d00f818:	000a3025 	or	a2,zero,t2
9d00f81c:	018a5006 	srlv	t2,t2,t4
9d00f820:	018a6804 	sllv	t5,t2,t4
9d00f824:	11a60010 	beq	t5,a2,9d00f868 <e1>
9d00f828:	00000000 	nop
9d00f82c:	1000000e 	b	9d00f868 <e1>
9d00f830:	354a0002 	ori	t2,t2,0x2

9d00f834 <i1>:
9d00f834:	000b4825 	or	t1,zero,t3
9d00f838:	000c6023 	negu	t4,t4
9d00f83c:	29810020 	slti	at,t4,32
9d00f840:	14200003 	bnez	at,9d00f850 <i4>
9d00f844:	00000000 	nop
9d00f848:	10000007 	b	9d00f868 <e1>
9d00f84c:	24080002 	li	t0,2

9d00f850 <i4>:
9d00f850:	00083025 	or	a2,zero,t0
9d00f854:	01884006 	srlv	t0,t0,t4
9d00f858:	01886804 	sllv	t5,t0,t4
9d00f85c:	11a60002 	beq	t5,a2,9d00f868 <e1>
9d00f860:	00000000 	nop
9d00f864:	35080002 	ori	t0,t0,0x2

9d00f868 <e1>:
9d00f868:	00876024 	and	t4,a0,a3
9d00f86c:	01856826 	xor	t5,t4,a1
9d00f870:	05a00010 	bltz	t5,9d00f8b4 <Bsub1>
9d00f874:	00000000 	nop
9d00f878:	010a4021 	addu	t0,t0,t2
9d00f87c:	010a682b 	sltu	t5,t0,t2
9d00f880:	11a00017 	beqz	t5,9d00f8e0 <Bres>
9d00f884:	00000000 	nop
9d00f888:	310d0001 	andi	t5,t0,0x1
9d00f88c:	11a00002 	beqz	t5,9d00f898 <i7>
9d00f890:	00000000 	nop
9d00f894:	35080002 	ori	t0,t0,0x2

9d00f898 <i7>:
9d00f898:	00084042 	srl	t0,t0,0x1
9d00f89c:	25290001 	addiu	t1,t1,1
9d00f8a0:	240100ff 	li	at,255
9d00f8a4:	1521000e 	bne	t1,at,9d00f8e0 <Bres>
9d00f8a8:	00000000 	nop
9d00f8ac:	1000000c 	b	9d00f8e0 <Bres>
9d00f8b0:	24080000 	li	t0,0

9d00f8b4 <Bsub1>:
9d00f8b4:	010a682b 	sltu	t5,t0,t2
9d00f8b8:	11a00004 	beqz	t5,9d00f8cc <i9>
9d00f8bc:	010a4023 	subu	t0,t0,t2
9d00f8c0:	00084023 	negu	t0,t0
9d00f8c4:	10000003 	b	9d00f8d4 <e9>
9d00f8c8:	01876026 	xor	t4,t4,a3

9d00f8cc <i9>:
9d00f8cc:	11000050 	beqz	t0,9d00fa10 <Bzer>
9d00f8d0:	00000000 	nop

9d00f8d4 <e9>:
9d00f8d4:	71063020 	clz	a2,t0
9d00f8d8:	01264823 	subu	t1,t1,a2
9d00f8dc:	00c84004 	sllv	t0,t0,a2

9d00f8e0 <Bres>:
9d00f8e0:	1920000e 	blez	t1,9d00f91c <Bund>
9d00f8e4:	00000000 	nop

9d00f8e8 <Blab12>:
9d00f8e8:	25080080 	addiu	t0,t0,128
9d00f8ec:	2d0d0080 	sltiu	t5,t0,128
9d00f8f0:	012d4821 	addu	t1,t1,t5
9d00f8f4:	00086a02 	srl	t5,t0,0x8
9d00f8f8:	31ad0001 	andi	t5,t5,0x1
9d00f8fc:	010d4023 	subu	t0,t0,t5
9d00f900:	00084040 	sll	t0,t0,0x1
9d00f904:	00084242 	srl	t0,t0,0x9
9d00f908:	00096dc0 	sll	t5,t1,0x17
9d00f90c:	010d4025 	or	t0,t0,t5
9d00f910:	010c1025 	or	v0,t0,t4

9d00f914 <B999>:
9d00f914:	03e00008 	jr	ra
9d00f918:	00000000 	nop

9d00f91c <Bund>:
9d00f91c:	24060001 	li	a2,1
9d00f920:	00c93023 	subu	a2,a2,t1
9d00f924:	2cc10020 	sltiu	at,a2,32
9d00f928:	10200039 	beqz	at,9d00fa10 <Bzer>
9d00f92c:	00000000 	nop
9d00f930:	3c018000 	lui	at,0x8000
9d00f934:	01014025 	or	t0,t0,at
9d00f938:	240d0020 	li	t5,32
9d00f93c:	01a66823 	subu	t5,t5,a2
9d00f940:	01a84804 	sllv	t1,t0,t5
9d00f944:	11200002 	beqz	t1,9d00f950 <i10>
9d00f948:	00c84006 	srlv	t0,t0,a2
9d00f94c:	35080001 	ori	t0,t0,0x1

9d00f950 <i10>:
9d00f950:	24090000 	li	t1,0
9d00f954:	250d0080 	addiu	t5,t0,128
9d00f958:	05a1ffe3 	bgez	t5,9d00f8e8 <Blab12>
9d00f95c:	00000000 	nop
9d00f960:	1000ffe1 	b	9d00f8e8 <Blab12>
9d00f964:	24090001 	li	t1,1

9d00f968 <BspecA>:
9d00f968:	1520000e 	bnez	t1,9d00f9a4 <i12>
9d00f96c:	00000000 	nop
9d00f970:	01084021 	addu	t0,t0,t0
9d00f974:	11000005 	beqz	t0,9d00f98c <i13>
9d00f978:	00000000 	nop
9d00f97c:	710c6020 	clz	t4,t0
9d00f980:	012c4823 	subu	t1,t1,t4
9d00f984:	1000ff98 	b	9d00f7e8 <Blab1>
9d00f988:	01884004 	sllv	t0,t0,t4

9d00f98c <i13>:
9d00f98c:	240100ff 	li	at,255
9d00f990:	1161000f 	beq	t3,at,9d00f9d0 <BspecB>
9d00f994:	00000000 	nop
9d00f998:	3c018000 	lui	at,0x8000
9d00f99c:	14a10018 	bne	a1,at,9d00fa00 <BretB>
9d00f9a0:	00000000 	nop

9d00f9a4 <i12>:
9d00f9a4:	01086821 	addu	t5,t0,t0
9d00f9a8:	15a0001b 	bnez	t5,9d00fa18 <Bnan>
9d00f9ac:	00000000 	nop
9d00f9b0:	240100ff 	li	at,255
9d00f9b4:	15610014 	bne	t3,at,9d00fa08 <BretA>
9d00f9b8:	00000000 	nop
9d00f9bc:	00856826 	xor	t5,a0,a1
9d00f9c0:	05a00015 	bltz	t5,9d00fa18 <Bnan>
9d00f9c4:	00000000 	nop
9d00f9c8:	1000000d 	b	9d00fa00 <BretB>
9d00f9cc:	00000000 	nop

9d00f9d0 <BspecB>:
9d00f9d0:	15600008 	bnez	t3,9d00f9f4 <i15>
9d00f9d4:	00000000 	nop
9d00f9d8:	014a5021 	addu	t2,t2,t2
9d00f9dc:	1140000a 	beqz	t2,9d00fa08 <BretA>
9d00f9e0:	00000000 	nop
9d00f9e4:	714c6020 	clz	t4,t2
9d00f9e8:	016c5823 	subu	t3,t3,t4
9d00f9ec:	1000ff82 	b	9d00f7f8 <Blab2>
9d00f9f0:	018a5004 	sllv	t2,t2,t4

9d00f9f4 <i15>:
9d00f9f4:	014a6821 	addu	t5,t2,t2
9d00f9f8:	15a00007 	bnez	t5,9d00fa18 <Bnan>
9d00f9fc:	00000000 	nop

9d00fa00 <BretB>:
9d00fa00:	1000ffc4 	b	9d00f914 <B999>
9d00fa04:	00051025 	or	v0,zero,a1

9d00fa08 <BretA>:
9d00fa08:	1000ffc2 	b	9d00f914 <B999>
9d00fa0c:	00041025 	or	v0,zero,a0

9d00fa10 <Bzer>:
9d00fa10:	1000ffc0 	b	9d00f914 <B999>
9d00fa14:	24020000 	li	v0,0

9d00fa18 <Bnan>:
9d00fa18:	1000ffbe 	b	9d00f914 <B999>
9d00fa1c:	3c02ffc0 	lui	v0,0xffc0
9d00fa20:	00000000 	nop

Disassembly of section .text:

9d00fa24 <NU32DIP_Startup>:
#include "nu32dip.h"

void NU32DIP_Startup() {
9d00fa24:	27bdfff8 	addiu	sp,sp,-8
9d00fa28:	afbf0004 	sw	ra,4(sp)
    __builtin_disable_interrupts(); // disable interrupts while initializing things
9d00fa2c:	41626000 	di	v0
9d00fa30:	000000c0 	ehb

    // set the CP0 CONFIG register to indicate that kseg0 is cacheable (0x3)
    __builtin_mtc0(_CP0_CONFIG, _CP0_CONFIG_SELECT, 0xa4210583);
9d00fa34:	3c02a421 	lui	v0,0xa421
9d00fa38:	24420583 	addiu	v0,v0,1411
9d00fa3c:	40828000 	mtc0	v0,c0_config
9d00fa40:	000000c0 	ehb

    // 0 data RAM access wait states
    BMXCONbits.BMXWSDRM = 0x0;
9d00fa44:	3c02bf88 	lui	v0,0xbf88
9d00fa48:	8c432000 	lw	v1,8192(v0)
9d00fa4c:	7c033184 	ins	v1,zero,0x6,0x1
9d00fa50:	ac432000 	sw	v1,8192(v0)

    // enable multi vector interrupts
    INTCONbits.MVEC = 0x1;
9d00fa54:	3c02bf88 	lui	v0,0xbf88
9d00fa58:	8c441000 	lw	a0,4096(v0)
9d00fa5c:	24030001 	li	v1,1
9d00fa60:	7c646304 	ins	a0,v1,0xc,0x1
9d00fa64:	ac441000 	sw	a0,4096(v0)

    // disable JTAG to get pins back
    DDPCONbits.JTAGEN = 0;
9d00fa68:	3c02bf81 	lui	v0,0xbf81
9d00fa6c:	9444f200 	lhu	a0,-3584(v0)
9d00fa70:	7c0418c4 	ins	a0,zero,0x3,0x1
9d00fa74:	a444f200 	sh	a0,-3584(v0)

    // do your TRIS and LAT commands here
    TRISBCLR = 0b110000; // B4 and B5 LEDs
9d00fa78:	3c02bf88 	lui	v0,0xbf88
9d00fa7c:	24040030 	li	a0,48
9d00fa80:	ac446114 	sw	a0,24852(v0)
    TRISASET = 0b010000; // A4 user button
9d00fa84:	3c02bf88 	lui	v0,0xbf88
9d00fa88:	24040010 	li	a0,16
9d00fa8c:	ac446018 	sw	a0,24600(v0)
    //NU32_LED1 = 1; // LED1 is off
    NU32DIP_YELLOW = 1;
9d00fa90:	3c02bf88 	lui	v0,0xbf88
9d00fa94:	94446130 	lhu	a0,24880(v0)
9d00fa98:	7c642944 	ins	a0,v1,0x5,0x1
9d00fa9c:	a4446130 	sh	a0,24880(v0)
    //NU32_LED2 = 0; // LED2 is on
    NU32DIP_GREEN = 0;
9d00faa0:	94446130 	lhu	a0,24880(v0)
9d00faa4:	7c042104 	ins	a0,zero,0x4,0x1
9d00faa8:	a4446130 	sh	a0,24880(v0)

    //UART1 pins
    U1RXRbits.U1RXR = 0b0000; // Set A2 to U1RX
9d00faac:	3c02bf81 	lui	v0,0xbf81
9d00fab0:	9044fa50 	lbu	a0,-1456(v0)
9d00fab4:	7c041804 	ins	a0,zero,0x0,0x4
9d00fab8:	a044fa50 	sb	a0,-1456(v0)
    RPB3Rbits.RPB3R = 0b0001; // Set B3 to U1TX
9d00fabc:	3c02bf81 	lui	v0,0xbf81
9d00fac0:	9044fb38 	lbu	a0,-1224(v0)
9d00fac4:	7c641804 	ins	a0,v1,0x0,0x4
9d00fac8:	a044fb38 	sb	a0,-1224(v0)

    // turn on UART1 without an interrupt
    U1MODEbits.BRGH = 0; // set baud to NU32_DESIRED_BAUD
9d00facc:	3c02bf80 	lui	v0,0xbf80
9d00fad0:	94446000 	lhu	a0,24576(v0)
9d00fad4:	7c0418c4 	ins	a0,zero,0x3,0x1
9d00fad8:	a4446000 	sh	a0,24576(v0)
    U1BRG = ((NU32DIP_SYS_FREQ / NU32DIP_DESIRED_BAUD) / 16) - 1;
9d00fadc:	3c04bf80 	lui	a0,0xbf80
9d00fae0:	2405000c 	li	a1,12
9d00fae4:	ac856040 	sw	a1,24640(a0)

    // 8 bit, no parity bit, and 1 stop bit (8N1 setup)
    U1MODEbits.PDSEL = 0;
9d00fae8:	94446000 	lhu	a0,24576(v0)
9d00faec:	7c041044 	ins	a0,zero,0x1,0x2
9d00faf0:	a4446000 	sh	a0,24576(v0)
    U1MODEbits.STSEL = 0;
9d00faf4:	94446000 	lhu	a0,24576(v0)
9d00faf8:	7c040004 	ins	a0,zero,0x0,0x1
9d00fafc:	a4446000 	sh	a0,24576(v0)

    // configure TX & RX pins as output & input pins
    U1STAbits.UTXEN = 1;
9d00fb00:	3c04bf80 	lui	a0,0xbf80
9d00fb04:	8c856010 	lw	a1,24592(a0)
9d00fb08:	7c655284 	ins	a1,v1,0xa,0x1
9d00fb0c:	ac856010 	sw	a1,24592(a0)
    U1STAbits.URXEN = 1;
9d00fb10:	8c856010 	lw	a1,24592(a0)
9d00fb14:	7c656304 	ins	a1,v1,0xc,0x1
9d00fb18:	ac856010 	sw	a1,24592(a0)
    // configure without hardware flow control
    U1MODEbits.UEN = 0;
9d00fb1c:	94446000 	lhu	a0,24576(v0)
9d00fb20:	7c044a04 	ins	a0,zero,0x8,0x2
9d00fb24:	a4446000 	sh	a0,24576(v0)

    // enable the uart
    U1MODEbits.ON = 1;
9d00fb28:	94446000 	lhu	a0,24576(v0)
9d00fb2c:	7c647bc4 	ins	a0,v1,0xf,0x1
9d00fb30:	a4446000 	sh	a0,24576(v0)

    __builtin_enable_interrupts();
9d00fb34:	41626020 	ei	v0
}
9d00fb38:	8fbf0004 	lw	ra,4(sp)
9d00fb3c:	03e00008 	jr	ra
9d00fb40:	27bd0008 	addiu	sp,sp,8

9d00fb44 <NU32DIP_ReadUART1>:
// block other functions until you get a '\r' or '\n'
// send the pointer to your char array and the number of elements in the array

void NU32DIP_ReadUART1(char * message, int maxLength) {
    char data = 0;
    int complete = 0, num_bytes = 0;
9d00fb44:	00001025 	move	v0,zero
    // loop until you get a '\r' or '\n'
    while (!complete) {
        if (U1STAbits.URXDA) { // if data is available
9d00fb48:	3c0abf80 	lui	t2,0xbf80
            data = U1RXREG; // read the data
9d00fb4c:	3c09bf80 	lui	t1,0xbf80
            if ((data == '\n') || (data == '\r')) {
9d00fb50:	2408000a 	li	t0,10
9d00fb54:	2407000d 	li	a3,13
        if (U1STAbits.URXDA) { // if data is available
9d00fb58:	8d436010 	lw	v1,24592(t2)
9d00fb5c:	30630001 	andi	v1,v1,0x1
9d00fb60:	1060fffd 	beqz	v1,9d00fb58 <NU32DIP_ReadUART1+0x14>
9d00fb64:	00000000 	nop
            data = U1RXREG; // read the data
9d00fb68:	8d236030 	lw	v1,24624(t1)
9d00fb6c:	7c031c20 	seb	v1,v1
            if ((data == '\n') || (data == '\r')) {
9d00fb70:	5068000b 	beql	v1,t0,9d00fba0 <NU32DIP_ReadUART1+0x5c>
9d00fb74:	00822021 	addu	a0,a0,v0
9d00fb78:	10670008 	beq	v1,a3,9d00fb9c <NU32DIP_ReadUART1+0x58>
9d00fb7c:	24460001 	addiu	a2,v0,1
                complete = 1;
            } else {
                message[num_bytes] = data;
                ++num_bytes;
                // roll over if the array is too small
                if (num_bytes >= maxLength) {
9d00fb80:	00c5302a 	slt	a2,a2,a1
                    num_bytes = 0;
9d00fb84:	244b0001 	addiu	t3,v0,1
                message[num_bytes] = data;
9d00fb88:	00821021 	addu	v0,a0,v0
9d00fb8c:	a0430000 	sb	v1,0(v0)
9d00fb90:	01601025 	move	v0,t3
9d00fb94:	1000fff0 	b	9d00fb58 <NU32DIP_ReadUART1+0x14>
9d00fb98:	0006100a 	movz	v0,zero,a2
                }
            }
        }
    }
    // end the string
    message[num_bytes] = '\0';
9d00fb9c:	00822021 	addu	a0,a0,v0
}
9d00fba0:	03e00008 	jr	ra
9d00fba4:	a0800000 	sb	zero,0(a0)

9d00fba8 <NU32DIP_WriteUART1>:

// Write a character array using UART1

void NU32DIP_WriteUART1(const char * string) {
    while (*string != '\0') {
9d00fba8:	80820000 	lb	v0,0(a0)
9d00fbac:	1040000b 	beqz	v0,9d00fbdc <NU32DIP_WriteUART1+0x34>
9d00fbb0:	3c06bf80 	lui	a2,0xbf80
        while (U1STAbits.UTXBF) {
            ; // wait until tx buffer isn't full
        }
        U1TXREG = *string;
9d00fbb4:	3c05bf80 	lui	a1,0xbf80
        while (U1STAbits.UTXBF) {
9d00fbb8:	8cc36010 	lw	v1,24592(a2)
9d00fbbc:	7c630240 	ext	v1,v1,0x9,0x1
9d00fbc0:	1460fffd 	bnez	v1,9d00fbb8 <NU32DIP_WriteUART1+0x10>
9d00fbc4:	00000000 	nop
        U1TXREG = *string;
9d00fbc8:	aca26020 	sw	v0,24608(a1)
        ++string;
9d00fbcc:	24840001 	addiu	a0,a0,1
    while (*string != '\0') {
9d00fbd0:	80820000 	lb	v0,0(a0)
9d00fbd4:	1440fff8 	bnez	v0,9d00fbb8 <NU32DIP_WriteUART1+0x10>
9d00fbd8:	00000000 	nop
    }
}
9d00fbdc:	03e00008 	jr	ra
9d00fbe0:	00000000 	nop

Disassembly of section .text.fp32mul:

9d00fbe4 <__mulsf3>:
9d00fbe4:	00043dc2 30e700ff 00054dc2 312900ff     .=.....0.M....)1
9d00fbf4:	3c0a8000 00043200 00ca3025 00054200     ...<.2..%0...B..
9d00fc04:	010a4025 00856026 014c5024 24ecffff     %@..&`..$PL....$
9d00fc14:	2d8100fe 10200021 00000000              ...-!. .....

9d00fc20 <Clab1>:
9d00fc20:	252cffff 	addiu	t4,t1,-1
9d00fc24:	2d8100fe 	sltiu	at,t4,254
9d00fc28:	10200036 	beqz	at,9d00fd04 <CspecB>
9d00fc2c:	00000000 	nop

9d00fc30 <Clab2>:
9d00fc30:	00c80019 	multu	a2,t0
9d00fc34:	00005812 	mflo	t3
9d00fc38:	11600002 	beqz	t3,9d00fc44 <i17>
9d00fc3c:	00003010 	mfhi	a2
9d00fc40:	34c60001 	ori	a2,a2,0x1

9d00fc44 <i17>:
9d00fc44:	04c00003 	bltz	a2,9d00fc54 <i18>
9d00fc48:	00000000 	nop
9d00fc4c:	00063040 	sll	a2,a2,0x1
9d00fc50:	24e7ffff 	addiu	a3,a3,-1

9d00fc54 <i18>:
9d00fc54:	252cff82 	addiu	t4,t1,-126
9d00fc58:	00ec3821 	addu	a3,a3,t4
9d00fc5c:	24ecffff 	addiu	t4,a3,-1
9d00fc60:	2d8100fe 	sltiu	at,t4,254
9d00fc64:	1020003a 	beqz	at,9d00fd50 <Coveund>
9d00fc68:	00000000 	nop

9d00fc6c <Clab8>:
9d00fc6c:	24c60080 	addiu	a2,a2,128
9d00fc70:	2ccc0080 	sltiu	t4,a2,128
9d00fc74:	00ec3821 	addu	a3,a3,t4
9d00fc78:	00066202 	srl	t4,a2,0x8
9d00fc7c:	318c0001 	andi	t4,t4,0x1
9d00fc80:	00cc3023 	subu	a2,a2,t4
9d00fc84:	00063040 	sll	a2,a2,0x1
9d00fc88:	00063242 	srl	a2,a2,0x9
9d00fc8c:	000765c0 	sll	t4,a3,0x17
9d00fc90:	00cc3025 	or	a2,a2,t4
9d00fc94:	00ca1025 	or	v0,a2,t2

9d00fc98 <C999>:
9d00fc98:	03e00008 	jr	ra
9d00fc9c:	00000000 	nop

9d00fca0 <CspecA>:
9d00fca0:	14e0000d 	bnez	a3,9d00fcd8 <i19>
9d00fca4:	00000000 	nop
9d00fca8:	00c63021 	addu	a2,a2,a2
9d00fcac:	10c00005 	beqz	a2,9d00fcc4 <i20>
9d00fcb0:	00000000 	nop
9d00fcb4:	70cb5820 	clz	t3,a2
9d00fcb8:	00eb3823 	subu	a3,a3,t3
9d00fcbc:	1000ffd8 	b	9d00fc20 <Clab1>
9d00fcc0:	01663004 	sllv	a2,a2,t3

9d00fcc4 <i20>:
9d00fcc4:	240100ff 	li	at,255
9d00fcc8:	1121001f 	beq	t1,at,9d00fd48 <Cnan>
9d00fccc:	00000000 	nop
9d00fcd0:	10000015 	b	9d00fd28 <Czer>
9d00fcd4:	00000000 	nop

9d00fcd8 <i19>:
9d00fcd8:	00c66021 	addu	t4,a2,a2
9d00fcdc:	1580001a 	bnez	t4,9d00fd48 <Cnan>
9d00fce0:	00000000 	nop
9d00fce4:	15200004 	bnez	t1,9d00fcf8 <i21>
9d00fce8:	00000000 	nop
9d00fcec:	01086021 	addu	t4,t0,t0
9d00fcf0:	11800015 	beqz	t4,9d00fd48 <Cnan>
9d00fcf4:	00000000 	nop

9d00fcf8 <i21>:
9d00fcf8:	240100ff 	li	at,255
9d00fcfc:	1521000f 	bne	t1,at,9d00fd3c <Cinf>
9d00fd00:	00000000 	nop

9d00fd04 <CspecB>:
9d00fd04:	1520000a 	bnez	t1,9d00fd30 <i22>
9d00fd08:	00000000 	nop
9d00fd0c:	01084021 	addu	t0,t0,t0
9d00fd10:	11000005 	beqz	t0,9d00fd28 <Czer>
9d00fd14:	00000000 	nop
9d00fd18:	710b5820 	clz	t3,t0
9d00fd1c:	012b4823 	subu	t1,t1,t3
9d00fd20:	1000ffc3 	b	9d00fc30 <Clab2>
9d00fd24:	01684004 	sllv	t0,t0,t3

9d00fd28 <Czer>:
9d00fd28:	1000ffdb 	b	9d00fc98 <C999>
9d00fd2c:	000a1025 	or	v0,zero,t2

9d00fd30 <i22>:
9d00fd30:	01086021 	addu	t4,t0,t0
9d00fd34:	15800004 	bnez	t4,9d00fd48 <Cnan>
9d00fd38:	00000000 	nop

9d00fd3c <Cinf>:
9d00fd3c:	3c017f80 	lui	at,0x7f80
9d00fd40:	1000ffd5 	b	9d00fc98 <C999>
9d00fd44:	01411025 	or	v0,t2,at

9d00fd48 <Cnan>:
9d00fd48:	1000ffd3 	b	9d00fc98 <C999>
9d00fd4c:	3c02ffc0 	lui	v0,0xffc0

9d00fd50 <Coveund>:
9d00fd50:	1ce0fffa 	bgtz	a3,9d00fd3c <Cinf>
9d00fd54:	00000000 	nop
9d00fd58:	240b0001 	li	t3,1
9d00fd5c:	01675823 	subu	t3,t3,a3
9d00fd60:	2d610020 	sltiu	at,t3,32
9d00fd64:	1020fff0 	beqz	at,9d00fd28 <Czer>
9d00fd68:	00000000 	nop
9d00fd6c:	240c0020 	li	t4,32
9d00fd70:	018b6023 	subu	t4,t4,t3
9d00fd74:	01863804 	sllv	a3,a2,t4
9d00fd78:	10e00002 	beqz	a3,9d00fd84 <i25>
9d00fd7c:	01663006 	srlv	a2,a2,t3
9d00fd80:	34c60002 	ori	a2,a2,0x2

9d00fd84 <i25>:
9d00fd84:	24070000 	li	a3,0
9d00fd88:	24cc0080 	addiu	t4,a2,128
9d00fd8c:	0581ffb7 	bgez	t4,9d00fc6c <Clab8>
9d00fd90:	00000000 	nop
9d00fd94:	1000ffb5 	b	9d00fc6c <Clab8>
9d00fd98:	24070001 	li	a3,1
9d00fd9c:	00000000 	nop

Disassembly of section .dinit:

9d00fda0 <.dinit>:
9d00fda0:	a000001c 	sb	zero,28(zero)
9d00fda4:	0000000c 	syscall
9d00fda8:	00000000 	nop
9d00fdac:	a0000050 	sb	zero,80(zero)
9d00fdb0:	00000064 	0x64
9d00fdb4:	00000000 	nop
9d00fdb8:	a0000178 	sb	zero,376(zero)
9d00fdbc:	00002ee0 	0x2ee0
9d00fdc0:	00000000 	nop
9d00fdc4:	a0000028 	sb	zero,40(zero)
9d00fdc8:	00000024 	and	zero,zero,zero
9d00fdcc:	00000000 	nop
9d00fdd0:	a0000000 	sb	zero,0(zero)
9d00fdd4:	00000018 	mult	zero,zero
9d00fdd8:	00000001 	movf	zero,zero,$fcc0
9d00fddc:	c3480000 	ll	t0,0(k0)
9d00fde0:	44bb8000 	0x44bb8000
9d00fde4:	3c23d70a 	0x3c23d70a
9d00fde8:	41000000 	mftc0	zero,c0_index
9d00fdec:	3d4ccccd 	0x3d4ccccd
9d00fdf0:	3cf5c28f 	0x3cf5c28f
9d00fdf4:	a000004c 	sb	zero,76(zero)
9d00fdf8:	00000004 	sllv	zero,zero,zero
9d00fdfc:	00000000 	nop
9d00fe00:	a00000b4 	sb	zero,180(zero)
9d00fe04:	00000060 	0x60
9d00fe08:	00000001 	movf	zero,zero,$fcc0
9d00fe0c:	00000001 	movf	zero,zero,$fcc0
9d00fe10:	00000003 	sra	zero,zero,0x0
	...
9d00fe28:	9d011a84 	0x9d011a84
	...
9d00fe38:	9d013adc 	0x9d013adc
9d00fe3c:	9d0123c8 	0x9d0123c8
	...
9d00fe6c:	a000307c 	sb	zero,12412(zero)
9d00fe70:	00000004 	sllv	zero,zero,zero
9d00fe74:	00000000 	nop
9d00fe78:	a0000114 	sb	zero,276(zero)
9d00fe7c:	00000060 	0x60
9d00fe80:	00000001 	movf	zero,zero,$fcc0
9d00fe84:	00000001 	movf	zero,zero,$fcc0
9d00fe88:	00000003 	sra	zero,zero,0x0
	...
9d00fea0:	9d011a84 	0x9d011a84
	...
9d00feb0:	9d013adc 	0x9d013adc
9d00feb4:	9d0123c8 	0x9d0123c8
	...
9d00fee4:	a0000018 	sb	zero,24(zero)
9d00fee8:	00000004 	sllv	zero,zero,zero
9d00feec:	00000001 	movf	zero,zero,$fcc0
9d00fef0:	00000002 	srl	zero,zero,0x0
9d00fef4:	a0003080 	sb	zero,12416(zero)
9d00fef8:	00000004 	sllv	zero,zero,zero
9d00fefc:	00000000 	nop
9d00ff00:	a0000174 	sb	zero,372(zero)
9d00ff04:	00000004 	sllv	zero,zero,zero
9d00ff08:	00000001 	movf	zero,zero,$fcc0
9d00ff0c:	00000001 	movf	zero,zero,$fcc0
9d00ff10:	a0003084 	sb	zero,12420(zero)
9d00ff14:	00000004 	sllv	zero,zero,zero
9d00ff18:	00000000 	nop
9d00ff1c:	a0003058 	sb	zero,12376(zero)
9d00ff20:	00000024 	and	zero,zero,zero
	...
9d00ff2c:	66666666 	0x66666666

Disassembly of section .text.__pop_int:

9d00ff30 <__pop_int>:
9d00ff30:	24020088 	li	v0,136
9d00ff34:	10a2003f 	beq	a1,v0,9d010034 <__pop_int+0x104>
9d00ff38:	28a20089 	slti	v0,a1,137
9d00ff3c:	1040001a 	beqz	v0,9d00ffa8 <__pop_int+0x78>
9d00ff40:	24020081 	li	v0,129
9d00ff44:	10a20054 	beq	a1,v0,9d010098 <__pop_int+0x168>
9d00ff48:	28a20082 	slti	v0,a1,130
9d00ff4c:	10400005 	beqz	v0,9d00ff64 <__pop_int+0x34>
9d00ff50:	24020080 	li	v0,128
9d00ff54:	50a20051 	beql	a1,v0,9d01009c <__pop_int+0x16c>
9d00ff58:	8ce20000 	lw	v0,0(a3)
9d00ff5c:	03e00008 	jr	ra
9d00ff60:	00001025 	move	v0,zero
9d00ff64:	24020082 	li	v0,130
9d00ff68:	50a2003b 	beql	a1,v0,9d010058 <__pop_int+0x128>
9d00ff6c:	8ce20000 	lw	v0,0(a3)
9d00ff70:	24020084 	li	v0,132
9d00ff74:	14a2fff9 	bne	a1,v0,9d00ff5c <__pop_int+0x2c>
9d00ff78:	00000000 	nop
9d00ff7c:	8ce20000 	lw	v0,0(a3)
9d00ff80:	24430004 	addiu	v1,v0,4
9d00ff84:	8c420000 	lw	v0,0(v0)
9d00ff88:	10c00027 	beqz	a2,9d010028 <__pop_int+0xf8>
9d00ff8c:	ace30000 	sw	v1,0(a3)
9d00ff90:	7c021620 	seh	v0,v0
9d00ff94:	ac820000 	sw	v0,0(a0)
9d00ff98:	000217c3 	sra	v0,v0,0x1f
9d00ff9c:	ac820004 	sw	v0,4(a0)
9d00ffa0:	03e00008 	jr	ra
9d00ffa4:	24020001 	li	v0,1
9d00ffa8:	240200a0 	li	v0,160
9d00ffac:	50a20036 	beql	a1,v0,9d010088 <__pop_int+0x158>
9d00ffb0:	8ce20000 	lw	v0,0(a3)
9d00ffb4:	28a200a1 	slti	v0,a1,161
9d00ffb8:	10400010 	beqz	v0,9d00fffc <__pop_int+0xcc>
9d00ffbc:	24020090 	li	v0,144
9d00ffc0:	14a2ffe6 	bne	a1,v0,9d00ff5c <__pop_int+0x2c>
9d00ffc4:	00000000 	nop
9d00ffc8:	8ce20000 	lw	v0,0(a3)
9d00ffcc:	24420007 	addiu	v0,v0,7
9d00ffd0:	7c021004 	ins	v0,zero,0x0,0x3
9d00ffd4:	8c480000 	lw	t0,0(v0)
9d00ffd8:	8c490004 	lw	t1,4(v0)
9d00ffdc:	24420008 	addiu	v0,v0,8
9d00ffe0:	ace20000 	sw	v0,0(a3)
9d00ffe4:	ac880000 	sw	t0,0(a0)
9d00ffe8:	ac890004 	sw	t1,4(a0)
9d00ffec:	10c00001 	beqz	a2,9d00fff4 <__pop_int+0xc4>
9d00fff0:	24020001 	li	v0,1
9d00fff4:	03e00008 	jr	ra
9d00fff8:	00000000 	nop
9d00fffc:	240200c0 	li	v0,192
9d010000:	50a20005 	beql	a1,v0,9d010018 <__pop_int+0xe8>
9d010004:	8ce20000 	lw	v0,0(a3)
9d010008:	240200f0 	li	v0,240
9d01000c:	14a2ffd3 	bne	a1,v0,9d00ff5c <__pop_int+0x2c>
9d010010:	00000000 	nop
9d010014:	8ce20000 	lw	v0,0(a3)
9d010018:	24430004 	addiu	v1,v0,4
9d01001c:	ace30000 	sw	v1,0(a3)
9d010020:	10000002 	b	9d01002c <__pop_int+0xfc>
9d010024:	8c420000 	lw	v0,0(v0)
9d010028:	3042ffff 	andi	v0,v0,0xffff
9d01002c:	10000020 	b	9d0100b0 <__pop_int+0x180>
9d010030:	ac820000 	sw	v0,0(a0)
9d010034:	8ce20000 	lw	v0,0(a3)
9d010038:	24430004 	addiu	v1,v0,4
9d01003c:	8c420000 	lw	v0,0(v0)
9d010040:	10c00003 	beqz	a2,9d010050 <__pop_int+0x120>
9d010044:	ace30000 	sw	v1,0(a3)
9d010048:	1000ffd2 	b	9d00ff94 <__pop_int+0x64>
9d01004c:	7c021420 	seb	v0,v0
9d010050:	1000fff6 	b	9d01002c <__pop_int+0xfc>
9d010054:	304200ff 	andi	v0,v0,0xff
9d010058:	24420007 	addiu	v0,v0,7
9d01005c:	7c021004 	ins	v0,zero,0x0,0x3
9d010060:	8c480000 	lw	t0,0(v0)
9d010064:	8c490004 	lw	t1,4(v0)
9d010068:	24420008 	addiu	v0,v0,8
9d01006c:	ace20000 	sw	v0,0(a3)
9d010070:	ac880000 	sw	t0,0(a0)
9d010074:	ac890004 	sw	t1,4(a0)
9d010078:	10c0ffde 	beqz	a2,9d00fff4 <__pop_int+0xc4>
9d01007c:	24020001 	li	v0,1
9d010080:	03e00008 	jr	ra
9d010084:	00000000 	nop
9d010088:	24430004 	addiu	v1,v0,4
9d01008c:	ace30000 	sw	v1,0(a3)
9d010090:	1000ffc0 	b	9d00ff94 <__pop_int+0x64>
9d010094:	8c420000 	lw	v0,0(v0)
9d010098:	8ce20000 	lw	v0,0(a3)
9d01009c:	24430004 	addiu	v1,v0,4
9d0100a0:	ace30000 	sw	v1,0(a3)
9d0100a4:	8c420000 	lw	v0,0(v0)
9d0100a8:	14c0ffbb 	bnez	a2,9d00ff98 <__pop_int+0x68>
9d0100ac:	ac820000 	sw	v0,0(a0)
9d0100b0:	1000ffbb 	b	9d00ffa0 <__pop_int+0x70>
9d0100b4:	ac800004 	sw	zero,4(a0)

Disassembly of section .text:

9d0100b8 <i2c_master_setup>:
// I2C Master utilities, 400 kHz, using polling rather than interrupts
// The functions must be callled in the correct order as per the I2C protocol
// Master will use I2C1 (SET PINS) SDA1 (D9) and SCL1 (D10)

void i2c_master_setup(void) {
  I2C1BRG = 53; //53 for 400kHz    // I2CBRG = [1/(2*Fsck) - PGD]*Pblck - 2 
9d0100b8:	3c02bf80 	lui	v0,0xbf80
9d0100bc:	24030035 	li	v1,53
9d0100c0:	ac435040 	sw	v1,20544(v0)
                                    // Fsck is the SCL freq, PGD = 104 ns
  I2C1CONbits.ON = 1;               // turn on the I2C1 module
9d0100c4:	3c02bf80 	lui	v0,0xbf80
9d0100c8:	94435000 	lhu	v1,20480(v0)
9d0100cc:	24040001 	li	a0,1
9d0100d0:	7c837bc4 	ins	v1,a0,0xf,0x1
9d0100d4:	a4435000 	sh	v1,20480(v0)
}
9d0100d8:	03e00008 	jr	ra
9d0100dc:	00000000 	nop

9d0100e0 <i2c_master_start>:

// Start a transmission on the I2C bus
void i2c_master_start(void) {
    I2C1CONbits.SEN = 1;            // send the start bit
9d0100e0:	3c02bf80 	lui	v0,0xbf80
9d0100e4:	94435000 	lhu	v1,20480(v0)
9d0100e8:	24040001 	li	a0,1
9d0100ec:	7c830004 	ins	v1,a0,0x0,0x1
9d0100f0:	a4435000 	sh	v1,20480(v0)
    while(I2C1CONbits.SEN) { ; }    // wait for the start bit to be sent
9d0100f4:	00401825 	move	v1,v0
9d0100f8:	8c625000 	lw	v0,20480(v1)
9d0100fc:	30420001 	andi	v0,v0,0x1
9d010100:	1440fffd 	bnez	v0,9d0100f8 <i2c_master_start+0x18>
9d010104:	00000000 	nop
}
9d010108:	03e00008 	jr	ra
9d01010c:	00000000 	nop

9d010110 <i2c_master_restart>:

void i2c_master_restart(void) {     
    I2C1CONbits.RSEN = 1;           // send a restart 
9d010110:	3c02bf80 	lui	v0,0xbf80
9d010114:	94435000 	lhu	v1,20480(v0)
9d010118:	24040001 	li	a0,1
9d01011c:	7c830844 	ins	v1,a0,0x1,0x1
9d010120:	a4435000 	sh	v1,20480(v0)
    while(I2C1CONbits.RSEN) { ; }   // wait for the restart to clear
9d010124:	00401825 	move	v1,v0
9d010128:	8c625000 	lw	v0,20480(v1)
9d01012c:	7c420040 	ext	v0,v0,0x1,0x1
9d010130:	1440fffd 	bnez	v0,9d010128 <i2c_master_restart+0x18>
9d010134:	00000000 	nop
}
9d010138:	03e00008 	jr	ra
9d01013c:	00000000 	nop

9d010140 <i2c_master_send>:

void i2c_master_send(unsigned char byte) { // send a byte to slave
  I2C1TRN = byte;                   // if an address, bit 0 = 0 for write, 1 for read
9d010140:	3c02bf80 	lui	v0,0xbf80
9d010144:	ac445050 	sw	a0,20560(v0)
  while(I2C1STATbits.TRSTAT) { ; }  // wait for the transmission to finish
9d010148:	3c03bf80 	lui	v1,0xbf80
9d01014c:	8c625010 	lw	v0,20496(v1)
9d010150:	7c420380 	ext	v0,v0,0xe,0x1
9d010154:	1440fffd 	bnez	v0,9d01014c <i2c_master_send+0xc>
9d010158:	3c02bf80 	lui	v0,0xbf80
  if(I2C1STATbits.ACKSTAT) {        // if this is high, slave has not acknowledged
9d01015c:	8c425010 	lw	v0,20496(v0)
9d010160:	7c4203c0 	ext	v0,v0,0xf,0x1
9d010164:	10400008 	beqz	v0,9d010188 <i2c_master_send+0x48>
9d010168:	3c049d00 	lui	a0,0x9d00
void i2c_master_send(unsigned char byte) { // send a byte to slave
9d01016c:	27bdffe8 	addiu	sp,sp,-24
9d010170:	afbf0014 	sw	ra,20(sp)
    NU32DIP_WriteUART1("I2C2 Master: failed to receive ACK\r\n");
9d010174:	0f403eea 	jal	9d00fba8 <NU32DIP_WriteUART1>
9d010178:	24847494 	addiu	a0,a0,29844
  }
}
9d01017c:	8fbf0014 	lw	ra,20(sp)
9d010180:	03e00008 	jr	ra
9d010184:	27bd0018 	addiu	sp,sp,24
9d010188:	03e00008 	jr	ra
9d01018c:	00000000 	nop

9d010190 <i2c_master_recv>:

unsigned char i2c_master_recv(void) { // receive a byte from the slave
    I2C1CONbits.RCEN = 1;             // start receiving data
9d010190:	3c02bf80 	lui	v0,0xbf80
9d010194:	94435000 	lhu	v1,20480(v0)
9d010198:	24040001 	li	a0,1
9d01019c:	7c8318c4 	ins	v1,a0,0x3,0x1
9d0101a0:	a4435000 	sh	v1,20480(v0)
    while(!I2C1STATbits.RBF) { ; }    // wait to receive the data
9d0101a4:	3c03bf80 	lui	v1,0xbf80
9d0101a8:	8c625010 	lw	v0,20496(v1)
9d0101ac:	7c420040 	ext	v0,v0,0x1,0x1
9d0101b0:	1040fffd 	beqz	v0,9d0101a8 <i2c_master_recv+0x18>
9d0101b4:	3c02bf80 	lui	v0,0xbf80
    return I2C1RCV;                   // read and return the data
9d0101b8:	8c425060 	lw	v0,20576(v0)
}
9d0101bc:	03e00008 	jr	ra
9d0101c0:	304200ff 	andi	v0,v0,0xff

9d0101c4 <i2c_master_ack>:

void i2c_master_ack(int val) {        // sends ACK = 0 (slave should send another byte)
                                      // or NACK = 1 (no more bytes requested from slave)
    I2C1CONbits.ACKDT = val;          // store ACK/NACK in ACKDT
9d0101c4:	3c02bf80 	lui	v0,0xbf80
9d0101c8:	94435000 	lhu	v1,20480(v0)
9d0101cc:	7c832944 	ins	v1,a0,0x5,0x1
9d0101d0:	a4435000 	sh	v1,20480(v0)
    I2C1CONbits.ACKEN = 1;            // send ACKDT
9d0101d4:	94435000 	lhu	v1,20480(v0)
9d0101d8:	24040001 	li	a0,1
9d0101dc:	7c832104 	ins	v1,a0,0x4,0x1
9d0101e0:	a4435000 	sh	v1,20480(v0)
    while(I2C1CONbits.ACKEN) { ; }    // wait for ACK/NACK to be sent
9d0101e4:	00401825 	move	v1,v0
9d0101e8:	8c625000 	lw	v0,20480(v1)
9d0101ec:	7c420100 	ext	v0,v0,0x4,0x1
9d0101f0:	1440fffd 	bnez	v0,9d0101e8 <i2c_master_ack+0x24>
9d0101f4:	00000000 	nop
}
9d0101f8:	03e00008 	jr	ra
9d0101fc:	00000000 	nop

9d010200 <i2c_master_stop>:

void i2c_master_stop(void) {          // send a STOP:
  I2C1CONbits.PEN = 1;                // comm is complete and master relinquishes bus
9d010200:	3c02bf80 	lui	v0,0xbf80
9d010204:	94435000 	lhu	v1,20480(v0)
9d010208:	24040001 	li	a0,1
9d01020c:	7c831084 	ins	v1,a0,0x2,0x1
9d010210:	a4435000 	sh	v1,20480(v0)
  while(I2C1CONbits.PEN) { ; }        // wait for STOP to complete
9d010214:	00401825 	move	v1,v0
9d010218:	8c625000 	lw	v0,20480(v1)
9d01021c:	7c420080 	ext	v0,v0,0x2,0x1
9d010220:	1440fffd 	bnez	v0,9d010218 <i2c_master_stop+0x18>
9d010224:	00000000 	nop
}
9d010228:	03e00008 	jr	ra
9d01022c:	00000000 	nop

Disassembly of section .text.__push_int:

9d010230 <__push_int>:
9d010230:	24020088 	li	v0,136
9d010234:	50a2003c 	beql	a1,v0,9d010328 <__push_int+0xf8>
9d010238:	8ce20000 	lw	v0,0(a3)
9d01023c:	28a20089 	slti	v0,a1,137
9d010240:	10400019 	beqz	v0,9d0102a8 <__push_int+0x78>
9d010244:	24020081 	li	v0,129
9d010248:	50a20040 	beql	a1,v0,9d01034c <__push_int+0x11c>
9d01024c:	8ce20000 	lw	v0,0(a3)
9d010250:	28a20082 	slti	v0,a1,130
9d010254:	10400005 	beqz	v0,9d01026c <__push_int+0x3c>
9d010258:	24020080 	li	v0,128
9d01025c:	50a20048 	beql	a1,v0,9d010380 <__push_int+0x150>
9d010260:	8ce20000 	lw	v0,0(a3)
9d010264:	03e00008 	jr	ra
9d010268:	00001025 	move	v0,zero
9d01026c:	24020082 	li	v0,130
9d010270:	10a20015 	beq	a1,v0,9d0102c8 <__push_int+0x98>
9d010274:	24020084 	li	v0,132
9d010278:	14a2fffa 	bne	a1,v0,9d010264 <__push_int+0x34>
9d01027c:	00000000 	nop
9d010280:	8ce20000 	lw	v0,0(a3)
9d010284:	8c830000 	lw	v1,0(a0)
9d010288:	24440004 	addiu	a0,v0,4
9d01028c:	ace40000 	sw	a0,0(a3)
9d010290:	8c420000 	lw	v0,0(v0)
9d010294:	a4430000 	sh	v1,0(v0)
9d010298:	10c00001 	beqz	a2,9d0102a0 <__push_int+0x70>
9d01029c:	24020001 	li	v0,1
9d0102a0:	03e00008 	jr	ra
9d0102a4:	00000000 	nop
9d0102a8:	240200a0 	li	v0,160
9d0102ac:	50a20018 	beql	a1,v0,9d010310 <__push_int+0xe0>
9d0102b0:	8ce20000 	lw	v0,0(a3)
9d0102b4:	28a200a1 	slti	v0,a1,161
9d0102b8:	1040000e 	beqz	v0,9d0102f4 <__push_int+0xc4>
9d0102bc:	24020090 	li	v0,144
9d0102c0:	14a2ffe8 	bne	a1,v0,9d010264 <__push_int+0x34>
9d0102c4:	00000000 	nop
9d0102c8:	8ce20000 	lw	v0,0(a3)
9d0102cc:	10c00028 	beqz	a2,9d010370 <__push_int+0x140>
9d0102d0:	24430004 	addiu	v1,v0,4
9d0102d4:	ace30000 	sw	v1,0(a3)
9d0102d8:	8c850004 	lw	a1,4(a0)
9d0102dc:	8c840000 	lw	a0,0(a0)
9d0102e0:	8c420000 	lw	v0,0(v0)
9d0102e4:	ac440000 	sw	a0,0(v0)
9d0102e8:	ac450004 	sw	a1,4(v0)
9d0102ec:	03e00008 	jr	ra
9d0102f0:	24020001 	li	v0,1
9d0102f4:	240200c0 	li	v0,192
9d0102f8:	50a20005 	beql	a1,v0,9d010310 <__push_int+0xe0>
9d0102fc:	8ce20000 	lw	v0,0(a3)
9d010300:	240200f0 	li	v0,240
9d010304:	14a2ffd7 	bne	a1,v0,9d010264 <__push_int+0x34>
9d010308:	00000000 	nop
9d01030c:	8ce20000 	lw	v0,0(a3)
9d010310:	8c830000 	lw	v1,0(a0)
9d010314:	24440004 	addiu	a0,v0,4
9d010318:	ace40000 	sw	a0,0(a3)
9d01031c:	8c420000 	lw	v0,0(v0)
9d010320:	1000fff2 	b	9d0102ec <__push_int+0xbc>
9d010324:	ac430000 	sw	v1,0(v0)
9d010328:	8c830000 	lw	v1,0(a0)
9d01032c:	24440004 	addiu	a0,v0,4
9d010330:	ace40000 	sw	a0,0(a3)
9d010334:	8c420000 	lw	v0,0(v0)
9d010338:	a0430000 	sb	v1,0(v0)
9d01033c:	10c0ffd8 	beqz	a2,9d0102a0 <__push_int+0x70>
9d010340:	24020001 	li	v0,1
9d010344:	03e00008 	jr	ra
9d010348:	00000000 	nop
9d01034c:	8c830000 	lw	v1,0(a0)
9d010350:	24440004 	addiu	a0,v0,4
9d010354:	ace40000 	sw	a0,0(a3)
9d010358:	8c420000 	lw	v0,0(v0)
9d01035c:	ac430000 	sw	v1,0(v0)
9d010360:	10c0ffcf 	beqz	a2,9d0102a0 <__push_int+0x70>
9d010364:	24020001 	li	v0,1
9d010368:	03e00008 	jr	ra
9d01036c:	00000000 	nop
9d010370:	8c850004 	lw	a1,4(a0)
9d010374:	8c840000 	lw	a0,0(a0)
9d010378:	1000ffd9 	b	9d0102e0 <__push_int+0xb0>
9d01037c:	ace30000 	sw	v1,0(a3)
9d010380:	8c830000 	lw	v1,0(a0)
9d010384:	24440004 	addiu	a0,v0,4
9d010388:	ace40000 	sw	a0,0(a3)
9d01038c:	8c420000 	lw	v0,0(v0)
9d010390:	ac430000 	sw	v1,0(v0)
9d010394:	24020001 	li	v0,1
9d010398:	03e00008 	jr	ra
9d01039c:	00000000 	nop

Disassembly of section .text.libm:

9d0103a0 <__mchp_ldexp>:
9d0103a0:	00054840 00094d42 252cffff 2d8107fe     @H..BM....,%...-
9d0103b0:	1020000f 00000000                       .. .....

9d0103b8 <Clab1>:
9d0103b8:	01264821 	addu	t1,t1,a2
9d0103bc:	252cffff 	addiu	t4,t1,-1
9d0103c0:	2d8107fe 	sltiu	at,t4,2046
9d0103c4:	10200021 	beqz	at,9d01044c <Cspec2>
9d0103c8:	00000000 	nop
9d0103cc:	3c01800f 	lui	at,0x800f
9d0103d0:	3421ffff 	ori	at,at,0xffff
9d0103d4:	00a12824 	and	a1,a1,at
9d0103d8:	00096500 	sll	t4,t1,0x14
9d0103dc:	00ac2825 	or	a1,a1,t4

9d0103e0 <Cret>:
9d0103e0:	00041025 	or	v0,zero,a0
9d0103e4:	00051825 	or	v1,zero,a1

9d0103e8 <C999>:
9d0103e8:	03e00008 	jr	ra
9d0103ec:	00000000 	nop

9d0103f0 <Cspec>:
9d0103f0:	00056300 	sll	t4,a1,0xc
9d0103f4:	01846025 	or	t4,t4,a0
9d0103f8:	1180fff9 	beqz	t4,9d0103e0 <Cret>
9d0103fc:	00000000 	nop
9d010400:	11200004 	beqz	t1,9d010414 <i9>
9d010404:	00000000 	nop
9d010408:	3c05fff8 	lui	a1,0xfff8
9d01040c:	1000fff4 	b	9d0103e0 <Cret>
9d010410:	24040000 	li	a0,0

9d010414 <i9>:
9d010414:	25290001 	addiu	t1,t1,1
9d010418:	3c018000 	lui	at,0x8000
9d01041c:	00a15024 	and	t2,a1,at

9d010420 <b10>:
9d010420:	2529ffff 	addiu	t1,t1,-1
9d010424:	0080602a 	slt	t4,a0,zero
9d010428:	00842021 	addu	a0,a0,a0
9d01042c:	00a52821 	addu	a1,a1,a1
9d010430:	00ac2821 	addu	a1,a1,t4
9d010434:	3c010010 	lui	at,0x10
9d010438:	00a1082b 	sltu	at,a1,at
9d01043c:	1420fff8 	bnez	at,9d010420 <b10>
9d010440:	00000000 	nop
9d010444:	1000ffdc 	b	9d0103b8 <Clab1>
9d010448:	00aa2825 	or	a1,a1,t2

9d01044c <Cspec2>:
9d01044c:	000542c0 	sll	t0,a1,0xb
9d010450:	00046542 	srl	t4,a0,0x15
9d010454:	010c4025 	or	t0,t0,t4
9d010458:	00043ac0 	sll	a3,a0,0xb
9d01045c:	3c018000 	lui	at,0x8000
9d010460:	01014025 	or	t0,t0,at
9d010464:	3c018000 	lui	at,0x8000
9d010468:	19200005 	blez	t1,9d010480 <i11>
9d01046c:	00a12824 	and	a1,a1,at
9d010470:	3c017ff0 	lui	at,0x7ff0
9d010474:	00a12825 	or	a1,a1,at
9d010478:	1000ffd9 	b	9d0103e0 <Cret>
9d01047c:	24040000 	li	a0,0

9d010480 <i11>:
9d010480:	240a0001 	li	t2,1
9d010484:	01495023 	subu	t2,t2,t1

9d010488 <L13>:
9d010488:	2d410020 	sltiu	at,t2,32
9d01048c:	14200007 	bnez	at,9d0104ac <L14>
9d010490:	00000000 	nop
9d010494:	214affe0 	addi	t2,t2,-32
9d010498:	0007202b 	sltu	a0,zero,a3
9d01049c:	1008000d 	beq	zero,t0,9d0104d4 <L15>
9d0104a0:	01043825 	or	a3,t0,a0
9d0104a4:	1000fff8 	b	9d010488 <L13>
9d0104a8:	34080000 	li	t0,0x0

9d0104ac <L14>:
9d0104ac:	11400009 	beqz	t2,9d0104d4 <L15>
9d0104b0:	00000000 	nop
9d0104b4:	000a5822 	neg	t3,t2
9d0104b8:	01672004 	sllv	a0,a3,t3
9d0104bc:	01685804 	sllv	t3,t0,t3
9d0104c0:	01473806 	srlv	a3,a3,t2
9d0104c4:	01484006 	srlv	t0,t0,t2
9d0104c8:	10800002 	beqz	a0,9d0104d4 <L15>
9d0104cc:	01673825 	or	a3,t3,a3
9d0104d0:	34e70002 	ori	a3,a3,0x2

9d0104d4 <L15>:
9d0104d4:	24e70400 	addiu	a3,a3,1024
9d0104d8:	2cec0400 	sltiu	t4,a3,1024
9d0104dc:	010c4021 	addu	t0,t0,t4
9d0104e0:	000762c2 	srl	t4,a3,0xb
9d0104e4:	318c0001 	andi	t4,t4,0x1
9d0104e8:	00ec3823 	subu	a3,a3,t4
9d0104ec:	000722c2 	srl	a0,a3,0xb
9d0104f0:	00086540 	sll	t4,t0,0x15
9d0104f4:	008c2025 	or	a0,a0,t4
9d0104f8:	00086040 	sll	t4,t0,0x1
9d0104fc:	000c6302 	srl	t4,t4,0xc
9d010500:	1000ffb7 	b	9d0103e0 <Cret>
9d010504:	00ac2825 	or	a1,a1,t4
9d010508:	00000000 	nop

Disassembly of section .text:

9d01050c <writeINA219>:
  float ma = value / 3.0;
  return ma;
}

// write 2 bytes
void writeINA219(unsigned char reg, unsigned short value){
9d01050c:	27bdffe0 	addiu	sp,sp,-32
9d010510:	afbf001c 	sw	ra,28(sp)
9d010514:	afb10018 	sw	s1,24(sp)
9d010518:	afb00014 	sw	s0,20(sp)
9d01051c:	00808825 	move	s1,a0
  i2c_master_start();
9d010520:	0f404038 	jal	9d0100e0 <i2c_master_start>
9d010524:	00a08025 	move	s0,a1
  i2c_master_send(INA219_ADDR<<1); // write to the INA219
9d010528:	0f404050 	jal	9d010140 <i2c_master_send>
9d01052c:	24040080 	li	a0,128
  i2c_master_send(reg); // the reg to write to
9d010530:	0f404050 	jal	9d010140 <i2c_master_send>
9d010534:	02202025 	move	a0,s1
  i2c_master_send(value>>8);
9d010538:	0f404050 	jal	9d010140 <i2c_master_send>
9d01053c:	00102202 	srl	a0,s0,0x8
  i2c_master_send(value&0xff);
9d010540:	0f404050 	jal	9d010140 <i2c_master_send>
9d010544:	320400ff 	andi	a0,s0,0xff
  i2c_master_stop();
9d010548:	0f404080 	jal	9d010200 <i2c_master_stop>
9d01054c:	00000000 	nop
}
9d010550:	8fbf001c 	lw	ra,28(sp)
9d010554:	8fb10018 	lw	s1,24(sp)
9d010558:	8fb00014 	lw	s0,20(sp)
9d01055c:	03e00008 	jr	ra
9d010560:	27bd0020 	addiu	sp,sp,32

9d010564 <INA219_Startup>:
void INA219_Startup() {
9d010564:	27bdffe8 	addiu	sp,sp,-24
9d010568:	afbf0014 	sw	ra,20(sp)
  __builtin_disable_interrupts();
9d01056c:	41626000 	di	v0
9d010570:	000000c0 	ehb
  i2c_master_setup();
9d010574:	0f40402e 	jal	9d0100b8 <i2c_master_setup>
9d010578:	00000000 	nop
  writeINA219(INA219_REG_CALIBRATION, ina219_calValue);
9d01057c:	24050400 	li	a1,1024
9d010580:	0f404143 	jal	9d01050c <writeINA219>
9d010584:	24040005 	li	a0,5
  writeINA219(INA219_REG_CONFIG, ina219_config);
9d010588:	2405308f 	li	a1,12431
9d01058c:	0f404143 	jal	9d01050c <writeINA219>
9d010590:	00002025 	move	a0,zero
  __builtin_enable_interrupts();
9d010594:	41626020 	ei	v0
}
9d010598:	8fbf0014 	lw	ra,20(sp)
9d01059c:	03e00008 	jr	ra
9d0105a0:	27bd0018 	addiu	sp,sp,24

9d0105a4 <readINA219>:

// read 2 bytes
signed short readINA219(unsigned char reg){
9d0105a4:	27bdffe0 	addiu	sp,sp,-32
9d0105a8:	afbf001c 	sw	ra,28(sp)
9d0105ac:	afb10018 	sw	s1,24(sp)
9d0105b0:	afb00014 	sw	s0,20(sp)
  i2c_master_start();
9d0105b4:	0f404038 	jal	9d0100e0 <i2c_master_start>
9d0105b8:	00808025 	move	s0,a0
  i2c_master_send(INA219_ADDR<<1); // write to the INA219
9d0105bc:	0f404050 	jal	9d010140 <i2c_master_send>
9d0105c0:	24040080 	li	a0,128
  i2c_master_send(reg); // the reg to read from
9d0105c4:	0f404050 	jal	9d010140 <i2c_master_send>
9d0105c8:	02002025 	move	a0,s0
  i2c_master_restart();
9d0105cc:	0f404044 	jal	9d010110 <i2c_master_restart>
9d0105d0:	00000000 	nop
  i2c_master_send((INA219_ADDR<<1)|0b1); // read from the INA219
9d0105d4:	0f404050 	jal	9d010140 <i2c_master_send>
9d0105d8:	24040081 	li	a0,129
  unsigned char r1 = i2c_master_recv();
9d0105dc:	0f404064 	jal	9d010190 <i2c_master_recv>
9d0105e0:	00000000 	nop
9d0105e4:	00408025 	move	s0,v0
  i2c_master_ack(0); // read again
9d0105e8:	0f404071 	jal	9d0101c4 <i2c_master_ack>
9d0105ec:	00002025 	move	a0,zero
  unsigned char r2 = i2c_master_recv();
9d0105f0:	0f404064 	jal	9d010190 <i2c_master_recv>
9d0105f4:	00000000 	nop
9d0105f8:	00408825 	move	s1,v0
  i2c_master_ack(1); // no more reads
9d0105fc:	0f404071 	jal	9d0101c4 <i2c_master_ack>
9d010600:	24040001 	li	a0,1
  i2c_master_stop();
9d010604:	0f404080 	jal	9d010200 <i2c_master_stop>
9d010608:	00000000 	nop

  signed short value = (r1<<8)|r2;
9d01060c:	00101200 	sll	v0,s0,0x8
9d010610:	00511025 	or	v0,v0,s1
  return value;
}
9d010614:	7c021620 	seh	v0,v0
9d010618:	8fbf001c 	lw	ra,28(sp)
9d01061c:	8fb10018 	lw	s1,24(sp)
9d010620:	8fb00014 	lw	s0,20(sp)
9d010624:	03e00008 	jr	ra
9d010628:	27bd0020 	addiu	sp,sp,32

9d01062c <INA219_read_current>:
float INA219_read_current(){
9d01062c:	27bdffe8 	addiu	sp,sp,-24
9d010630:	afbf0014 	sw	ra,20(sp)
  signed short value = readINA219(INA219_REG_CURRENT);
9d010634:	0f404169 	jal	9d0105a4 <readINA219>
9d010638:	24040004 	li	a0,4
  float ma = value / 3.0;
9d01063c:	0f404acb 	jal	9d012b2c <__floatsidf>
9d010640:	00402025 	move	a0,v0
9d010644:	3c049d00 	lui	a0,0x9d00
9d010648:	8c8674c0 	lw	a2,29888(a0)
9d01064c:	8c8774c4 	lw	a3,29892(a0)
9d010650:	00402025 	move	a0,v0
9d010654:	0f40321b 	jal	9d00c86c <__divdf3>
9d010658:	00602825 	move	a1,v1
9d01065c:	00402025 	move	a0,v0
9d010660:	0f40451f 	jal	9d01147c <__truncdfsf2>
9d010664:	00602825 	move	a1,v1
}
9d010668:	8fbf0014 	lw	ra,20(sp)
9d01066c:	03e00008 	jr	ra
9d010670:	27bd0018 	addiu	sp,sp,24

Disassembly of section .text._sbrk_init:

9d010674 <_sbrk_init>:
9d010674:	27bdffd8 	addiu	sp,sp,-40
9d010678:	afb40020 	sw	s4,32(sp)
9d01067c:	3c14a000 	lui	s4,0xa000
9d010680:	8e823070 	lw	v0,12400(s4)
9d010684:	afbf0024 	sw	ra,36(sp)
9d010688:	afb3001c 	sw	s3,28(sp)
9d01068c:	afb20018 	sw	s2,24(sp)
9d010690:	afb10014 	sw	s1,20(sp)
9d010694:	1440003a 	bnez	v0,9d010780 <_sbrk_init+0x10c>
9d010698:	afb00010 	sw	s0,16(sp)
9d01069c:	3c12a000 	lui	s2,0xa000
9d0106a0:	8e513078 	lw	s1,12408(s2)
9d0106a4:	16200003 	bnez	s1,9d0106b4 <_sbrk_init+0x40>
9d0106a8:	3c13a000 	lui	s3,0xa000
9d0106ac:	3c11a000 	lui	s1,0xa000
9d0106b0:	26313090 	addiu	s1,s1,12432
9d0106b4:	8e703074 	lw	s0,12404(s3)
9d0106b8:	16000005 	bnez	s0,9d0106d0 <_sbrk_init+0x5c>
9d0106bc:	3c020000 	lui	v0,0x0
9d0106c0:	3c10a000 	lui	s0,0xa000
9d0106c4:	26103090 	addiu	s0,s0,12432
9d0106c8:	24420000 	addiu	v0,v0,0
9d0106cc:	02028021 	addu	s0,s0,v0
9d0106d0:	00111f82 	srl	v1,s1,0x1e
9d0106d4:	24020002 	li	v0,2
9d0106d8:	50620001 	beql	v1,v0,9d0106e0 <_sbrk_init+0x6c>
9d0106dc:	7e31e000 	ext	s1,s1,0x0,0x1d
9d0106e0:	00101f82 	srl	v1,s0,0x1e
9d0106e4:	24020002 	li	v0,2
9d0106e8:	50620001 	beql	v1,v0,9d0106f0 <_sbrk_init+0x7c>
9d0106ec:	7e10e000 	ext	s0,s0,0x0,0x1d
9d0106f0:	0f404e53 	jal	9d01394c <_stub_sbd_memlayout>
9d0106f4:	00000000 	nop
9d0106f8:	8c430000 	lw	v1,0(v0)
9d0106fc:	8c420004 	lw	v0,4(v0)
9d010700:	0223202b 	sltu	a0,s1,v1
9d010704:	14800004 	bnez	a0,9d010718 <_sbrk_init+0xa4>
9d010708:	00621021 	addu	v0,v1,v0
9d01070c:	0222202b 	sltu	a0,s1,v0
9d010710:	54800029 	bnezl	a0,9d0107b8 <_sbrk_init+0x144>
9d010714:	0211182b 	sltu	v1,s0,s1
9d010718:	3c04a000 	lui	a0,0xa000
9d01071c:	248400b4 	addiu	a0,a0,180
9d010720:	7c84e000 	ext	a0,a0,0x0,0x1d
9d010724:	0064202b 	sltu	a0,v1,a0
9d010728:	14800015 	bnez	a0,9d010780 <_sbrk_init+0x10c>
9d01072c:	0203202b 	sltu	a0,s0,v1
9d010730:	14800004 	bnez	a0,9d010744 <_sbrk_init+0xd0>
9d010734:	0062202b 	sltu	a0,v1,v0
9d010738:	0202202b 	sltu	a0,s0,v0
9d01073c:	14800018 	bnez	a0,9d0107a0 <_sbrk_init+0x12c>
9d010740:	0062202b 	sltu	a0,v1,v0
9d010744:	1080000f 	beqz	a0,9d010784 <_sbrk_init+0x110>
9d010748:	8fbf0024 	lw	ra,36(sp)
9d01074c:	3c04a000 	lui	a0,0xa000
9d010750:	248400b4 	addiu	a0,a0,180
9d010754:	00042742 	srl	a0,a0,0x1d
9d010758:	24050005 	li	a1,5
9d01075c:	14850012 	bne	a0,a1,9d0107a8 <_sbrk_init+0x134>
9d010760:	24050004 	li	a1,4
9d010764:	3c04a000 	lui	a0,0xa000
9d010768:	00641825 	or	v1,v1,a0
9d01076c:	00441025 	or	v0,v0,a0
9d010770:	ae433078 	sw	v1,12408(s2)
9d010774:	ae623074 	sw	v0,12404(s3)
9d010778:	8e423078 	lw	v0,12408(s2)
9d01077c:	ae823070 	sw	v0,12400(s4)
9d010780:	8fbf0024 	lw	ra,36(sp)
9d010784:	8fb40020 	lw	s4,32(sp)
9d010788:	8fb3001c 	lw	s3,28(sp)
9d01078c:	8fb20018 	lw	s2,24(sp)
9d010790:	8fb10014 	lw	s1,20(sp)
9d010794:	8fb00010 	lw	s0,16(sp)
9d010798:	03e00008 	jr	ra
9d01079c:	27bd0028 	addiu	sp,sp,40
9d0107a0:	1000ffea 	b	9d01074c <_sbrk_init+0xd8>
9d0107a4:	02001025 	move	v0,s0
9d0107a8:	1085ffef 	beq	a0,a1,9d010768 <_sbrk_init+0xf4>
9d0107ac:	3c048000 	lui	a0,0x8000
9d0107b0:	1000fff1 	b	9d010778 <_sbrk_init+0x104>
9d0107b4:	ae423078 	sw	v0,12408(s2)
9d0107b8:	1460ffe4 	bnez	v1,9d01074c <_sbrk_init+0xd8>
9d0107bc:	02201825 	move	v1,s1
9d0107c0:	1000ffde 	b	9d01073c <_sbrk_init+0xc8>
9d0107c4:	0202202b 	sltu	a0,s0,v0

Disassembly of section .text.__fmt_d:

9d0107c8 <__fmt_d>:
9d0107c8:	27bdffc0 	addiu	sp,sp,-64
9d0107cc:	afb1002c 	sw	s1,44(sp)
9d0107d0:	00808825 	move	s1,a0
9d0107d4:	00c02025 	move	a0,a2
9d0107d8:	8c870004 	lw	a3,4(a0)
9d0107dc:	8ca20000 	lw	v0,0(a1)
9d0107e0:	afb40038 	sw	s4,56(sp)
9d0107e4:	0007a7c2 	srl	s4,a3,0x1f
9d0107e8:	afb30034 	sw	s3,52(sp)
9d0107ec:	afb20030 	sw	s2,48(sp)
9d0107f0:	afb00028 	sw	s0,40(sp)
9d0107f4:	afbf003c 	sw	ra,60(sp)
9d0107f8:	00a08025 	move	s0,a1
9d0107fc:	8ca30004 	lw	v1,4(a1)
9d010800:	8cb20008 	lw	s2,8(a1)
9d010804:	afa20020 	sw	v0,32(sp)
9d010808:	8cb3000c 	lw	s3,12(a1)
9d01080c:	1280003e 	beqz	s4,9d010908 <__fmt_d+0x140>
9d010810:	8cc60000 	lw	a2,0(a2)
9d010814:	00063023 	negu	a2,a2
9d010818:	0006202b 	sltu	a0,zero,a2
9d01081c:	00073823 	negu	a3,a3
9d010820:	04600008 	bltz	v1,9d010844 <__fmt_d+0x7c>
9d010824:	00e43823 	subu	a3,a3,a0
9d010828:	7c020844 	ins	v0,zero,0x1,0x1
9d01082c:	16800005 	bnez	s4,9d010844 <__fmt_d+0x7c>
9d010830:	afa20020 	sw	v0,32(sp)
9d010834:	8fa20020 	lw	v0,32(sp)
9d010838:	30430004 	andi	v1,v0,0x4
9d01083c:	1060002a 	beqz	v1,9d0108e8 <__fmt_d+0x120>
9d010840:	7c4200c0 	ext	v0,v0,0x3,0x1
9d010844:	2642ffff 	addiu	v0,s2,-1
9d010848:	27a30020 	addiu	v1,sp,32
9d01084c:	afa30018 	sw	v1,24(sp)
9d010850:	2403000a 	li	v1,10
9d010854:	afa30014 	sw	v1,20(sp)
9d010858:	afa20010 	sw	v0,16(sp)
9d01085c:	0f404246 	jal	9d010918 <__cvt_u>
9d010860:	02002025 	move	a0,s0
9d010864:	16800006 	bnez	s4,9d010880 <__fmt_d+0xb8>
9d010868:	2403002d 	li	v1,45
9d01086c:	8fa30020 	lw	v1,32(sp)
9d010870:	30640004 	andi	a0,v1,0x4
9d010874:	1080001e 	beqz	a0,9d0108f0 <__fmt_d+0x128>
9d010878:	30630008 	andi	v1,v1,0x8
9d01087c:	2403002b 	li	v1,43
9d010880:	2442ffff 	addiu	v0,v0,-1
9d010884:	02622021 	addu	a0,s3,v0
9d010888:	a0830000 	sb	v1,0(a0)
9d01088c:	8e060010 	lw	a2,16(s0)
9d010890:	8fa30020 	lw	v1,32(sp)
9d010894:	02403825 	move	a3,s2
9d010898:	24c6ffff 	addiu	a2,a2,-1
9d01089c:	afa30010 	sw	v1,16(sp)
9d0108a0:	00c23023 	subu	a2,a2,v0
9d0108a4:	02622821 	addu	a1,s3,v0
9d0108a8:	0f4044df 	jal	9d01137c <__pad>
9d0108ac:	02202025 	move	a0,s1
9d0108b0:	8e230004 	lw	v1,4(s1)
9d0108b4:	30630100 	andi	v1,v1,0x100
9d0108b8:	10600004 	beqz	v1,9d0108cc <__fmt_d+0x104>
9d0108bc:	8fbf003c 	lw	ra,60(sp)
9d0108c0:	8e030004 	lw	v1,4(s0)
9d0108c4:	0043202a 	slt	a0,v0,v1
9d0108c8:	0064100b 	movn	v0,v1,a0
9d0108cc:	8fb40038 	lw	s4,56(sp)
9d0108d0:	8fb30034 	lw	s3,52(sp)
9d0108d4:	8fb20030 	lw	s2,48(sp)
9d0108d8:	8fb1002c 	lw	s1,44(sp)
9d0108dc:	8fb00028 	lw	s0,40(sp)
9d0108e0:	03e00008 	jr	ra
9d0108e4:	27bd0040 	addiu	sp,sp,64
9d0108e8:	1000ffd7 	b	9d010848 <__fmt_d+0x80>
9d0108ec:	02421023 	subu	v0,s2,v0
9d0108f0:	1060ffe6 	beqz	v1,9d01088c <__fmt_d+0xc4>
9d0108f4:	24040020 	li	a0,32
9d0108f8:	2442ffff 	addiu	v0,v0,-1
9d0108fc:	02621821 	addu	v1,s3,v0
9d010900:	1000ffe2 	b	9d01088c <__fmt_d+0xc4>
9d010904:	a0640000 	sb	a0,0(v1)
9d010908:	0463ffc8 	bgezl	v1,9d01082c <__fmt_d+0x64>
9d01090c:	7c020844 	ins	v0,zero,0x1,0x1
9d010910:	1000ffc9 	b	9d010838 <__fmt_d+0x70>
9d010914:	8fa20020 	lw	v0,32(sp)

Disassembly of section .text.__cvt_u:

9d010918 <__cvt_u>:
9d010918:	8c820004 	lw	v0,4(a0)
9d01091c:	27bdffc0 	addiu	sp,sp,-64
9d010920:	afbe0038 	sw	s8,56(sp)
9d010924:	afb40028 	sw	s4,40(sp)
9d010928:	afb20020 	sw	s2,32(sp)
9d01092c:	afb1001c 	sw	s1,28(sp)
9d010930:	afbf003c 	sw	ra,60(sp)
9d010934:	afb70034 	sw	s7,52(sp)
9d010938:	afb60030 	sw	s6,48(sp)
9d01093c:	afb5002c 	sw	s5,44(sp)
9d010940:	afb30024 	sw	s3,36(sp)
9d010944:	afb00018 	sw	s0,24(sp)
9d010948:	00c08825 	move	s1,a2
9d01094c:	00e09025 	move	s2,a3
9d010950:	8fb40054 	lw	s4,84(sp)
9d010954:	04410002 	bgez	v0,9d010960 <__cvt_u+0x48>
9d010958:	8fbe0058 	lw	s8,88(sp)
9d01095c:	24020001 	li	v0,1
9d010960:	8c900010 	lw	s0,16(a0)
9d010964:	8c95000c 	lw	s5,12(a0)
9d010968:	8fd70000 	lw	s7,0(s8)
9d01096c:	8fb30050 	lw	s3,80(sp)
9d010970:	2610ffff 	addiu	s0,s0,-1
9d010974:	02b01821 	addu	v1,s5,s0
9d010978:	a0600000 	sb	zero,0(v1)
9d01097c:	24090001 	li	t1,1
9d010980:	00534023 	subu	t0,v0,s3
9d010984:	32f70002 	andi	s7,s7,0x2
9d010988:	0014b7c3 	sra	s6,s4,0x1f
9d01098c:	1e000010 	bgtz	s0,9d0109d0 <__cvt_u+0xb8>
9d010990:	02321025 	or	v0,s1,s2
9d010994:	5120002c 	beqzl	t1,9d010a48 <__cvt_u+0x130>
9d010998:	8fc20000 	lw	v0,0(s8)
9d01099c:	8fbf003c 	lw	ra,60(sp)
9d0109a0:	02001025 	move	v0,s0
9d0109a4:	8fbe0038 	lw	s8,56(sp)
9d0109a8:	8fb70034 	lw	s7,52(sp)
9d0109ac:	8fb60030 	lw	s6,48(sp)
9d0109b0:	8fb5002c 	lw	s5,44(sp)
9d0109b4:	8fb40028 	lw	s4,40(sp)
9d0109b8:	8fb30024 	lw	s3,36(sp)
9d0109bc:	8fb20020 	lw	s2,32(sp)
9d0109c0:	8fb1001c 	lw	s1,28(sp)
9d0109c4:	8fb00018 	lw	s0,24(sp)
9d0109c8:	03e00008 	jr	ra
9d0109cc:	27bd0040 	addiu	sp,sp,64
9d0109d0:	14400007 	bnez	v0,9d0109f0 <__cvt_u+0xd8>
9d0109d4:	01131021 	addu	v0,t0,s3
9d0109d8:	1c400006 	bgtz	v0,9d0109f4 <__cvt_u+0xdc>
9d0109dc:	02202025 	move	a0,s1
9d0109e0:	1a60ffec 	blez	s3,9d010994 <__cvt_u+0x7c>
9d0109e4:	00000000 	nop
9d0109e8:	12e0ffea 	beqz	s7,9d010994 <__cvt_u+0x7c>
9d0109ec:	00000000 	nop
9d0109f0:	02202025 	move	a0,s1
9d0109f4:	02402825 	move	a1,s2
9d0109f8:	02803025 	move	a2,s4
9d0109fc:	02c03825 	move	a3,s6
9d010a00:	afa80014 	sw	t0,20(sp)
9d010a04:	0f403977 	jal	9d00e5dc <__umoddi3>
9d010a08:	2610ffff 	addiu	s0,s0,-1
9d010a0c:	afa20010 	sw	v0,16(sp)
9d010a10:	02b01821 	addu	v1,s5,s0
9d010a14:	24420030 	addiu	v0,v0,48
9d010a18:	02202025 	move	a0,s1
9d010a1c:	02402825 	move	a1,s2
9d010a20:	a0620000 	sb	v0,0(v1)
9d010a24:	02803025 	move	a2,s4
9d010a28:	0f403888 	jal	9d00e220 <__udivdi3>
9d010a2c:	02c03825 	move	a3,s6
9d010a30:	2673ffff 	addiu	s3,s3,-1
9d010a34:	00408825 	move	s1,v0
9d010a38:	00609025 	move	s2,v1
9d010a3c:	8fa80014 	lw	t0,20(sp)
9d010a40:	1000ffd2 	b	9d01098c <__cvt_u+0x74>
9d010a44:	8fa90010 	lw	t1,16(sp)
9d010a48:	7c022104 	ins	v0,zero,0x4,0x1
9d010a4c:	1000ffd3 	b	9d01099c <__cvt_u+0x84>
9d010a50:	afc20000 	sw	v0,0(s8)

Disassembly of section .text.__read_int:

9d010a54 <__read_int>:
9d010a54:	27bdffd0 	addiu	sp,sp,-48
9d010a58:	afb50028 	sw	s5,40(sp)
9d010a5c:	8cb50008 	lw	s5,8(a1)
9d010a60:	afb40024 	sw	s4,36(sp)
9d010a64:	afb30020 	sw	s3,32(sp)
9d010a68:	afb2001c 	sw	s2,28(sp)
9d010a6c:	afb10018 	sw	s1,24(sp)
9d010a70:	afbf002c 	sw	ra,44(sp)
9d010a74:	afb00014 	sw	s0,20(sp)
9d010a78:	00808825 	move	s1,a0
9d010a7c:	00c09025 	move	s2,a2
9d010a80:	8cb40010 	lw	s4,16(a1)
9d010a84:	0f404855 	jal	9d012154 <__skipws>
9d010a88:	8cb3000c 	lw	s3,12(a1)
9d010a8c:	52a00001 	beqzl	s5,9d010a94 <__read_int+0x40>
9d010a90:	2695ffff 	addiu	s5,s4,-1
9d010a94:	8e430000 	lw	v1,0(s2)
9d010a98:	00008025 	move	s0,zero
9d010a9c:	00621821 	addu	v1,v1,v0
9d010aa0:	ae430000 	sw	v1,0(s2)
9d010aa4:	0215102a 	slt	v0,s0,s5
9d010aa8:	1040001d 	beqz	v0,9d010b20 <__read_int+0xcc>
9d010aac:	2682ffff 	addiu	v0,s4,-1
9d010ab0:	0202102a 	slt	v0,s0,v0
9d010ab4:	5040001b 	beqzl	v0,9d010b24 <__read_int+0xd0>
9d010ab8:	02708021 	addu	s0,s3,s0
9d010abc:	8e22003c 	lw	v0,60(s1)
9d010ac0:	8e23004c 	lw	v1,76(s1)
9d010ac4:	0043182b 	sltu	v1,v0,v1
9d010ac8:	1060000e 	beqz	v1,9d010b04 <__read_int+0xb0>
9d010acc:	24430001 	addiu	v1,v0,1
9d010ad0:	ae23003c 	sw	v1,60(s1)
9d010ad4:	90420000 	lbu	v0,0(v0)
9d010ad8:	2443ffd5 	addiu	v1,v0,-43
9d010adc:	7c030844 	ins	v1,zero,0x1,0x1
9d010ae0:	00701825 	or	v1,v1,s0
9d010ae4:	1460001a 	bnez	v1,9d010b50 <__read_int+0xfc>
9d010ae8:	2443ffd0 	addiu	v1,v0,-48
9d010aec:	a2620000 	sb	v0,0(s3)
9d010af0:	8e420000 	lw	v0,0(s2)
9d010af4:	24100001 	li	s0,1
9d010af8:	24420001 	addiu	v0,v0,1
9d010afc:	1000ffe9 	b	9d010aa4 <__read_int+0x50>
9d010b00:	ae420000 	sw	v0,0(s2)
9d010b04:	0f4046ff 	jal	9d011bfc <__shgetc>
9d010b08:	02202025 	move	a0,s1
9d010b0c:	2403ffff 	li	v1,-1
9d010b10:	5443fff2 	bnel	v0,v1,9d010adc <__read_int+0x88>
9d010b14:	2443ffd5 	addiu	v1,v0,-43
9d010b18:	12000005 	beqz	s0,9d010b30 <__read_int+0xdc>
9d010b1c:	8fbf002c 	lw	ra,44(sp)
9d010b20:	02708021 	addu	s0,s3,s0
9d010b24:	a2000000 	sb	zero,0(s0)
9d010b28:	00001025 	move	v0,zero
9d010b2c:	8fbf002c 	lw	ra,44(sp)
9d010b30:	8fb50028 	lw	s5,40(sp)
9d010b34:	8fb40024 	lw	s4,36(sp)
9d010b38:	8fb30020 	lw	s3,32(sp)
9d010b3c:	8fb2001c 	lw	s2,28(sp)
9d010b40:	8fb10018 	lw	s1,24(sp)
9d010b44:	8fb00014 	lw	s0,20(sp)
9d010b48:	03e00008 	jr	ra
9d010b4c:	27bd0030 	addiu	sp,sp,48
9d010b50:	2c63000a 	sltiu	v1,v1,10
9d010b54:	54600008 	bnezl	v1,9d010b78 <__read_int+0x124>
9d010b58:	02701821 	addu	v1,s3,s0
9d010b5c:	8e22004c 	lw	v0,76(s1)
9d010b60:	5040fff0 	beqzl	v0,9d010b24 <__read_int+0xd0>
9d010b64:	02708021 	addu	s0,s3,s0
9d010b68:	8e22003c 	lw	v0,60(s1)
9d010b6c:	2442ffff 	addiu	v0,v0,-1
9d010b70:	1000ffeb 	b	9d010b20 <__read_int+0xcc>
9d010b74:	ae22003c 	sw	v0,60(s1)
9d010b78:	a0620000 	sb	v0,0(v1)
9d010b7c:	8e420000 	lw	v0,0(s2)
9d010b80:	26100001 	addiu	s0,s0,1
9d010b84:	24420001 	addiu	v0,v0,1
9d010b88:	1000ffc6 	b	9d010aa4 <__read_int+0x50>
9d010b8c:	ae420000 	sw	v0,0(s2)

Disassembly of section .text.read:

9d010b90 <read>:
9d010b90:	50a0004a 	beqzl	a1,9d010cbc <read+0x12c>
9d010b94:	00002025 	move	a0,zero
9d010b98:	50c00048 	beqzl	a2,9d010cbc <read+0x12c>
9d010b9c:	00002025 	move	a0,zero
9d010ba0:	27bdffe0 	addiu	sp,sp,-32
9d010ba4:	afb10014 	sw	s1,20(sp)
9d010ba8:	afbf001c 	sw	ra,28(sp)
9d010bac:	afb20018 	sw	s2,24(sp)
9d010bb0:	afb00010 	sw	s0,16(sp)
9d010bb4:	1480000b 	bnez	a0,9d010be4 <read+0x54>
9d010bb8:	00c08825 	move	s1,a2
9d010bbc:	3c020000 	lui	v0,0x0
9d010bc0:	24420000 	addiu	v0,v0,0
9d010bc4:	1040000f 	beqz	v0,9d010c04 <read+0x74>
9d010bc8:	00a08025 	move	s0,a1
9d010bcc:	00a69021 	addu	s2,a1,a2
9d010bd0:	0c000000 	jal	90000000 <_bmxdudba_address+0x8fff0000>
9d010bd4:	24040001 	li	a0,1
9d010bd8:	26100001 	addiu	s0,s0,1
9d010bdc:	1650fffc 	bne	s2,s0,9d010bd0 <read+0x40>
9d010be0:	a202ffff 	sb	v0,-1(s0)
9d010be4:	02202025 	move	a0,s1
9d010be8:	8fbf001c 	lw	ra,28(sp)
9d010bec:	00801025 	move	v0,a0
9d010bf0:	8fb20018 	lw	s2,24(sp)
9d010bf4:	8fb10014 	lw	s1,20(sp)
9d010bf8:	8fb00010 	lw	s0,16(sp)
9d010bfc:	03e00008 	jr	ra
9d010c00:	27bd0020 	addiu	sp,sp,32
9d010c04:	3c03bf80 	lui	v1,0xbf80
9d010c08:	24626010 	addiu	v0,v1,24592
9d010c0c:	1040fff6 	beqz	v0,9d010be8 <read+0x58>
9d010c10:	3c03a000 	lui	v1,0xa000
9d010c14:	8c640018 	lw	a0,24(v1)
9d010c18:	24030002 	li	v1,2
9d010c1c:	1083001d 	beq	a0,v1,9d010c94 <read+0x104>
9d010c20:	3c03bf80 	lui	v1,0xbf80
9d010c24:	3c03bf80 	lui	v1,0xbf80
9d010c28:	8c646000 	lw	a0,24576(v1)
9d010c2c:	3c03bf80 	lui	v1,0xbf80
9d010c30:	24636030 	addiu	v1,v1,24624
9d010c34:	30848000 	andi	a0,a0,0x8000
9d010c38:	14800003 	bnez	a0,9d010c48 <read+0xb8>
9d010c3c:	3c04bf80 	lui	a0,0xbf80
9d010c40:	34058000 	li	a1,0x8000
9d010c44:	ac856008 	sw	a1,24584(a0)
9d010c48:	02202025 	move	a0,s1
9d010c4c:	240500a1 	li	a1,161
9d010c50:	8c460000 	lw	a2,0(v0)
9d010c54:	30c60001 	andi	a2,a2,0x1
9d010c58:	14c00003 	bnez	a2,9d010c68 <read+0xd8>
9d010c5c:	24a5ffff 	addiu	a1,a1,-1
9d010c60:	14a0fffb 	bnez	a1,9d010c50 <read+0xc0>
9d010c64:	00000000 	nop
9d010c68:	8c450000 	lw	a1,0(v0)
9d010c6c:	30a50001 	andi	a1,a1,0x1
9d010c70:	54a0ffdc 	bnezl	a1,9d010be4 <read+0x54>
9d010c74:	02248823 	subu	s1,s1,a0
9d010c78:	8c650000 	lw	a1,0(v1)
9d010c7c:	26100001 	addiu	s0,s0,1
9d010c80:	2484ffff 	addiu	a0,a0,-1
9d010c84:	1480fff1 	bnez	a0,9d010c4c <read+0xbc>
9d010c88:	a205ffff 	sb	a1,-1(s0)
9d010c8c:	1000ffd5 	b	9d010be4 <read+0x54>
9d010c90:	02248823 	subu	s1,s1,a0
9d010c94:	24636240 	addiu	v1,v1,25152
9d010c98:	5060ffe3 	beqzl	v1,9d010c28 <read+0x98>
9d010c9c:	3c03bf80 	lui	v1,0xbf80
9d010ca0:	3c02bf80 	lui	v0,0xbf80
9d010ca4:	8c446200 	lw	a0,25088(v0)
9d010ca8:	3c03bf80 	lui	v1,0xbf80
9d010cac:	3c02bf80 	lui	v0,0xbf80
9d010cb0:	24636230 	addiu	v1,v1,25136
9d010cb4:	1000ffdf 	b	9d010c34 <read+0xa4>
9d010cb8:	24426210 	addiu	v0,v0,25104
9d010cbc:	03e00008 	jr	ra
9d010cc0:	00801025 	move	v0,a0

Disassembly of section .text.dpcmp:

9d010cc4 <__eqdf2>:
9d010cc4:	2409fffe 00055040 00075840 01645825     ...$@P..@X..%Xd.
9d010cd4:	01665825 014b5025 15400003 00000000     %Xf.%PK...@.....
9d010ce4:	1000003c 24020000                       <......$

9d010cec <i56>:
9d010cec:	10800002 	beqz	a0,9d010cf8 <i57>
9d010cf0:	00054040 	sll	t0,a1,0x1
9d010cf4:	25080001 	addiu	t0,t0,1

9d010cf8 <i57>:
9d010cf8:	3c01ffe0 	lui	at,0xffe0
9d010cfc:	34210001 	ori	at,at,0x1
9d010d00:	0101082b 	sltu	at,t0,at
9d010d04:	10200037 	beqz	at,9d010de4 <Lnan>
9d010d08:	00000000 	nop
9d010d0c:	10c00002 	beqz	a2,9d010d18 <i58>
9d010d10:	00074040 	sll	t0,a3,0x1
9d010d14:	25080001 	addiu	t0,t0,1

9d010d18 <i58>:
9d010d18:	3c01ffe0 	lui	at,0xffe0
9d010d1c:	34210001 	ori	at,at,0x1
9d010d20:	0101082b 	sltu	at,t0,at
9d010d24:	1020002f 	beqz	at,9d010de4 <Lnan>
9d010d28:	00000000 	nop
9d010d2c:	04a10016 	bgez	a1,9d010d88 <i59>
9d010d30:	00000000 	nop
9d010d34:	04e00003 	bltz	a3,9d010d44 <i60>
9d010d38:	00000000 	nop
9d010d3c:	10000026 	b	9d010dd8 <L999>
9d010d40:	2402ffff 	li	v0,-1

9d010d44 <i60>:
9d010d44:	0086502b 	sltu	t2,a0,a2
9d010d48:	00862023 	subu	a0,a0,a2
9d010d4c:	00aa582b 	sltu	t3,a1,t2
9d010d50:	00aa2823 	subu	a1,a1,t2
9d010d54:	00a7502b 	sltu	t2,a1,a3
9d010d58:	014b5025 	or	t2,t2,t3
9d010d5c:	11400003 	beqz	t2,9d010d6c <i61>
9d010d60:	00a72823 	subu	a1,a1,a3
9d010d64:	1000001c 	b	9d010dd8 <L999>
9d010d68:	24020001 	li	v0,1

9d010d6c <i61>:
9d010d6c:	00a45025 	or	t2,a1,a0
9d010d70:	11400003 	beqz	t2,9d010d80 <i62>
9d010d74:	00000000 	nop
9d010d78:	10000017 	b	9d010dd8 <L999>
9d010d7c:	2402ffff 	li	v0,-1

9d010d80 <i62>:
9d010d80:	10000015 	b	9d010dd8 <L999>
9d010d84:	24020000 	li	v0,0

9d010d88 <i59>:
9d010d88:	04e10003 	bgez	a3,9d010d98 <i63>
9d010d8c:	00000000 	nop
9d010d90:	10000011 	b	9d010dd8 <L999>
9d010d94:	24020001 	li	v0,1

9d010d98 <i63>:
9d010d98:	0086502b 	sltu	t2,a0,a2
9d010d9c:	00862023 	subu	a0,a0,a2
9d010da0:	00aa582b 	sltu	t3,a1,t2
9d010da4:	00aa2823 	subu	a1,a1,t2
9d010da8:	00a7502b 	sltu	t2,a1,a3
9d010dac:	014b5025 	or	t2,t2,t3
9d010db0:	11400003 	beqz	t2,9d010dc0 <i64>
9d010db4:	00a72823 	subu	a1,a1,a3
9d010db8:	10000007 	b	9d010dd8 <L999>
9d010dbc:	2402ffff 	li	v0,-1

9d010dc0 <i64>:
9d010dc0:	00a45025 	or	t2,a1,a0
9d010dc4:	11400003 	beqz	t2,9d010dd4 <i65>
9d010dc8:	00000000 	nop
9d010dcc:	10000002 	b	9d010dd8 <L999>
9d010dd0:	24020001 	li	v0,1

9d010dd4 <i65>:
9d010dd4:	24020000 	li	v0,0

9d010dd8 <L999>:
9d010dd8:	03e00008 	jr	ra
9d010ddc:	00000000 	nop
9d010de0:	00000000 	nop

9d010de4 <Lnan>:
9d010de4:	1000fffc 	b	9d010dd8 <L999>
9d010de8:	00091025 	or	v0,zero,t1
9d010dec:	00000000 	nop

Disassembly of section .text.dfcmplt:

9d010df0 <dpcmplt>:
9d010df0:	2409fffe 	li	t1,-2
9d010df4:	00055040 	sll	t2,a1,0x1
9d010df8:	00075840 	sll	t3,a3,0x1
9d010dfc:	01645825 	or	t3,t3,a0
9d010e00:	01665825 	or	t3,t3,a2
9d010e04:	014b5025 	or	t2,t2,t3
9d010e08:	15400003 	bnez	t2,9d010e18 <dpcmplt+0x28>
9d010e0c:	00000000 	nop
9d010e10:	1000003c 	b	9d010f04 <dpcmplt+0x114>
9d010e14:	24020000 	li	v0,0
9d010e18:	10800002 	beqz	a0,9d010e24 <dpcmplt+0x34>
9d010e1c:	00054040 	sll	t0,a1,0x1
9d010e20:	25080001 	addiu	t0,t0,1
9d010e24:	3c01ffe0 	lui	at,0xffe0
9d010e28:	34210001 	ori	at,at,0x1
9d010e2c:	0101082b 	sltu	at,t0,at
9d010e30:	10200037 	beqz	at,9d010f10 <dpcmplt+0x120>
9d010e34:	00000000 	nop
9d010e38:	10c00002 	beqz	a2,9d010e44 <dpcmplt+0x54>
9d010e3c:	00074040 	sll	t0,a3,0x1
9d010e40:	25080001 	addiu	t0,t0,1
9d010e44:	3c01ffe0 	lui	at,0xffe0
9d010e48:	34210001 	ori	at,at,0x1
9d010e4c:	0101082b 	sltu	at,t0,at
9d010e50:	1020002f 	beqz	at,9d010f10 <dpcmplt+0x120>
9d010e54:	00000000 	nop
9d010e58:	04a10016 	bgez	a1,9d010eb4 <dpcmplt+0xc4>
9d010e5c:	00000000 	nop
9d010e60:	04e00003 	bltz	a3,9d010e70 <dpcmplt+0x80>
9d010e64:	00000000 	nop
9d010e68:	10000026 	b	9d010f04 <dpcmplt+0x114>
9d010e6c:	2402ffff 	li	v0,-1
9d010e70:	0086502b 	sltu	t2,a0,a2
9d010e74:	00862023 	subu	a0,a0,a2
9d010e78:	00aa582b 	sltu	t3,a1,t2
9d010e7c:	00aa2823 	subu	a1,a1,t2
9d010e80:	00a7502b 	sltu	t2,a1,a3
9d010e84:	014b5025 	or	t2,t2,t3
9d010e88:	11400003 	beqz	t2,9d010e98 <dpcmplt+0xa8>
9d010e8c:	00a72823 	subu	a1,a1,a3
9d010e90:	1000001c 	b	9d010f04 <dpcmplt+0x114>
9d010e94:	24020001 	li	v0,1
9d010e98:	00a45025 	or	t2,a1,a0
9d010e9c:	11400003 	beqz	t2,9d010eac <dpcmplt+0xbc>
9d010ea0:	00000000 	nop
9d010ea4:	10000017 	b	9d010f04 <dpcmplt+0x114>
9d010ea8:	2402ffff 	li	v0,-1
9d010eac:	10000015 	b	9d010f04 <dpcmplt+0x114>
9d010eb0:	24020000 	li	v0,0
9d010eb4:	04e10003 	bgez	a3,9d010ec4 <dpcmplt+0xd4>
9d010eb8:	00000000 	nop
9d010ebc:	10000011 	b	9d010f04 <dpcmplt+0x114>
9d010ec0:	24020001 	li	v0,1
9d010ec4:	0086502b 	sltu	t2,a0,a2
9d010ec8:	00862023 	subu	a0,a0,a2
9d010ecc:	00aa582b 	sltu	t3,a1,t2
9d010ed0:	00aa2823 	subu	a1,a1,t2
9d010ed4:	00a7502b 	sltu	t2,a1,a3
9d010ed8:	014b5025 	or	t2,t2,t3
9d010edc:	11400003 	beqz	t2,9d010eec <dpcmplt+0xfc>
9d010ee0:	00a72823 	subu	a1,a1,a3
9d010ee4:	10000007 	b	9d010f04 <dpcmplt+0x114>
9d010ee8:	2402ffff 	li	v0,-1
9d010eec:	00a45025 	or	t2,a1,a0
9d010ef0:	11400003 	beqz	t2,9d010f00 <dpcmplt+0x110>
9d010ef4:	00000000 	nop
9d010ef8:	10000002 	b	9d010f04 <dpcmplt+0x114>
9d010efc:	24020001 	li	v0,1
9d010f00:	24020000 	li	v0,0
9d010f04:	03e00008 	jr	ra
9d010f08:	00000000 	nop
9d010f0c:	00000000 	nop
9d010f10:	1000fffc 	b	9d010f04 <dpcmplt+0x114>
9d010f14:	34020001 	li	v0,0x1
9d010f18:	00000000 	nop

Disassembly of section .text._mon_putc:

9d010f1c <_mon_putc>:
9d010f1c:	3c02a000 	lui	v0,0xa000
9d010f20:	8c430018 	lw	v1,24(v0)
9d010f24:	14600013 	bnez	v1,9d010f74 <_mon_putc+0x58>
9d010f28:	00803025 	move	a2,a0
9d010f2c:	3c020000 	lui	v0,0x0
9d010f30:	27bdffe8 	addiu	sp,sp,-24
9d010f34:	24420000 	addiu	v0,v0,0
9d010f38:	10400006 	beqz	v0,9d010f54 <_mon_putc+0x38>
9d010f3c:	afbf0014 	sw	ra,20(sp)
9d010f40:	0c000000 	jal	90000000 <_bmxdudba_address+0x8fff0000>
9d010f44:	00000000 	nop
9d010f48:	8fbf0014 	lw	ra,20(sp)
9d010f4c:	03e00008 	jr	ra
9d010f50:	27bd0018 	addiu	sp,sp,24
9d010f54:	3c020000 	lui	v0,0x0
9d010f58:	24420000 	addiu	v0,v0,0
9d010f5c:	10400025 	beqz	v0,9d010ff4 <_mon_putc+0xd8>
9d010f60:	3c05bf80 	lui	a1,0xbf80
9d010f64:	0c000000 	jal	90000000 <_bmxdudba_address+0x8fff0000>
9d010f68:	00000000 	nop
9d010f6c:	1000fff7 	b	9d010f4c <_mon_putc+0x30>
9d010f70:	8fbf0014 	lw	ra,20(sp)
9d010f74:	3c02bf80 	lui	v0,0xbf80
9d010f78:	24426010 	addiu	v0,v0,24592
9d010f7c:	1040002f 	beqz	v0,9d01103c <_mon_putc+0x120>
9d010f80:	00000000 	nop
9d010f84:	24040001 	li	a0,1
9d010f88:	14640012 	bne	v1,a0,9d010fd4 <_mon_putc+0xb8>
9d010f8c:	3c03bf80 	lui	v1,0xbf80
9d010f90:	3c03bf80 	lui	v1,0xbf80
9d010f94:	3c04bf80 	lui	a0,0xbf80
9d010f98:	3c05bf80 	lui	a1,0xbf80
9d010f9c:	24636020 	addiu	v1,v1,24608
9d010fa0:	24846018 	addiu	a0,a0,24600
9d010fa4:	24a56008 	addiu	a1,a1,24584
9d010fa8:	34078000 	li	a3,0x8000
9d010fac:	aca70000 	sw	a3,0(a1)
9d010fb0:	24050400 	li	a1,1024
9d010fb4:	ac850000 	sw	a1,0(a0)
9d010fb8:	8c440000 	lw	a0,0(v0)
9d010fbc:	30840100 	andi	a0,a0,0x100
9d010fc0:	1080fffd 	beqz	a0,9d010fb8 <_mon_putc+0x9c>
9d010fc4:	00000000 	nop
9d010fc8:	ac660000 	sw	a2,0(v1)
9d010fcc:	03e00008 	jr	ra
9d010fd0:	00000000 	nop
9d010fd4:	3c04bf80 	lui	a0,0xbf80
9d010fd8:	3c05bf80 	lui	a1,0xbf80
9d010fdc:	3c02bf80 	lui	v0,0xbf80
9d010fe0:	24636220 	addiu	v1,v1,25120
9d010fe4:	24846218 	addiu	a0,a0,25112
9d010fe8:	24a56208 	addiu	a1,a1,25096
9d010fec:	1000ffee 	b	9d010fa8 <_mon_putc+0x8c>
9d010ff0:	24426210 	addiu	v0,v0,25104
9d010ff4:	24a56208 	addiu	a1,a1,25096
9d010ff8:	3c04bf80 	lui	a0,0xbf80
9d010ffc:	34078000 	li	a3,0x8000
9d011000:	aca70000 	sw	a3,0(a1)
9d011004:	3c03bf80 	lui	v1,0xbf80
9d011008:	24846218 	addiu	a0,a0,25112
9d01100c:	3c02bf80 	lui	v0,0xbf80
9d011010:	24050400 	li	a1,1024
9d011014:	24636220 	addiu	v1,v1,25120
9d011018:	24426210 	addiu	v0,v0,25104
9d01101c:	ac850000 	sw	a1,0(a0)
9d011020:	8c440000 	lw	a0,0(v0)
9d011024:	30840100 	andi	a0,a0,0x100
9d011028:	1080fffd 	beqz	a0,9d011020 <_mon_putc+0x104>
9d01102c:	00000000 	nop
9d011030:	ac660000 	sw	a2,0(v1)
9d011034:	1000ffc5 	b	9d010f4c <_mon_putc+0x30>
9d011038:	8fbf0014 	lw	ra,20(sp)
9d01103c:	03e00008 	jr	ra
9d011040:	00000000 	nop

Disassembly of section .text.logbl:

9d011044 <logbl>:
9d011044:	27bdffe0 	addiu	sp,sp,-32
9d011048:	afa50024 	sw	a1,36(sp)
9d01104c:	afb20018 	sw	s2,24(sp)
9d011050:	87b20026 	lh	s2,38(sp)
9d011054:	24037ff0 	li	v1,32752
9d011058:	afbf001c 	sw	ra,28(sp)
9d01105c:	32427ff0 	andi	v0,s2,0x7ff0
9d011060:	afb10014 	sw	s1,20(sp)
9d011064:	afb00010 	sw	s0,16(sp)
9d011068:	10430021 	beq	v0,v1,9d0110f0 <logbl+0xac>
9d01106c:	afa40020 	sw	a0,32(sp)
9d011070:	14400012 	bnez	v0,9d0110bc <logbl+0x78>
9d011074:	00003025 	move	a2,zero
9d011078:	0f404331 	jal	9d010cc4 <__eqdf2>
9d01107c:	00003825 	move	a3,zero
9d011080:	1440002e 	bnez	v0,9d01113c <logbl+0xf8>
9d011084:	3c029d00 	lui	v0,0x9d00
9d011088:	3c02a000 	lui	v0,0xa000
9d01108c:	24030021 	li	v1,33
9d011090:	00008025 	move	s0,zero
9d011094:	3c11ffc0 	lui	s1,0xffc0
9d011098:	ac433080 	sw	v1,12416(v0)
9d01109c:	8fbf001c 	lw	ra,28(sp)
9d0110a0:	02001025 	move	v0,s0
9d0110a4:	02201825 	move	v1,s1
9d0110a8:	8fb20018 	lw	s2,24(sp)
9d0110ac:	8fb10014 	lw	s1,20(sp)
9d0110b0:	8fb00010 	lw	s0,16(sp)
9d0110b4:	03e00008 	jr	ra
9d0110b8:	27bd0020 	addiu	sp,sp,32
9d0110bc:	00022103 	sra	a0,v0,0x4
9d0110c0:	0f404acb 	jal	9d012b2c <__floatsidf>
9d0110c4:	2484fc01 	addiu	a0,a0,-1023
9d0110c8:	8fbf001c 	lw	ra,28(sp)
9d0110cc:	00408025 	move	s0,v0
9d0110d0:	00608825 	move	s1,v1
9d0110d4:	02001025 	move	v0,s0
9d0110d8:	02201825 	move	v1,s1
9d0110dc:	8fb20018 	lw	s2,24(sp)
9d0110e0:	8fb10014 	lw	s1,20(sp)
9d0110e4:	8fb00010 	lw	s0,16(sp)
9d0110e8:	03e00008 	jr	ra
9d0110ec:	27bd0020 	addiu	sp,sp,32
9d0110f0:	00803025 	move	a2,a0
9d0110f4:	00a03825 	move	a3,a1
9d0110f8:	00808025 	move	s0,a0
9d0110fc:	0f404331 	jal	9d010cc4 <__eqdf2>
9d011100:	00a08825 	move	s1,a1
9d011104:	1440ffe6 	bnez	v0,9d0110a0 <logbl+0x5c>
9d011108:	8fbf001c 	lw	ra,28(sp)
9d01110c:	32527fff 	andi	s2,s2,0x7fff
9d011110:	a7b20026 	sh	s2,38(sp)
9d011114:	8fb00020 	lw	s0,32(sp)
9d011118:	8fb10024 	lw	s1,36(sp)
9d01111c:	8fbf001c 	lw	ra,28(sp)
9d011120:	02001025 	move	v0,s0
9d011124:	02201825 	move	v1,s1
9d011128:	8fb20018 	lw	s2,24(sp)
9d01112c:	8fb10014 	lw	s1,20(sp)
9d011130:	8fb00010 	lw	s0,16(sp)
9d011134:	03e00008 	jr	ra
9d011138:	27bd0020 	addiu	sp,sp,32
9d01113c:	8c51763c 	lw	s1,30268(v0)
9d011140:	8c507638 	lw	s0,30264(v0)
9d011144:	8fbf001c 	lw	ra,28(sp)
9d011148:	02201825 	move	v1,s1
9d01114c:	02001025 	move	v0,s0
9d011150:	8fb20018 	lw	s2,24(sp)
9d011154:	8fb10014 	lw	s1,20(sp)
9d011158:	8fb00010 	lw	s0,16(sp)
9d01115c:	03e00008 	jr	ra
9d011160:	27bd0020 	addiu	sp,sp,32

Disassembly of section .rodata:

9d011164 <table-0xc>:
9d011164:	04020100 	bltzl	zero,9d011568 <i49+0x14>
9d011168:	05060307 	0x5060307
9d01116c:	00000000 	nop

9d011170 <table>:
9d011170:	ffffffff ffffffff ffffffff ffffffff     ................
9d011180:	ffffffff ffffffff ffffffff ffffffff     ................
9d011190:	ffffffff ffffffff ffffffff ffffffff     ................
9d0111a0:	020100ff 06050403 ff090807 ffffffff     ................
9d0111b0:	0b0affff 0f0e0d0c 13121110 17161514     ................
9d0111c0:	1b1a1918 1f1e1d1c 23222120 ffffffff     ........ !"#....
9d0111d0:	0b0affff 0f0e0d0c 13121110 17161514     ................
9d0111e0:	1b1a1918 1f1e1d1c 23222120 ffffffff     ........ !"#....
9d0111f0:	ffffffff ffffffff ffffffff ffffffff     ................
9d011200:	ffffffff ffffffff ffffffff ffffffff     ................
9d011210:	ffffffff ffffffff ffffffff ffffffff     ................
9d011220:	ffffffff ffffffff ffffffff ffffffff     ................
9d011230:	ffffffff ffffffff ffffffff ffffffff     ................
9d011240:	ffffffff ffffffff ffffffff ffffffff     ................
9d011250:	ffffffff ffffffff ffffffff ffffffff     ................
9d011260:	ffffffff ffffffff ffffffff ffffffff     ................
9d011270:	000000ff                                ....

Disassembly of section .text:

9d011274 <dpfloor>:
9d011274:	3c018000 00a13024 00053840 00073d42     ...<$0..@8..B=..
9d011284:	240107ff 10e1002b 00000000 24090433     ...$+.......3..$
9d011294:	01273823 2ce10035 1420000b 00000000     #8'.5..,.. .....
9d0112a4:	04e00020 00000000 10c0002d 00000000      .......-.......
9d0112b4:	00054840 01244825 15200026 00000000     @H..%H$.&. .....
9d0112c4:	10000027 00000000                       '.......

9d0112cc <i1>:
9d0112cc:	10c00005 	beqz	a2,9d0112e4 <i3>
9d0112d0:	00000000 	nop
9d0112d4:	0004482b 	sltu	t1,zero,a0
9d0112d8:	00042023 	negu	a0,a0
9d0112dc:	00052823 	negu	a1,a1
9d0112e0:	00a92823 	subu	a1,a1,t1

9d0112e4 <i3>:
9d0112e4:	30e9001f 	andi	t1,a3,0x1f
9d0112e8:	24080001 	li	t0,1
9d0112ec:	01284004 	sllv	t0,t0,t1
9d0112f0:	00084023 	negu	t0,t0
9d0112f4:	2ce10020 	sltiu	at,a3,32
9d0112f8:	14200004 	bnez	at,9d01130c <i4>
9d0112fc:	00000000 	nop
9d011300:	24040000 	li	a0,0
9d011304:	10000002 	b	9d011310 <e4>
9d011308:	00a82824 	and	a1,a1,t0

9d01130c <i4>:
9d01130c:	00882024 	and	a0,a0,t0

9d011310 <e4>:
9d011310:	10c00005 	beqz	a2,9d011328 <Aret>
9d011314:	00000000 	nop
9d011318:	0004482b 	sltu	t1,zero,a0
9d01131c:	00042023 	negu	a0,a0
9d011320:	00052823 	negu	a1,a1
9d011324:	00a92823 	subu	a1,a1,t1

9d011328 <Aret>:
9d011328:	00041025 	or	v0,zero,a0
9d01132c:	00051825 	or	v1,zero,a1

9d011330 <A999>:
9d011330:	03e00008 	jr	ra
9d011334:	00000000 	nop

9d011338 <Aspec>:
9d011338:	3c01000f 	lui	at,0xf
9d01133c:	3421ffff 	ori	at,at,0xffff
9d011340:	00a14824 	and	t1,a1,at
9d011344:	01244825 	or	t1,t1,a0
9d011348:	15200009 	bnez	t1,9d011370 <Anan>
9d01134c:	00000000 	nop
9d011350:	1000fff5 	b	9d011328 <Aret>
9d011354:	00000000 	nop

9d011358 <Amin1>:
9d011358:	3c05bff0 	lui	a1,0xbff0
9d01135c:	1000fff2 	b	9d011328 <Aret>
9d011360:	24040000 	li	a0,0

9d011364 <Azer>:
9d011364:	00062825 	or	a1,zero,a2
9d011368:	1000ffef 	b	9d011328 <Aret>
9d01136c:	24040000 	li	a0,0

9d011370 <Anan>:
9d011370:	3c05fff8 	lui	a1,0xfff8
9d011374:	1000ffec 	b	9d011328 <Aret>
9d011378:	24040000 	li	a0,0

Disassembly of section .text.__pad:

9d01137c <__pad>:
9d01137c:	27bdffc0 	addiu	sp,sp,-64
9d011380:	afb3002c 	sw	s3,44(sp)
9d011384:	8fb30050 	lw	s3,80(sp)
9d011388:	afb60038 	sw	s6,56(sp)
9d01138c:	afb40030 	sw	s4,48(sp)
9d011390:	32730001 	andi	s3,s3,0x1
9d011394:	afb20028 	sw	s2,40(sp)
9d011398:	afb10024 	sw	s1,36(sp)
9d01139c:	afb00020 	sw	s0,32(sp)
9d0113a0:	afbf003c 	sw	ra,60(sp)
9d0113a4:	afb50034 	sw	s5,52(sp)
9d0113a8:	00809025 	move	s2,a0
9d0113ac:	00a0b025 	move	s6,a1
9d0113b0:	00c08025 	move	s0,a2
9d0113b4:	00e08825 	move	s1,a3
9d0113b8:	16600003 	bnez	s3,9d0113c8 <__pad+0x4c>
9d0113bc:	00c7a02b 	sltu	s4,a2,a3
9d0113c0:	56800013 	bnezl	s4,9d011410 <__pad+0x94>
9d0113c4:	0230a023 	subu	s4,s1,s0
9d0113c8:	02003025 	move	a2,s0
9d0113cc:	02c02825 	move	a1,s6
9d0113d0:	0f40493c 	jal	9d0124f0 <__out>
9d0113d4:	02402025 	move	a0,s2
9d0113d8:	1680000d 	bnez	s4,9d011410 <__pad+0x94>
9d0113dc:	0230a023 	subu	s4,s1,s0
9d0113e0:	02008825 	move	s1,s0
9d0113e4:	8fbf003c 	lw	ra,60(sp)
9d0113e8:	02201025 	move	v0,s1
9d0113ec:	8fb60038 	lw	s6,56(sp)
9d0113f0:	8fb50034 	lw	s5,52(sp)
9d0113f4:	8fb40030 	lw	s4,48(sp)
9d0113f8:	8fb3002c 	lw	s3,44(sp)
9d0113fc:	8fb20028 	lw	s2,40(sp)
9d011400:	8fb10024 	lw	s1,36(sp)
9d011404:	8fb00020 	lw	s0,32(sp)
9d011408:	03e00008 	jr	ra
9d01140c:	27bd0040 	addiu	sp,sp,64
9d011410:	2e860011 	sltiu	a2,s4,17
9d011414:	24020010 	li	v0,16
9d011418:	0286100b 	movn	v0,s4,a2
9d01141c:	00403025 	move	a2,v0
9d011420:	24050020 	li	a1,32
9d011424:	27a40010 	addiu	a0,sp,16
9d011428:	0f404e86 	jal	9d013a18 <memset>
9d01142c:	0280a825 	move	s5,s4
9d011430:	2ea20010 	sltiu	v0,s5,16
9d011434:	1040000b 	beqz	v0,9d011464 <__pad+0xe8>
9d011438:	3286000f 	andi	a2,s4,0xf
9d01143c:	27a50010 	addiu	a1,sp,16
9d011440:	0f40493c 	jal	9d0124f0 <__out>
9d011444:	02402025 	move	a0,s2
9d011448:	1660ffe6 	bnez	s3,9d0113e4 <__pad+0x68>
9d01144c:	02003025 	move	a2,s0
9d011450:	02c02825 	move	a1,s6
9d011454:	0f40493c 	jal	9d0124f0 <__out>
9d011458:	02402025 	move	a0,s2
9d01145c:	1000ffe2 	b	9d0113e8 <__pad+0x6c>
9d011460:	8fbf003c 	lw	ra,60(sp)
9d011464:	24060010 	li	a2,16
9d011468:	27a50010 	addiu	a1,sp,16
9d01146c:	0f40493c 	jal	9d0124f0 <__out>
9d011470:	02402025 	move	a0,s2
9d011474:	1000ffee 	b	9d011430 <__pad+0xb4>
9d011478:	26b5fff0 	addiu	s5,s5,-16

Disassembly of section .text.dptofp:

9d01147c <__truncdfsf2>:
9d01147c:	00053ac0 00045d42 00eb3825 000432c0     .:..B]..%8...2..
9d01148c:	3c018000 00e13825 3c018000 00a14824     ...<%8.....<$H..
9d01149c:	00054040 00084542 2508fc80 250bffff     @@..BE.....%...%
9d0114ac:	2d6100fe 10200012 00000000              ..a-.. .....

9d0114b8 <Hlab1>:
9d0114b8:	10c00002 	beqz	a2,9d0114c4 <i45>
9d0114bc:	00000000 	nop
9d0114c0:	34e70001 	ori	a3,a3,0x1

9d0114c4 <i45>:
9d0114c4:	24e70080 	addiu	a3,a3,128
9d0114c8:	2ceb0080 	sltiu	t3,a3,128
9d0114cc:	010b4021 	addu	t0,t0,t3
9d0114d0:	00075a02 	srl	t3,a3,0x8
9d0114d4:	316b0001 	andi	t3,t3,0x1
9d0114d8:	00eb3823 	subu	a3,a3,t3
9d0114dc:	00073840 	sll	a3,a3,0x1
9d0114e0:	00073a42 	srl	a3,a3,0x9
9d0114e4:	00085dc0 	sll	t3,t0,0x17
9d0114e8:	00eb3825 	or	a3,a3,t3
9d0114ec:	00e91025 	or	v0,a3,t1

9d0114f0 <H999>:
9d0114f0:	03e00008 	jr	ra
9d0114f4:	00000000 	nop
9d0114f8:	00000000 	nop

9d0114fc <Hspec>:
9d0114fc:	2401047f 	li	at,1151
9d011500:	15010007 	bne	t0,at,9d011520 <i46>
9d011504:	00000000 	nop
9d011508:	00075840 	sll	t3,a3,0x1
9d01150c:	01665825 	or	t3,t3,a2
9d011510:	11600003 	beqz	t3,9d011520 <i46>
9d011514:	00000000 	nop
9d011518:	1000fff5 	b	9d0114f0 <H999>
9d01151c:	3c02ffc0 	lui	v0,0xffc0

9d011520 <i46>:
9d011520:	290100ff 	slti	at,t0,255
9d011524:	14200004 	bnez	at,9d011538 <i48>
9d011528:	00000000 	nop
9d01152c:	3c017f80 	lui	at,0x7f80
9d011530:	1000ffef 	b	9d0114f0 <H999>
9d011534:	01211025 	or	v0,t1,at

9d011538 <i48>:
9d011538:	240a0001 	li	t2,1
9d01153c:	01485023 	subu	t2,t2,t0
9d011540:	2d410020 	sltiu	at,t2,32
9d011544:	14200003 	bnez	at,9d011554 <i49>
9d011548:	00000000 	nop
9d01154c:	1000ffe8 	b	9d0114f0 <H999>
9d011550:	00091025 	or	v0,zero,t1

9d011554 <i49>:
9d011554:	240c0020 	li	t4,32
9d011558:	018a6023 	subu	t4,t4,t2
9d01155c:	01875804 	sllv	t3,a3,t4
9d011560:	00cb3025 	or	a2,a2,t3
9d011564:	01473806 	srlv	a3,a3,t2
9d011568:	24080000 	li	t0,0
9d01156c:	3c018000 	lui	at,0x8000
9d011570:	1000ffd1 	b	9d0114b8 <Hlab1>
9d011574:	00e13825 	or	a3,a3,at
9d011578:	00000000 	nop

Disassembly of section .text.scalbn:

9d01157c <scalbn>:
9d01157c:	27bdffe0 	addiu	sp,sp,-32
9d011580:	afb10014 	sw	s1,20(sp)
9d011584:	00c08825 	move	s1,a2
9d011588:	28c60400 	slti	a2,a2,1024
9d01158c:	afbf001c 	sw	ra,28(sp)
9d011590:	afb20018 	sw	s2,24(sp)
9d011594:	14c0001f 	bnez	a2,9d011614 <scalbn+0x98>
9d011598:	afb00010 	sw	s0,16(sp)
9d01159c:	3c129d00 	lui	s2,0x9d00
9d0115a0:	8e467678 	lw	a2,30328(s2)
9d0115a4:	8e47767c 	lw	a3,30332(s2)
9d0115a8:	0f403a65 	jal	9d00e994 <__muldf3>
9d0115ac:	2630fc01 	addiu	s0,s1,-1023
9d0115b0:	2a040400 	slti	a0,s0,1024
9d0115b4:	14800009 	bnez	a0,9d0115dc <scalbn+0x60>
9d0115b8:	8e467678 	lw	a2,30328(s2)
9d0115bc:	8e47767c 	lw	a3,30332(s2)
9d0115c0:	00402025 	move	a0,v0
9d0115c4:	00602825 	move	a1,v1
9d0115c8:	0f403a65 	jal	9d00e994 <__muldf3>
9d0115cc:	2630f802 	addiu	s0,s1,-2046
9d0115d0:	2a050400 	slti	a1,s0,1024
9d0115d4:	240403ff 	li	a0,1023
9d0115d8:	0085800a 	movz	s0,a0,a1
9d0115dc:	261003ff 	addiu	s0,s0,1023
9d0115e0:	00102500 	sll	a0,s0,0x14
9d0115e4:	00002825 	move	a1,zero
9d0115e8:	00a03025 	move	a2,a1
9d0115ec:	00803825 	move	a3,a0
9d0115f0:	00602825 	move	a1,v1
9d0115f4:	0f403a65 	jal	9d00e994 <__muldf3>
9d0115f8:	00402025 	move	a0,v0
9d0115fc:	8fbf001c 	lw	ra,28(sp)
9d011600:	8fb20018 	lw	s2,24(sp)
9d011604:	8fb10014 	lw	s1,20(sp)
9d011608:	8fb00010 	lw	s0,16(sp)
9d01160c:	03e00008 	jr	ra
9d011610:	27bd0020 	addiu	sp,sp,32
9d011614:	2a26fc02 	slti	a2,s1,-1022
9d011618:	00801025 	move	v0,a0
9d01161c:	00a01825 	move	v1,a1
9d011620:	10c0ffee 	beqz	a2,9d0115dc <scalbn+0x60>
9d011624:	02208025 	move	s0,s1
9d011628:	3c129d00 	lui	s2,0x9d00
9d01162c:	8e467680 	lw	a2,30336(s2)
9d011630:	8e477684 	lw	a3,30340(s2)
9d011634:	0f403a65 	jal	9d00e994 <__muldf3>
9d011638:	263003c9 	addiu	s0,s1,969
9d01163c:	2a04fc02 	slti	a0,s0,-1022
9d011640:	1080ffe6 	beqz	a0,9d0115dc <scalbn+0x60>
9d011644:	8e467680 	lw	a2,30336(s2)
9d011648:	8e477684 	lw	a3,30340(s2)
9d01164c:	00402025 	move	a0,v0
9d011650:	00602825 	move	a1,v1
9d011654:	0f403a65 	jal	9d00e994 <__muldf3>
9d011658:	26300792 	addiu	s0,s1,1938
9d01165c:	2a05fc02 	slti	a1,s0,-1022
9d011660:	2404fc02 	li	a0,-1022
9d011664:	1000ffdd 	b	9d0115dc <scalbn+0x60>
9d011668:	0085800b 	movn	s0,a0,a1

Disassembly of section .text.__pop_ptr:

9d01166c <__pop_ptr>:
9d01166c:	24020084 	li	v0,132
9d011670:	50a20022 	beql	a1,v0,9d0116fc <__pop_ptr+0x90>
9d011674:	8ce20000 	lw	v0,0(a3)
9d011678:	28a20085 	slti	v0,a1,133
9d01167c:	10400010 	beqz	v0,9d0116c0 <__pop_ptr+0x54>
9d011680:	24020081 	li	v0,129
9d011684:	50a20008 	beql	a1,v0,9d0116a8 <__pop_ptr+0x3c>
9d011688:	8ce20000 	lw	v0,0(a3)
9d01168c:	24020082 	li	v0,130
9d011690:	50a20027 	beql	a1,v0,9d011730 <__pop_ptr+0xc4>
9d011694:	8ce20000 	lw	v0,0(a3)
9d011698:	24020080 	li	v0,128
9d01169c:	14a20010 	bne	a1,v0,9d0116e0 <__pop_ptr+0x74>
9d0116a0:	00000000 	nop
9d0116a4:	8ce20000 	lw	v0,0(a3)
9d0116a8:	24430004 	addiu	v1,v0,4
9d0116ac:	ace30000 	sw	v1,0(a3)
9d0116b0:	8c420000 	lw	v0,0(v0)
9d0116b4:	ac820000 	sw	v0,0(a0)
9d0116b8:	10000015 	b	9d011710 <__pop_ptr+0xa4>
9d0116bc:	ac460000 	sw	a2,0(v0)
9d0116c0:	24020090 	li	v0,144
9d0116c4:	50a2001a 	beql	a1,v0,9d011730 <__pop_ptr+0xc4>
9d0116c8:	8ce20000 	lw	v0,0(a3)
9d0116cc:	28a20091 	slti	v0,a1,145
9d0116d0:	10400005 	beqz	v0,9d0116e8 <__pop_ptr+0x7c>
9d0116d4:	24020088 	li	v0,136
9d0116d8:	50a2000f 	beql	a1,v0,9d011718 <__pop_ptr+0xac>
9d0116dc:	8ce20000 	lw	v0,0(a3)
9d0116e0:	03e00008 	jr	ra
9d0116e4:	00001025 	move	v0,zero
9d0116e8:	240200a0 	li	v0,160
9d0116ec:	50a2ffee 	beql	a1,v0,9d0116a8 <__pop_ptr+0x3c>
9d0116f0:	8ce20000 	lw	v0,0(a3)
9d0116f4:	1000ffe9 	b	9d01169c <__pop_ptr+0x30>
9d0116f8:	240200c0 	li	v0,192
9d0116fc:	24430004 	addiu	v1,v0,4
9d011700:	ace30000 	sw	v1,0(a3)
9d011704:	8c420000 	lw	v0,0(v0)
9d011708:	ac820000 	sw	v0,0(a0)
9d01170c:	a4460000 	sh	a2,0(v0)
9d011710:	03e00008 	jr	ra
9d011714:	24020001 	li	v0,1
9d011718:	24430004 	addiu	v1,v0,4
9d01171c:	ace30000 	sw	v1,0(a3)
9d011720:	8c420000 	lw	v0,0(v0)
9d011724:	ac820000 	sw	v0,0(a0)
9d011728:	1000fff9 	b	9d011710 <__pop_ptr+0xa4>
9d01172c:	a0460000 	sb	a2,0(v0)
9d011730:	24430004 	addiu	v1,v0,4
9d011734:	ace30000 	sw	v1,0(a3)
9d011738:	8c420000 	lw	v0,0(v0)
9d01173c:	ac820000 	sw	v0,0(a0)
9d011740:	ac460000 	sw	a2,0(v0)
9d011744:	000637c3 	sra	a2,a2,0x1f
9d011748:	1000fff1 	b	9d011710 <__pop_ptr+0xa4>
9d01174c:	ac460004 	sw	a2,4(v0)

Disassembly of section .text.general_exception:

9d011750 <_general_exception_context>:
9d011750:	27bdffa8 	addiu	sp,sp,-88
9d011754:	afa10004 	sw	at,4(sp)
9d011758:	afa20008 	sw	v0,8(sp)
9d01175c:	afa3000c 	sw	v1,12(sp)
9d011760:	afa40010 	sw	a0,16(sp)
9d011764:	afa50014 	sw	a1,20(sp)
9d011768:	afa60018 	sw	a2,24(sp)
9d01176c:	afa7001c 	sw	a3,28(sp)
9d011770:	afa80020 	sw	t0,32(sp)
9d011774:	afa90024 	sw	t1,36(sp)
9d011778:	afaa0028 	sw	t2,40(sp)
9d01177c:	afab002c 	sw	t3,44(sp)
9d011780:	afac0030 	sw	t4,48(sp)
9d011784:	afad0034 	sw	t5,52(sp)
9d011788:	afae0038 	sw	t6,56(sp)
9d01178c:	afaf003c 	sw	t7,60(sp)
9d011790:	afb80040 	sw	t8,64(sp)
9d011794:	afb90044 	sw	t9,68(sp)
9d011798:	afbf0048 	sw	ra,72(sp)
9d01179c:	00004012 	mflo	t0
9d0117a0:	afa8004c 	sw	t0,76(sp)
9d0117a4:	00004010 	mfhi	t0
9d0117a8:	afa80050 	sw	t0,80(sp)
9d0117ac:	3c1a9d01 	lui	k0,0x9d01
9d0117b0:	275a3214 	addiu	k0,k0,12820
9d0117b4:	00000000 	nop
9d0117b8:	40046800 	mfc0	a0,c0_cause
9d0117bc:	40056000 	mfc0	a1,c0_status
9d0117c0:	0340f809 	jalr	k0
9d0117c4:	00000000 	nop
9d0117c8:	8fa80050 	lw	t0,80(sp)
9d0117cc:	01000011 	mthi	t0
9d0117d0:	8fa8004c 	lw	t0,76(sp)
9d0117d4:	01000013 	mtlo	t0
9d0117d8:	8fa10004 	lw	at,4(sp)
9d0117dc:	8fa20008 	lw	v0,8(sp)
9d0117e0:	8fa3000c 	lw	v1,12(sp)
9d0117e4:	8fa40010 	lw	a0,16(sp)
9d0117e8:	8fa50014 	lw	a1,20(sp)
9d0117ec:	8fa60018 	lw	a2,24(sp)
9d0117f0:	8fa7001c 	lw	a3,28(sp)
9d0117f4:	8fa80020 	lw	t0,32(sp)
9d0117f8:	8fa90024 	lw	t1,36(sp)
9d0117fc:	8faa0028 	lw	t2,40(sp)
9d011800:	8fab002c 	lw	t3,44(sp)
9d011804:	8fac0030 	lw	t4,48(sp)
9d011808:	8fad0034 	lw	t5,52(sp)
9d01180c:	8fae0038 	lw	t6,56(sp)
9d011810:	8faf003c 	lw	t7,60(sp)
9d011814:	8fb80040 	lw	t8,64(sp)
9d011818:	8fb90044 	lw	t9,68(sp)
9d01181c:	8fbf0048 	lw	ra,72(sp)
9d011820:	27bd0058 	addiu	sp,sp,88
9d011824:	000000c0 	ehb
9d011828:	42000018 	eret

Disassembly of section .text.__stdio_read:

9d01182c <__stdio_read>:
9d01182c:	8c83000c 	lw	v1,12(a0)
9d011830:	27bdffd0 	addiu	sp,sp,-48
9d011834:	afb00020 	sw	s0,32(sp)
9d011838:	0003102b 	sltu	v0,zero,v1
9d01183c:	00c21023 	subu	v0,a2,v0
9d011840:	00808025 	move	s0,a0
9d011844:	afa20014 	sw	v0,20(sp)
9d011848:	8c820008 	lw	v0,8(a0)
9d01184c:	8c840000 	lw	a0,0(a0)
9d011850:	afb20028 	sw	s2,40(sp)
9d011854:	afb10024 	sw	s1,36(sp)
9d011858:	00a09025 	move	s2,a1
9d01185c:	00c08825 	move	s1,a2
9d011860:	afa50010 	sw	a1,16(sp)
9d011864:	24060002 	li	a2,2
9d011868:	27a50010 	addiu	a1,sp,16
9d01186c:	afbf002c 	sw	ra,44(sp)
9d011870:	afa20018 	sw	v0,24(sp)
9d011874:	0f404aac 	jal	9d012ab0 <readv>
9d011878:	afa3001c 	sw	v1,28(sp)
9d01187c:	1c400007 	bgtz	v0,9d01189c <__stdio_read+0x70>
9d011880:	30430018 	andi	v1,v0,0x18
9d011884:	38640008 	xori	a0,v1,0x8
9d011888:	8e030004 	lw	v1,4(s0)
9d01188c:	00641825 	or	v1,v1,a0
9d011890:	ae030004 	sw	v1,4(s0)
9d011894:	10000011 	b	9d0118dc <__stdio_read+0xb0>
9d011898:	00408825 	move	s1,v0
9d01189c:	8fa40014 	lw	a0,20(sp)
9d0118a0:	0082182b 	sltu	v1,a0,v0
9d0118a4:	5060000d 	beqzl	v1,9d0118dc <__stdio_read+0xb0>
9d0118a8:	00408825 	move	s1,v0
9d0118ac:	8e030008 	lw	v1,8(s0)
9d0118b0:	00441023 	subu	v0,v0,a0
9d0118b4:	00621021 	addu	v0,v1,v0
9d0118b8:	ae020040 	sw	v0,64(s0)
9d0118bc:	8e02000c 	lw	v0,12(s0)
9d0118c0:	10400006 	beqz	v0,9d0118dc <__stdio_read+0xb0>
9d0118c4:	ae03003c 	sw	v1,60(s0)
9d0118c8:	24620001 	addiu	v0,v1,1
9d0118cc:	ae02003c 	sw	v0,60(s0)
9d0118d0:	90620000 	lbu	v0,0(v1)
9d0118d4:	02519021 	addu	s2,s2,s1
9d0118d8:	a242ffff 	sb	v0,-1(s2)
9d0118dc:	8fbf002c 	lw	ra,44(sp)
9d0118e0:	02201025 	move	v0,s1
9d0118e4:	8fb20028 	lw	s2,40(sp)
9d0118e8:	8fb10024 	lw	s1,36(sp)
9d0118ec:	8fb00020 	lw	s0,32(sp)
9d0118f0:	03e00008 	jr	ra
9d0118f4:	27bd0030 	addiu	sp,sp,48

Disassembly of section .text.__simple_search_fl:

9d0118f8 <__simple_search_fl>:
9d0118f8:	3c06a000 	lui	a2,0xa000
9d0118fc:	8cca3084 	lw	t2,12420(a2)
9d011900:	1140002b 	beqz	t2,9d0119b0 <__simple_search_fl+0xb8>
9d011904:	00001025 	move	v0,zero
9d011908:	01401825 	move	v1,t2
9d01190c:	00003825 	move	a3,zero
9d011910:	00004025 	move	t0,zero
9d011914:	8c650000 	lw	a1,0(v1)
9d011918:	14a40008 	bne	a1,a0,9d01193c <__simple_search_fl+0x44>
9d01191c:	8c690010 	lw	t1,16(v1)
9d011920:	50e00002 	beqzl	a3,9d01192c <__simple_search_fl+0x34>
9d011924:	acc93084 	sw	t1,12420(a2)
9d011928:	ace90010 	sw	t1,16(a3)
9d01192c:	03e00008 	jr	ra
9d011930:	24620010 	addiu	v0,v1,16
9d011934:	1000fff7 	b	9d011914 <__simple_search_fl+0x1c>
9d011938:	01201825 	move	v1,t1
9d01193c:	0085582b 	sltu	t3,a0,a1
9d011940:	11600007 	beqz	t3,9d011960 <__simple_search_fl+0x68>
9d011944:	00000000 	nop
9d011948:	5040001b 	beqzl	v0,9d0119b8 <__simple_search_fl+0xc0>
9d01194c:	00e04025 	move	t0,a3
9d011950:	8c4b0000 	lw	t3,0(v0)
9d011954:	00ab282b 	sltu	a1,a1,t3
9d011958:	00e5400b 	movn	t0,a3,a1
9d01195c:	0065100b 	movn	v0,v1,a1
9d011960:	1520fff4 	bnez	t1,9d011934 <__simple_search_fl+0x3c>
9d011964:	00603825 	move	a3,v1
9d011968:	10400011 	beqz	v0,9d0119b0 <__simple_search_fl+0xb8>
9d01196c:	00000000 	nop
9d011970:	8c430000 	lw	v1,0(v0)
9d011974:	8c450010 	lw	a1,16(v0)
9d011978:	00641823 	subu	v1,v1,a0
9d01197c:	2c690011 	sltiu	t1,v1,17
9d011980:	15200007 	bnez	t1,9d0119a0 <__simple_search_fl+0xa8>
9d011984:	24470010 	addiu	a3,v0,16
9d011988:	ac440000 	sw	a0,0(v0)
9d01198c:	2463fff0 	addiu	v1,v1,-16
9d011990:	00e42021 	addu	a0,a3,a0
9d011994:	ac850010 	sw	a1,16(a0)
9d011998:	ac830000 	sw	v1,0(a0)
9d01199c:	00802825 	move	a1,a0
9d0119a0:	55420002 	bnel	t2,v0,9d0119ac <__simple_search_fl+0xb4>
9d0119a4:	ad050010 	sw	a1,16(t0)
9d0119a8:	acc53084 	sw	a1,12420(a2)
9d0119ac:	00e01025 	move	v0,a3
9d0119b0:	03e00008 	jr	ra
9d0119b4:	00000000 	nop
9d0119b8:	1000ffe9 	b	9d011960 <__simple_search_fl+0x68>
9d0119bc:	00601025 	move	v0,v1

Disassembly of section .text.__stdio_seek_rw:

9d0119c0 <__stdio_seek_rw>:
9d0119c0:	27bdffe0 	addiu	sp,sp,-32
9d0119c4:	24020001 	li	v0,1
9d0119c8:	afb20018 	sw	s2,24(sp)
9d0119cc:	afb10014 	sw	s1,20(sp)
9d0119d0:	afb00010 	sw	s0,16(sp)
9d0119d4:	afbf001c 	sw	ra,28(sp)
9d0119d8:	00808025 	move	s0,a0
9d0119dc:	00c09025 	move	s2,a2
9d0119e0:	14c20005 	bne	a2,v0,9d0119f8 <__stdio_seek_rw+0x38>
9d0119e4:	00a08825 	move	s1,a1
9d0119e8:	8c820040 	lw	v0,64(a0)
9d0119ec:	8c83003c 	lw	v1,60(a0)
9d0119f0:	00431023 	subu	v0,v0,v1
9d0119f4:	00a28823 	subu	s1,a1,v0
9d0119f8:	8e020004 	lw	v0,4(s0)
9d0119fc:	30420020 	andi	v0,v0,0x20
9d011a00:	1040000a 	beqz	v0,9d011a2c <__stdio_seek_rw+0x6c>
9d011a04:	02403025 	move	a2,s2
9d011a08:	8e020014 	lw	v0,20(s0)
9d011a0c:	8e030018 	lw	v1,24(s0)
9d011a10:	0062102b 	sltu	v0,v1,v0
9d011a14:	5440000d 	bnezl	v0,9d011a4c <__stdio_seek_rw+0x8c>
9d011a18:	8e02002c 	lw	v0,44(s0)
9d011a1c:	ae000028 	sw	zero,40(s0)
9d011a20:	ae000018 	sw	zero,24(s0)
9d011a24:	ae000014 	sw	zero,20(s0)
9d011a28:	02403025 	move	a2,s2
9d011a2c:	02202825 	move	a1,s1
9d011a30:	0f404cbb 	jal	9d0132ec <__stdio_seek_unbuffered>
9d011a34:	02002025 	move	a0,s0
9d011a38:	0440000b 	bltz	v0,9d011a68 <__stdio_seek_rw+0xa8>
9d011a3c:	00001025 	move	v0,zero
9d011a40:	ae000040 	sw	zero,64(s0)
9d011a44:	10000009 	b	9d011a6c <__stdio_seek_rw+0xac>
9d011a48:	ae00003c 	sw	zero,60(s0)
9d011a4c:	00003025 	move	a2,zero
9d011a50:	00002825 	move	a1,zero
9d011a54:	0040f809 	jalr	v0
9d011a58:	02002025 	move	a0,s0
9d011a5c:	8e020014 	lw	v0,20(s0)
9d011a60:	5440ffef 	bnezl	v0,9d011a20 <__stdio_seek_rw+0x60>
9d011a64:	ae000028 	sw	zero,40(s0)
9d011a68:	2402ffff 	li	v0,-1
9d011a6c:	8fbf001c 	lw	ra,28(sp)
9d011a70:	8fb20018 	lw	s2,24(sp)
9d011a74:	8fb10014 	lw	s1,20(sp)
9d011a78:	8fb00010 	lw	s0,16(sp)
9d011a7c:	03e00008 	jr	ra
9d011a80:	27bd0020 	addiu	sp,sp,32

Disassembly of section .text.__stdio_close_rw:

9d011a84 <__stdio_close_rw>:
9d011a84:	14800003 	bnez	a0,9d011a94 <__stdio_close_rw+0x10>
9d011a88:	00001025 	move	v0,zero
9d011a8c:	03e00008 	jr	ra
9d011a90:	00000000 	nop
9d011a94:	8c820004 	lw	v0,4(a0)
9d011a98:	27bdffe0 	addiu	sp,sp,-32
9d011a9c:	afb10018 	sw	s1,24(sp)
9d011aa0:	30420020 	andi	v0,v0,0x20
9d011aa4:	afb00014 	sw	s0,20(sp)
9d011aa8:	afbf001c 	sw	ra,28(sp)
9d011aac:	00808025 	move	s0,a0
9d011ab0:	10400009 	beqz	v0,9d011ad8 <__stdio_close_rw+0x54>
9d011ab4:	00a08825 	move	s1,a1
9d011ab8:	8c820014 	lw	v0,20(a0)
9d011abc:	8c830018 	lw	v1,24(a0)
9d011ac0:	0062102b 	sltu	v0,v1,v0
9d011ac4:	54400014 	bnezl	v0,9d011b18 <__stdio_close_rw+0x94>
9d011ac8:	8c82002c 	lw	v0,44(a0)
9d011acc:	ae000028 	sw	zero,40(s0)
9d011ad0:	ae000018 	sw	zero,24(s0)
9d011ad4:	ae000014 	sw	zero,20(s0)
9d011ad8:	8e05003c 	lw	a1,60(s0)
9d011adc:	8e020040 	lw	v0,64(s0)
9d011ae0:	00a2182b 	sltu	v1,a1,v0
9d011ae4:	10600004 	beqz	v1,9d011af8 <__stdio_close_rw+0x74>
9d011ae8:	24060001 	li	a2,1
9d011aec:	8e040000 	lw	a0,0(s0)
9d011af0:	0f404f93 	jal	9d013e4c <lseek>
9d011af4:	00a22823 	subu	a1,a1,v0
9d011af8:	ae000040 	sw	zero,64(s0)
9d011afc:	ae00003c 	sw	zero,60(s0)
9d011b00:	1220000b 	beqz	s1,9d011b30 <__stdio_close_rw+0xac>
9d011b04:	00001025 	move	v0,zero
9d011b08:	0f404f95 	jal	9d013e54 <close>
9d011b0c:	8e040000 	lw	a0,0(s0)
9d011b10:	10000008 	b	9d011b34 <__stdio_close_rw+0xb0>
9d011b14:	8fbf001c 	lw	ra,28(sp)
9d011b18:	00003025 	move	a2,zero
9d011b1c:	0040f809 	jalr	v0
9d011b20:	00002825 	move	a1,zero
9d011b24:	8e030014 	lw	v1,20(s0)
9d011b28:	1460ffe8 	bnez	v1,9d011acc <__stdio_close_rw+0x48>
9d011b2c:	2402ffff 	li	v0,-1
9d011b30:	8fbf001c 	lw	ra,28(sp)
9d011b34:	8fb10018 	lw	s1,24(sp)
9d011b38:	8fb00014 	lw	s0,20(sp)
9d011b3c:	03e00008 	jr	ra
9d011b40:	27bd0020 	addiu	sp,sp,32

Disassembly of section .text.strtox:

9d011b44 <strtox>:
9d011b44:	27bdff78 	addiu	sp,sp,-136
9d011b48:	afb20080 	sw	s2,128(sp)
9d011b4c:	afb1007c 	sw	s1,124(sp)
9d011b50:	afb00078 	sw	s0,120(sp)
9d011b54:	afbf0084 	sw	ra,132(sp)
9d011b58:	00808025 	move	s0,a0
9d011b5c:	00a08825 	move	s1,a1
9d011b60:	00c09025 	move	s2,a2
9d011b64:	afa0001c 	sw	zero,28(sp)
9d011b68:	afa40054 	sw	a0,84(sp)
9d011b6c:	afa40020 	sw	a0,32(sp)
9d011b70:	04800004 	bltz	a0,9d011b84 <strtox+0x40>
9d011b74:	2402ffff 	li	v0,-1
9d011b78:	3c027fff 	lui	v0,0x7fff
9d011b7c:	3442ffff 	ori	v0,v0,0xffff
9d011b80:	00821021 	addu	v0,a0,v0
9d011b84:	00002825 	move	a1,zero
9d011b88:	27a40018 	addiu	a0,sp,24
9d011b8c:	0f404e1c 	jal	9d013870 <__shlim>
9d011b90:	afa20058 	sw	v0,88(sp)
9d011b94:	8fa20098 	lw	v0,152(sp)
9d011b98:	8fa3009c 	lw	v1,156(sp)
9d011b9c:	02402825 	move	a1,s2
9d011ba0:	27a40018 	addiu	a0,sp,24
9d011ba4:	afa20010 	sw	v0,16(sp)
9d011ba8:	afa30014 	sw	v1,20(sp)
9d011bac:	0f402ef2 	jal	9d00bbc8 <__intscan>
9d011bb0:	24060001 	li	a2,1
9d011bb4:	00402025 	move	a0,v0
9d011bb8:	12200008 	beqz	s1,9d011bdc <strtox+0x98>
9d011bbc:	00602825 	move	a1,v1
9d011bc0:	8fa20058 	lw	v0,88(sp)
9d011bc4:	8fa30054 	lw	v1,84(sp)
9d011bc8:	00621823 	subu	v1,v1,v0
9d011bcc:	8fa2006c 	lw	v0,108(sp)
9d011bd0:	00621821 	addu	v1,v1,v0
9d011bd4:	02038021 	addu	s0,s0,v1
9d011bd8:	ae300000 	sw	s0,0(s1)
9d011bdc:	8fbf0084 	lw	ra,132(sp)
9d011be0:	00801025 	move	v0,a0
9d011be4:	00a01825 	move	v1,a1
9d011be8:	8fb20080 	lw	s2,128(sp)
9d011bec:	8fb1007c 	lw	s1,124(sp)
9d011bf0:	8fb00078 	lw	s0,120(sp)
9d011bf4:	03e00008 	jr	ra
9d011bf8:	27bd0088 	addiu	sp,sp,136

Disassembly of section .text.__shgetc:

9d011bfc <__shgetc>:
9d011bfc:	8c820050 	lw	v0,80(a0)
9d011c00:	27bdffe8 	addiu	sp,sp,-24
9d011c04:	afb00010 	sw	s0,16(sp)
9d011c08:	afbf0014 	sw	ra,20(sp)
9d011c0c:	1040000b 	beqz	v0,9d011c3c <__shgetc+0x40>
9d011c10:	00808025 	move	s0,a0
9d011c14:	8c830054 	lw	v1,84(a0)
9d011c18:	0062102a 	slt	v0,v1,v0
9d011c1c:	14400007 	bnez	v0,9d011c3c <__shgetc+0x40>
9d011c20:	00000000 	nop
9d011c24:	ae00004c 	sw	zero,76(s0)
9d011c28:	2402ffff 	li	v0,-1
9d011c2c:	8fbf0014 	lw	ra,20(sp)
9d011c30:	8fb00010 	lw	s0,16(sp)
9d011c34:	03e00008 	jr	ra
9d011c38:	27bd0018 	addiu	sp,sp,24
9d011c3c:	0f404c37 	jal	9d0130dc <__uflow>
9d011c40:	02002025 	move	a0,s0
9d011c44:	0442fff8 	bltzl	v0,9d011c28 <__shgetc+0x2c>
9d011c48:	ae00004c 	sw	zero,76(s0)
9d011c4c:	8e030040 	lw	v1,64(s0)
9d011c50:	8e040050 	lw	a0,80(s0)
9d011c54:	8e05003c 	lw	a1,60(s0)
9d011c58:	10800009 	beqz	a0,9d011c80 <__shgetc+0x84>
9d011c5c:	00603025 	move	a2,v1
9d011c60:	8e060054 	lw	a2,84(s0)
9d011c64:	00653823 	subu	a3,v1,a1
9d011c68:	00862023 	subu	a0,a0,a2
9d011c6c:	00e4382a 	slt	a3,a3,a0
9d011c70:	14e00003 	bnez	a3,9d011c80 <__shgetc+0x84>
9d011c74:	00603025 	move	a2,v1
9d011c78:	2484ffff 	addiu	a0,a0,-1
9d011c7c:	00a43021 	addu	a2,a1,a0
9d011c80:	10600006 	beqz	v1,9d011c9c <__shgetc+0xa0>
9d011c84:	ae06004c 	sw	a2,76(s0)
9d011c88:	8e040054 	lw	a0,84(s0)
9d011c8c:	00651823 	subu	v1,v1,a1
9d011c90:	24630001 	addiu	v1,v1,1
9d011c94:	00831821 	addu	v1,a0,v1
9d011c98:	ae030054 	sw	v1,84(s0)
9d011c9c:	90a3ffff 	lbu	v1,-1(a1)
9d011ca0:	5462ffe2 	bnel	v1,v0,9d011c2c <__shgetc+0x30>
9d011ca4:	a0a2ffff 	sb	v0,-1(a1)
9d011ca8:	1000ffe1 	b	9d011c30 <__shgetc+0x34>
9d011cac:	8fbf0014 	lw	ra,20(sp)

Disassembly of section .text.__simple_malloc:

9d011cb0 <__simple_malloc>:
9d011cb0:	27bdffd8 	addiu	sp,sp,-40
9d011cb4:	afb10020 	sw	s1,32(sp)
9d011cb8:	3c11a000 	lui	s1,0xa000
9d011cbc:	8e220174 	lw	v0,372(s1)
9d011cc0:	afb0001c 	sw	s0,28(sp)
9d011cc4:	afbf0024 	sw	ra,36(sp)
9d011cc8:	1040000e 	beqz	v0,9d011d04 <__simple_malloc+0x54>
9d011ccc:	00808025 	move	s0,a0
9d011cd0:	0f404d00 	jal	9d013400 <_get_heap_left_space>
9d011cd4:	00000000 	nop
9d011cd8:	27a40010 	addiu	a0,sp,16
9d011cdc:	0f404d8b 	jal	9d01362c <__expand_heap>
9d011ce0:	afa20010 	sw	v0,16(sp)
9d011ce4:	2442000f 	addiu	v0,v0,15
9d011ce8:	8fa50010 	lw	a1,16(sp)
9d011cec:	7c021804 	ins	v0,zero,0x0,0x4
9d011cf0:	0f404ea4 	jal	9d013a90 <__init_search_fl>
9d011cf4:	00402025 	move	a0,v0
9d011cf8:	1040000c 	beqz	v0,9d011d2c <__simple_malloc+0x7c>
9d011cfc:	8fbf0024 	lw	ra,36(sp)
9d011d00:	ae200174 	sw	zero,372(s1)
9d011d04:	52000001 	beqzl	s0,9d011d0c <__simple_malloc+0x5c>
9d011d08:	24100001 	li	s0,1
9d011d0c:	2610000f 	addiu	s0,s0,15
9d011d10:	7c101804 	ins	s0,zero,0x0,0x4
9d011d14:	16000009 	bnez	s0,9d011d3c <__simple_malloc+0x8c>
9d011d18:	3c02a000 	lui	v0,0xa000
9d011d1c:	2403000c 	li	v1,12
9d011d20:	ac433080 	sw	v1,12416(v0)
9d011d24:	00001025 	move	v0,zero
9d011d28:	8fbf0024 	lw	ra,36(sp)
9d011d2c:	8fb10020 	lw	s1,32(sp)
9d011d30:	8fb0001c 	lw	s0,28(sp)
9d011d34:	03e00008 	jr	ra
9d011d38:	27bd0028 	addiu	sp,sp,40
9d011d3c:	2e020004 	sltiu	v0,s0,4
9d011d40:	24030004 	li	v1,4
9d011d44:	0062800b 	movn	s0,v1,v0
9d011d48:	0f40463e 	jal	9d0118f8 <__simple_search_fl>
9d011d4c:	02002025 	move	a0,s0
9d011d50:	5440fff5 	bnezl	v0,9d011d28 <__simple_malloc+0x78>
9d011d54:	ac50fffc 	sw	s0,-4(v0)
9d011d58:	1000fff4 	b	9d011d2c <__simple_malloc+0x7c>
9d011d5c:	8fbf0024 	lw	ra,36(sp)

Disassembly of section .text._sbrk:

9d011d60 <_sbrk>:
9d011d60:	27bdffe0 	addiu	sp,sp,-32
9d011d64:	afb00014 	sw	s0,20(sp)
9d011d68:	3c10a000 	lui	s0,0xa000
9d011d6c:	8e023070 	lw	v0,12400(s0)
9d011d70:	afb10018 	sw	s1,24(sp)
9d011d74:	afbf001c 	sw	ra,28(sp)
9d011d78:	1440000f 	bnez	v0,9d011db8 <_sbrk+0x58>
9d011d7c:	00808825 	move	s1,a0
9d011d80:	0f40419d 	jal	9d010674 <_sbrk_init>
9d011d84:	00000000 	nop
9d011d88:	8e023070 	lw	v0,12400(s0)
9d011d8c:	1440000b 	bnez	v0,9d011dbc <_sbrk+0x5c>
9d011d90:	00000000 	nop
9d011d94:	3c02a000 	lui	v0,0xa000
9d011d98:	2403000c 	li	v1,12
9d011d9c:	ac433080 	sw	v1,12416(v0)
9d011da0:	2402ffff 	li	v0,-1
9d011da4:	8fbf001c 	lw	ra,28(sp)
9d011da8:	8fb10018 	lw	s1,24(sp)
9d011dac:	8fb00014 	lw	s0,20(sp)
9d011db0:	03e00008 	jr	ra
9d011db4:	27bd0020 	addiu	sp,sp,32
9d011db8:	8e023070 	lw	v0,12400(s0)
9d011dbc:	1a20000a 	blez	s1,9d011de8 <_sbrk+0x88>
9d011dc0:	00511821 	addu	v1,v0,s1
9d011dc4:	0062202b 	sltu	a0,v1,v0
9d011dc8:	1480fff2 	bnez	a0,9d011d94 <_sbrk+0x34>
9d011dcc:	3c04a000 	lui	a0,0xa000
9d011dd0:	8c843074 	lw	a0,12404(a0)
9d011dd4:	0083202b 	sltu	a0,a0,v1
9d011dd8:	5480ffef 	bnezl	a0,9d011d98 <_sbrk+0x38>
9d011ddc:	3c02a000 	lui	v0,0xa000
9d011de0:	1000fff0 	b	9d011da4 <_sbrk+0x44>
9d011de4:	ae033070 	sw	v1,12400(s0)
9d011de8:	0043202b 	sltu	a0,v0,v1
9d011dec:	14800005 	bnez	a0,9d011e04 <_sbrk+0xa4>
9d011df0:	3c04a000 	lui	a0,0xa000
9d011df4:	8c843078 	lw	a0,12408(a0)
9d011df8:	0064202b 	sltu	a0,v1,a0
9d011dfc:	5080ffe9 	beqzl	a0,9d011da4 <_sbrk+0x44>
9d011e00:	ae033070 	sw	v1,12400(s0)
9d011e04:	3c02a000 	lui	v0,0xa000
9d011e08:	1000ffe4 	b	9d011d9c <_sbrk+0x3c>
9d011e0c:	24030016 	li	v1,22

Disassembly of section .text.fptodp:

9d011e10 <__extendsfdf2>:
9d011e10:	00043dc2 30e700ff 3c018000 00813024     .=.....0...<$0..
9d011e20:	24e9ffff 2d2100fe 1020000d 00000000     ...$..!-.. .....

9d011e30 <Glab1>:
9d011e30:	24e70380 	addiu	a3,a3,896
9d011e34:	00044a40 	sll	t1,a0,0x9
9d011e38:	00094b02 	srl	t1,t1,0xc
9d011e3c:	00c93025 	or	a2,a2,t1
9d011e40:	00042f40 	sll	a1,a0,0x1d

9d011e44 <Gret>:
9d011e44:	00074d00 	sll	t1,a3,0x14
9d011e48:	00c93025 	or	a2,a2,t1
9d011e4c:	00051025 	or	v0,zero,a1
9d011e50:	00061825 	or	v1,zero,a2

9d011e54 <G999>:
9d011e54:	03e00008 	jr	ra
9d011e58:	00000000 	nop
9d011e5c:	00000000 	nop

9d011e60 <Gspec>:
9d011e60:	24050000 	li	a1,0
9d011e64:	00842021 	addu	a0,a0,a0
9d011e68:	1080fff6 	beqz	a0,9d011e44 <Gret>
9d011e6c:	00000000 	nop
9d011e70:	14e00009 	bnez	a3,9d011e98 <i42>
9d011e74:	00000000 	nop

9d011e78 <b43>:
9d011e78:	24e7ffff 	addiu	a3,a3,-1
9d011e7c:	00842021 	addu	a0,a0,a0
9d011e80:	3c010080 	lui	at,0x80
9d011e84:	0081082b 	sltu	at,a0,at
9d011e88:	1420fffb 	bnez	at,9d011e78 <b43>
9d011e8c:	00000000 	nop
9d011e90:	1000ffe7 	b	9d011e30 <Glab1>
9d011e94:	00000000 	nop

9d011e98 <i42>:
9d011e98:	240707ff 	li	a3,2047
9d011e9c:	3c01ff00 	lui	at,0xff00
9d011ea0:	34210001 	ori	at,at,0x1
9d011ea4:	0081082b 	sltu	at,a0,at
9d011ea8:	1420ffe6 	bnez	at,9d011e44 <Gret>
9d011eac:	00000000 	nop
9d011eb0:	1000ffe4 	b	9d011e44 <Gret>
9d011eb4:	3c06fff8 	lui	a2,0xfff8
9d011eb8:	00000000 	nop

Disassembly of section .text.__push_float:

9d011ebc <__push_float>:
9d011ebc:	24020081 	li	v0,129
9d011ec0:	50a20012 	beql	a1,v0,9d011f0c <__push_float+0x50>
9d011ec4:	8cc20000 	lw	v0,0(a2)
9d011ec8:	24020083 	li	v0,131
9d011ecc:	50a20006 	beql	a1,v0,9d011ee8 <__push_float+0x2c>
9d011ed0:	8cc20000 	lw	v0,0(a2)
9d011ed4:	24020080 	li	v0,128
9d011ed8:	10a20012 	beq	a1,v0,9d011f24 <__push_float+0x68>
9d011edc:	00001025 	move	v0,zero
9d011ee0:	03e00008 	jr	ra
9d011ee4:	00000000 	nop
9d011ee8:	24430004 	addiu	v1,v0,4
9d011eec:	acc30000 	sw	v1,0(a2)
9d011ef0:	8c850004 	lw	a1,4(a0)
9d011ef4:	8c420000 	lw	v0,0(v0)
9d011ef8:	8c840000 	lw	a0,0(a0)
9d011efc:	ac440000 	sw	a0,0(v0)
9d011f00:	ac450004 	sw	a1,4(v0)
9d011f04:	03e00008 	jr	ra
9d011f08:	24020001 	li	v0,1
9d011f0c:	24430004 	addiu	v1,v0,4
9d011f10:	acc30000 	sw	v1,0(a2)
9d011f14:	8c850004 	lw	a1,4(a0)
9d011f18:	8c420000 	lw	v0,0(v0)
9d011f1c:	1000fff7 	b	9d011efc <__push_float+0x40>
9d011f20:	8c840000 	lw	a0,0(a0)
9d011f24:	8cc20000 	lw	v0,0(a2)
9d011f28:	8c850004 	lw	a1,4(a0)
9d011f2c:	8c840000 	lw	a0,0(a0)
9d011f30:	24430004 	addiu	v1,v0,4
9d011f34:	27bdffe8 	addiu	sp,sp,-24
9d011f38:	acc30000 	sw	v1,0(a2)
9d011f3c:	afb00010 	sw	s0,16(sp)
9d011f40:	afbf0014 	sw	ra,20(sp)
9d011f44:	0f40451f 	jal	9d01147c <__truncdfsf2>
9d011f48:	8c500000 	lw	s0,0(v0)
9d011f4c:	8fbf0014 	lw	ra,20(sp)
9d011f50:	ae020000 	sw	v0,0(s0)
9d011f54:	24020001 	li	v0,1
9d011f58:	8fb00010 	lw	s0,16(sp)
9d011f5c:	03e00008 	jr	ra
9d011f60:	27bd0018 	addiu	sp,sp,24

Disassembly of section .text.normalize:

9d011f64 <normalize>:
9d011f64:	27bdffe0 	addiu	sp,sp,-32
9d011f68:	afb10018 	sw	s1,24(sp)
9d011f6c:	00078d02 	srl	s1,a3,0x14
9d011f70:	322507ff 	andi	a1,s1,0x7ff
9d011f74:	afb00014 	sw	s0,20(sp)
9d011f78:	afbf001c 	sw	ra,28(sp)
9d011f7c:	00808025 	move	s0,a0
9d011f80:	00c01025 	move	v0,a2
9d011f84:	14a0000e 	bnez	a1,9d011fc0 <normalize+0x5c>
9d011f88:	00e02025 	move	a0,a3
9d011f8c:	3c029d00 	lui	v0,0x9d00
9d011f90:	00c04025 	move	t0,a2
9d011f94:	00e01825 	move	v1,a3
9d011f98:	8c467658 	lw	a2,30296(v0)
9d011f9c:	8c47765c 	lw	a3,30300(v0)
9d011fa0:	01002025 	move	a0,t0
9d011fa4:	0f403a65 	jal	9d00e994 <__muldf3>
9d011fa8:	00602825 	move	a1,v1
9d011fac:	00602025 	move	a0,v1
9d011fb0:	7c635500 	ext	v1,v1,0x14,0xb
9d011fb4:	10600002 	beqz	v1,9d011fc0 <normalize+0x5c>
9d011fb8:	24050800 	li	a1,2048
9d011fbc:	2465ffc1 	addiu	a1,v1,-63
9d011fc0:	000237c2 	srl	a2,v0,0x1f
9d011fc4:	00041840 	sll	v1,a0,0x1
9d011fc8:	00021040 	sll	v0,v0,0x1
9d011fcc:	00c31825 	or	v1,a2,v1
9d011fd0:	8fbf001c 	lw	ra,28(sp)
9d011fd4:	ae020000 	sw	v0,0(s0)
9d011fd8:	7c63a000 	ext	v1,v1,0x0,0x15
9d011fdc:	3c020020 	lui	v0,0x20
9d011fe0:	00431825 	or	v1,v0,v1
9d011fe4:	32310800 	andi	s1,s1,0x800
9d011fe8:	24a5fbcc 	addiu	a1,a1,-1076
9d011fec:	ae11000c 	sw	s1,12(s0)
9d011ff0:	02001025 	move	v0,s0
9d011ff4:	ae030004 	sw	v1,4(s0)
9d011ff8:	ae050008 	sw	a1,8(s0)
9d011ffc:	8fb10018 	lw	s1,24(sp)
9d012000:	8fb00014 	lw	s0,20(sp)
9d012004:	03e00008 	jr	ra
9d012008:	27bd0020 	addiu	sp,sp,32

Disassembly of section .text.__fmt_s:

9d01200c <__fmt_s>:
9d01200c:	3c036c75 	lui	v1,0x6c75
9d012010:	27bdffc8 	addiu	sp,sp,-56
9d012014:	24636e28 	addiu	v1,v1,28200
9d012018:	afa30018 	sw	v1,24(sp)
9d01201c:	2403296c 	li	v1,10604
9d012020:	afb20028 	sw	s2,40(sp)
9d012024:	afb00020 	sw	s0,32(sp)
9d012028:	afbf0034 	sw	ra,52(sp)
9d01202c:	afb40030 	sw	s4,48(sp)
9d012030:	afb3002c 	sw	s3,44(sp)
9d012034:	afb10024 	sw	s1,36(sp)
9d012038:	00809025 	move	s2,a0
9d01203c:	00e01025 	move	v0,a3
9d012040:	a7a3001c 	sh	v1,28(sp)
9d012044:	a3a0001e 	sb	zero,30(sp)
9d012048:	10c00002 	beqz	a2,9d012054 <__fmt_s+0x48>
9d01204c:	27b00018 	addiu	s0,sp,24
9d012050:	00c08025 	move	s0,a2
9d012054:	8cb10004 	lw	s1,4(a1)
9d012058:	8cb30008 	lw	s3,8(a1)
9d01205c:	14400003 	bnez	v0,9d01206c <__fmt_s+0x60>
9d012060:	8cb40000 	lw	s4,0(a1)
9d012064:	0f404dce 	jal	9d013738 <strlen>
9d012068:	02002025 	move	a0,s0
9d01206c:	06200002 	bltz	s1,9d012078 <__fmt_s+0x6c>
9d012070:	0222182b 	sltu	v1,s1,v0
9d012074:	0223100b 	movn	v0,s1,v1
9d012078:	afb40010 	sw	s4,16(sp)
9d01207c:	02603825 	move	a3,s3
9d012080:	02002825 	move	a1,s0
9d012084:	02402025 	move	a0,s2
9d012088:	0f4044df 	jal	9d01137c <__pad>
9d01208c:	00403025 	move	a2,v0
9d012090:	8fbf0034 	lw	ra,52(sp)
9d012094:	8fb40030 	lw	s4,48(sp)
9d012098:	8fb3002c 	lw	s3,44(sp)
9d01209c:	8fb20028 	lw	s2,40(sp)
9d0120a0:	8fb10024 	lw	s1,36(sp)
9d0120a4:	8fb00020 	lw	s0,32(sp)
9d0120a8:	03e00008 	jr	ra
9d0120ac:	27bd0038 	addiu	sp,sp,56

Disassembly of section .text.strtox:

9d0120b0 <strtox>:
9d0120b0:	27bdff80 	addiu	sp,sp,-128
9d0120b4:	afb20078 	sw	s2,120(sp)
9d0120b8:	afb10074 	sw	s1,116(sp)
9d0120bc:	afb00070 	sw	s0,112(sp)
9d0120c0:	00c09025 	move	s2,a2
9d0120c4:	00808025 	move	s0,a0
9d0120c8:	24060060 	li	a2,96
9d0120cc:	27a40010 	addiu	a0,sp,16
9d0120d0:	00a08825 	move	s1,a1
9d0120d4:	afbf007c 	sw	ra,124(sp)
9d0120d8:	0f404e86 	jal	9d013a18 <memset>
9d0120dc:	00002825 	move	a1,zero
9d0120e0:	2402ffff 	li	v0,-1
9d0120e4:	00002825 	move	a1,zero
9d0120e8:	27a40010 	addiu	a0,sp,16
9d0120ec:	afa20050 	sw	v0,80(sp)
9d0120f0:	afb00018 	sw	s0,24(sp)
9d0120f4:	0f404e1c 	jal	9d013870 <__shlim>
9d0120f8:	afb0004c 	sw	s0,76(sp)
9d0120fc:	02402825 	move	a1,s2
9d012100:	27a40010 	addiu	a0,sp,16
9d012104:	0f402618 	jal	9d009860 <__floatscan>
9d012108:	24060001 	li	a2,1
9d01210c:	00402025 	move	a0,v0
9d012110:	12200008 	beqz	s1,9d012134 <strtox+0x84>
9d012114:	00602825 	move	a1,v1
9d012118:	8fa20050 	lw	v0,80(sp)
9d01211c:	8fa3004c 	lw	v1,76(sp)
9d012120:	00621823 	subu	v1,v1,v0
9d012124:	8fa20064 	lw	v0,100(sp)
9d012128:	00621821 	addu	v1,v1,v0
9d01212c:	02038021 	addu	s0,s0,v1
9d012130:	ae300000 	sw	s0,0(s1)
9d012134:	8fbf007c 	lw	ra,124(sp)
9d012138:	00801025 	move	v0,a0
9d01213c:	00a01825 	move	v1,a1
9d012140:	8fb20078 	lw	s2,120(sp)
9d012144:	8fb10074 	lw	s1,116(sp)
9d012148:	8fb00070 	lw	s0,112(sp)
9d01214c:	03e00008 	jr	ra
9d012150:	27bd0080 	addiu	sp,sp,128

Disassembly of section .text.__skipws:

9d012154 <__skipws>:
9d012154:	27bdffe0 	addiu	sp,sp,-32
9d012158:	afb10018 	sw	s1,24(sp)
9d01215c:	afb00014 	sw	s0,20(sp)
9d012160:	afbf001c 	sw	ra,28(sp)
9d012164:	00808025 	move	s0,a0
9d012168:	00008825 	move	s1,zero
9d01216c:	8e02003c 	lw	v0,60(s0)
9d012170:	8e03004c 	lw	v1,76(s0)
9d012174:	0043182b 	sltu	v1,v0,v1
9d012178:	10600017 	beqz	v1,9d0121d8 <__skipws+0x84>
9d01217c:	24430001 	addiu	v1,v0,1
9d012180:	ae03003c 	sw	v1,60(s0)
9d012184:	90420000 	lbu	v0,0(v0)
9d012188:	24030020 	li	v1,32
9d01218c:	10430010 	beq	v0,v1,9d0121d0 <__skipws+0x7c>
9d012190:	2442fff7 	addiu	v0,v0,-9
9d012194:	2c420005 	sltiu	v0,v0,5
9d012198:	5440fff4 	bnezl	v0,9d01216c <__skipws+0x18>
9d01219c:	26310001 	addiu	s1,s1,1
9d0121a0:	8e02004c 	lw	v0,76(s0)
9d0121a4:	10400005 	beqz	v0,9d0121bc <__skipws+0x68>
9d0121a8:	8fbf001c 	lw	ra,28(sp)
9d0121ac:	8e02003c 	lw	v0,60(s0)
9d0121b0:	2442ffff 	addiu	v0,v0,-1
9d0121b4:	ae02003c 	sw	v0,60(s0)
9d0121b8:	8fbf001c 	lw	ra,28(sp)
9d0121bc:	02201025 	move	v0,s1
9d0121c0:	8fb00014 	lw	s0,20(sp)
9d0121c4:	8fb10018 	lw	s1,24(sp)
9d0121c8:	03e00008 	jr	ra
9d0121cc:	27bd0020 	addiu	sp,sp,32
9d0121d0:	1000ffe6 	b	9d01216c <__skipws+0x18>
9d0121d4:	26310001 	addiu	s1,s1,1
9d0121d8:	0f4046ff 	jal	9d011bfc <__shgetc>
9d0121dc:	02002025 	move	a0,s0
9d0121e0:	2403ffff 	li	v1,-1
9d0121e4:	1443ffe8 	bne	v0,v1,9d012188 <__skipws+0x34>
9d0121e8:	8fbf001c 	lw	ra,28(sp)
9d0121ec:	1000fff4 	b	9d0121c0 <__skipws+0x6c>
9d0121f0:	02201025 	move	v0,s1

Disassembly of section .text.__string_read:

9d0121f4 <__string_read>:
9d0121f4:	27bdffd0 	addiu	sp,sp,-48
9d0121f8:	afb00014 	sw	s0,20(sp)
9d0121fc:	8c900038 	lw	s0,56(a0)
9d012200:	afb2001c 	sw	s2,28(sp)
9d012204:	24d20100 	addiu	s2,a2,256
9d012208:	afb50028 	sw	s5,40(sp)
9d01220c:	afb40024 	sw	s4,36(sp)
9d012210:	afb30020 	sw	s3,32(sp)
9d012214:	00a0a825 	move	s5,a1
9d012218:	00809825 	move	s3,a0
9d01221c:	00c0a025 	move	s4,a2
9d012220:	00002825 	move	a1,zero
9d012224:	02403025 	move	a2,s2
9d012228:	02002025 	move	a0,s0
9d01222c:	afbf002c 	sw	ra,44(sp)
9d012230:	0f404d21 	jal	9d013484 <memchr>
9d012234:	afb10018 	sw	s1,24(sp)
9d012238:	54400001 	bnezl	v0,9d012240 <__string_read+0x4c>
9d01223c:	00509023 	subu	s2,v0,s0
9d012240:	0292882b 	sltu	s1,s4,s2
9d012244:	0251a00a 	movz	s4,s2,s1
9d012248:	02803025 	move	a2,s4
9d01224c:	02002825 	move	a1,s0
9d012250:	0f404e48 	jal	9d013920 <memcpy>
9d012254:	02a02025 	move	a0,s5
9d012258:	8fbf002c 	lw	ra,44(sp)
9d01225c:	02141021 	addu	v0,s0,s4
9d012260:	02128021 	addu	s0,s0,s2
9d012264:	ae62003c 	sw	v0,60(s3)
9d012268:	ae700040 	sw	s0,64(s3)
9d01226c:	ae700038 	sw	s0,56(s3)
9d012270:	02801025 	move	v0,s4
9d012274:	8fb50028 	lw	s5,40(sp)
9d012278:	8fb40024 	lw	s4,36(sp)
9d01227c:	8fb30020 	lw	s3,32(sp)
9d012280:	8fb2001c 	lw	s2,28(sp)
9d012284:	8fb10018 	lw	s1,24(sp)
9d012288:	8fb00014 	lw	s0,20(sp)
9d01228c:	03e00008 	jr	ra
9d012290:	27bd0030 	addiu	sp,sp,48

Disassembly of section .text.__stdio_close:

9d012294 <__stdio_close>:
9d012294:	14800003 	bnez	a0,9d0122a4 <__stdio_close+0x10>
9d012298:	00001025 	move	v0,zero
9d01229c:	03e00008 	jr	ra
9d0122a0:	00000000 	nop
9d0122a4:	8c820004 	lw	v0,4(a0)
9d0122a8:	27bdffe0 	addiu	sp,sp,-32
9d0122ac:	afb10018 	sw	s1,24(sp)
9d0122b0:	30420020 	andi	v0,v0,0x20
9d0122b4:	afb00014 	sw	s0,20(sp)
9d0122b8:	afbf001c 	sw	ra,28(sp)
9d0122bc:	00808025 	move	s0,a0
9d0122c0:	1440000b 	bnez	v0,9d0122f0 <__stdio_close+0x5c>
9d0122c4:	00a08825 	move	s1,a1
9d0122c8:	ae000028 	sw	zero,40(s0)
9d0122cc:	ae000018 	sw	zero,24(s0)
9d0122d0:	16200014 	bnez	s1,9d012324 <__stdio_close+0x90>
9d0122d4:	ae000014 	sw	zero,20(s0)
9d0122d8:	00001025 	move	v0,zero
9d0122dc:	8fbf001c 	lw	ra,28(sp)
9d0122e0:	8fb10018 	lw	s1,24(sp)
9d0122e4:	8fb00014 	lw	s0,20(sp)
9d0122e8:	03e00008 	jr	ra
9d0122ec:	27bd0020 	addiu	sp,sp,32
9d0122f0:	8c820014 	lw	v0,20(a0)
9d0122f4:	8c830018 	lw	v1,24(a0)
9d0122f8:	0062102b 	sltu	v0,v1,v0
9d0122fc:	1040fff2 	beqz	v0,9d0122c8 <__stdio_close+0x34>
9d012300:	00003025 	move	a2,zero
9d012304:	8c82002c 	lw	v0,44(a0)
9d012308:	0040f809 	jalr	v0
9d01230c:	00002825 	move	a1,zero
9d012310:	8e030014 	lw	v1,20(s0)
9d012314:	1060fff1 	beqz	v1,9d0122dc <__stdio_close+0x48>
9d012318:	2402ffff 	li	v0,-1
9d01231c:	1000ffeb 	b	9d0122cc <__stdio_close+0x38>
9d012320:	ae000028 	sw	zero,40(s0)
9d012324:	0f404f95 	jal	9d013e54 <close>
9d012328:	8e040000 	lw	a0,0(s0)
9d01232c:	1000ffec 	b	9d0122e0 <__stdio_close+0x4c>
9d012330:	8fbf001c 	lw	ra,28(sp)

Disassembly of section .text.__toread:

9d012334 <__toread>:
9d012334:	27bdffe8 	addiu	sp,sp,-24
9d012338:	afb00010 	sw	s0,16(sp)
9d01233c:	afbf0014 	sw	ra,20(sp)
9d012340:	80820048 	lb	v0,72(a0)
9d012344:	2443ffff 	addiu	v1,v0,-1
9d012348:	00431025 	or	v0,v0,v1
9d01234c:	a0820048 	sb	v0,72(a0)
9d012350:	8c830018 	lw	v1,24(a0)
9d012354:	8c820014 	lw	v0,20(a0)
9d012358:	0062102b 	sltu	v0,v1,v0
9d01235c:	10400005 	beqz	v0,9d012374 <__toread+0x40>
9d012360:	00808025 	move	s0,a0
9d012364:	8c82002c 	lw	v0,44(a0)
9d012368:	00003025 	move	a2,zero
9d01236c:	0040f809 	jalr	v0
9d012370:	00002825 	move	a1,zero
9d012374:	8e020004 	lw	v0,4(s0)
9d012378:	ae000028 	sw	zero,40(s0)
9d01237c:	ae000018 	sw	zero,24(s0)
9d012380:	30430002 	andi	v1,v0,0x2
9d012384:	10600008 	beqz	v1,9d0123a8 <__toread+0x74>
9d012388:	ae000014 	sw	zero,20(s0)
9d01238c:	34420010 	ori	v0,v0,0x10
9d012390:	ae020004 	sw	v0,4(s0)
9d012394:	2402ffff 	li	v0,-1
9d012398:	8fbf0014 	lw	ra,20(sp)
9d01239c:	8fb00010 	lw	s0,16(sp)
9d0123a0:	03e00008 	jr	ra
9d0123a4:	27bd0018 	addiu	sp,sp,24
9d0123a8:	8e030008 	lw	v1,8(s0)
9d0123ac:	8e04000c 	lw	a0,12(s0)
9d0123b0:	7c4200c0 	ext	v0,v0,0x3,0x1
9d0123b4:	00021023 	negu	v0,v0
9d0123b8:	00641821 	addu	v1,v1,a0
9d0123bc:	ae030040 	sw	v1,64(s0)
9d0123c0:	1000fff5 	b	9d012398 <__toread+0x64>
9d0123c4:	ae03003c 	sw	v1,60(s0)

Disassembly of section .text.__stdio_seek:

9d0123c8 <__stdio_seek>:
9d0123c8:	8c820004 	lw	v0,4(a0)
9d0123cc:	27bdffe0 	addiu	sp,sp,-32
9d0123d0:	afb20018 	sw	s2,24(sp)
9d0123d4:	30420020 	andi	v0,v0,0x20
9d0123d8:	afb10014 	sw	s1,20(sp)
9d0123dc:	afb00010 	sw	s0,16(sp)
9d0123e0:	afbf001c 	sw	ra,28(sp)
9d0123e4:	00808025 	move	s0,a0
9d0123e8:	00a08825 	move	s1,a1
9d0123ec:	10400009 	beqz	v0,9d012414 <__stdio_seek+0x4c>
9d0123f0:	00c09025 	move	s2,a2
9d0123f4:	8c820014 	lw	v0,20(a0)
9d0123f8:	8c830018 	lw	v1,24(a0)
9d0123fc:	0062102b 	sltu	v0,v1,v0
9d012400:	5440000a 	bnezl	v0,9d01242c <__stdio_seek+0x64>
9d012404:	8c82002c 	lw	v0,44(a0)
9d012408:	ae000028 	sw	zero,40(s0)
9d01240c:	ae000018 	sw	zero,24(s0)
9d012410:	ae000014 	sw	zero,20(s0)
9d012414:	02403025 	move	a2,s2
9d012418:	02202825 	move	a1,s1
9d01241c:	0f404cbb 	jal	9d0132ec <__stdio_seek_unbuffered>
9d012420:	02002025 	move	a0,s0
9d012424:	10000008 	b	9d012448 <__stdio_seek+0x80>
9d012428:	8fbf001c 	lw	ra,28(sp)
9d01242c:	00003025 	move	a2,zero
9d012430:	0040f809 	jalr	v0
9d012434:	00002825 	move	a1,zero
9d012438:	8e030014 	lw	v1,20(s0)
9d01243c:	1460fff2 	bnez	v1,9d012408 <__stdio_seek+0x40>
9d012440:	2402ffff 	li	v0,-1
9d012444:	8fbf001c 	lw	ra,28(sp)
9d012448:	8fb20018 	lw	s2,24(sp)
9d01244c:	8fb10014 	lw	s1,20(sp)
9d012450:	8fb00010 	lw	s0,16(sp)
9d012454:	03e00008 	jr	ra
9d012458:	27bd0020 	addiu	sp,sp,32

Disassembly of section .text.__overflow:

9d01245c <__overflow>:
9d01245c:	8c820028 	lw	v0,40(a0)
9d012460:	27bdffe0 	addiu	sp,sp,-32
9d012464:	afb00018 	sw	s0,24(sp)
9d012468:	afbf001c 	sw	ra,28(sp)
9d01246c:	00808025 	move	s0,a0
9d012470:	10400010 	beqz	v0,9d0124b4 <__overflow+0x58>
9d012474:	a3a50010 	sb	a1,16(sp)
9d012478:	8e030014 	lw	v1,20(s0)
9d01247c:	8e020028 	lw	v0,40(s0)
9d012480:	0062102b 	sltu	v0,v1,v0
9d012484:	14400014 	bnez	v0,9d0124d8 <__overflow+0x7c>
9d012488:	93a20010 	lbu	v0,16(sp)
9d01248c:	8e02002c 	lw	v0,44(s0)
9d012490:	24060001 	li	a2,1
9d012494:	27a50010 	addiu	a1,sp,16
9d012498:	0040f809 	jalr	v0
9d01249c:	02002025 	move	a0,s0
9d0124a0:	24030001 	li	v1,1
9d0124a4:	14430007 	bne	v0,v1,9d0124c4 <__overflow+0x68>
9d0124a8:	93a20010 	lbu	v0,16(sp)
9d0124ac:	10000007 	b	9d0124cc <__overflow+0x70>
9d0124b0:	8fbf001c 	lw	ra,28(sp)
9d0124b4:	0f404cef 	jal	9d0133bc <__towrite>
9d0124b8:	00000000 	nop
9d0124bc:	5040ffef 	beqzl	v0,9d01247c <__overflow+0x20>
9d0124c0:	8e030014 	lw	v1,20(s0)
9d0124c4:	2402ffff 	li	v0,-1
9d0124c8:	8fbf001c 	lw	ra,28(sp)
9d0124cc:	8fb00018 	lw	s0,24(sp)
9d0124d0:	03e00008 	jr	ra
9d0124d4:	27bd0020 	addiu	sp,sp,32
9d0124d8:	82040034 	lb	a0,52(s0)
9d0124dc:	1044ffeb 	beq	v0,a0,9d01248c <__overflow+0x30>
9d0124e0:	24640001 	addiu	a0,v1,1
9d0124e4:	ae040014 	sw	a0,20(s0)
9d0124e8:	1000fff7 	b	9d0124c8 <__overflow+0x6c>
9d0124ec:	a0620000 	sb	v0,0(v1)

Disassembly of section .text.__out:

9d0124f0 <__out>:
9d0124f0:	8c820004 	lw	v0,4(a0)
9d0124f4:	27bdffe0 	addiu	sp,sp,-32
9d0124f8:	afbf001c 	sw	ra,28(sp)
9d0124fc:	30470100 	andi	a3,v0,0x100
9d012500:	afb10018 	sw	s1,24(sp)
9d012504:	10e00017 	beqz	a3,9d012564 <__out+0x74>
9d012508:	afb00014 	sw	s0,20(sp)
9d01250c:	8c820010 	lw	v0,16(a0)
9d012510:	00c01825 	move	v1,a2
9d012514:	00c2882b 	sltu	s1,a2,v0
9d012518:	0051180a 	movz	v1,v0,s1
9d01251c:	1060000c 	beqz	v1,9d012550 <__out+0x60>
9d012520:	00608825 	move	s1,v1
9d012524:	00808025 	move	s0,a0
9d012528:	8c840014 	lw	a0,20(a0)
9d01252c:	0f404e48 	jal	9d013920 <memcpy>
9d012530:	00603025 	move	a2,v1
9d012534:	8e020014 	lw	v0,20(s0)
9d012538:	8e030010 	lw	v1,16(s0)
9d01253c:	00511021 	addu	v0,v0,s1
9d012540:	00718823 	subu	s1,v1,s1
9d012544:	ae020014 	sw	v0,20(s0)
9d012548:	ae110010 	sw	s1,16(s0)
9d01254c:	a0400000 	sb	zero,0(v0)
9d012550:	8fbf001c 	lw	ra,28(sp)
9d012554:	8fb10018 	lw	s1,24(sp)
9d012558:	8fb00014 	lw	s0,20(sp)
9d01255c:	03e00008 	jr	ra
9d012560:	27bd0020 	addiu	sp,sp,32
9d012564:	30420010 	andi	v0,v0,0x10
9d012568:	5440fffa 	bnezl	v0,9d012554 <__out+0x64>
9d01256c:	8fbf001c 	lw	ra,28(sp)
9d012570:	0f404da8 	jal	9d0136a0 <__fwrite>
9d012574:	00000000 	nop
9d012578:	1000fff6 	b	9d012554 <__out+0x64>
9d01257c:	8fbf001c 	lw	ra,28(sp)

Disassembly of section .text.dptoli:

9d012580 <__fixdfsi>:
9d012580:	00053ac0 00045542 00ea3825 3c018000     .:..BU..%8.....<
9d012590:	00e13825 00055040 000a5542 2406041e     %8..@P..BU.....$
9d0125a0:	00ca3023 18c0000c 00000000 2cc10020     #0.......... ..,
9d0125b0:	14200002 00000000 34070000              .. ........4

9d0125bc <L42>:
9d0125bc:	04a10002 	bgez	a1,9d0125c8 <i50>
9d0125c0:	00c73806 	srlv	a3,a3,a2
9d0125c4:	00073823 	negu	a3,a3

9d0125c8 <i50>:
9d0125c8:	00071025 	or	v0,zero,a3

9d0125cc <I999>:
9d0125cc:	03e00008 	jr	ra
9d0125d0:	00000000 	nop
9d0125d4:	00000000 	nop

9d0125d8 <Inaninf>:
9d0125d8:	10800002 	beqz	a0,9d0125e4 <i51>
9d0125dc:	00000000 	nop
9d0125e0:	34a50001 	ori	a1,a1,0x1

9d0125e4 <i51>:
9d0125e4:	3c017ff0 	lui	at,0x7ff0
9d0125e8:	34210001 	ori	at,at,0x1
9d0125ec:	00a1082b 	sltu	at,a1,at
9d0125f0:	14200003 	bnez	at,9d012600 <i52>
9d0125f4:	00000000 	nop
9d0125f8:	1000fff4 	b	9d0125cc <I999>
9d0125fc:	3c028000 	lui	v0,0x8000

9d012600 <i52>:
9d012600:	3c027fff 	lui	v0,0x7fff
9d012604:	1000fff1 	b	9d0125cc <I999>
9d012608:	3442ffff 	ori	v0,v0,0xffff
9d01260c:	00000000 	nop

Disassembly of section .text.dptoul:

9d012610 <__fixunsdfsi>:
9d012610:	00053ac0 00045542 00ea3825 3c018000     .:..BU..%8.....<
9d012620:	00e13825 00055040 000a5542 2406041e     %8..@P..BU.....$
9d012630:	00ca3023 04c0000c 00000000 2cc10020     #0.......... ..,
9d012640:	14200002 00000000 34070000              .. ........4

9d01264c <L43>:
9d01264c:	04a10002 	bgez	a1,9d012658 <i53>
9d012650:	00c73806 	srlv	a3,a3,a2
9d012654:	00073823 	negu	a3,a3

9d012658 <i53>:
9d012658:	00071025 	or	v0,zero,a3

9d01265c <K999>:
9d01265c:	03e00008 	jr	ra
9d012660:	00000000 	nop
9d012664:	00000000 	nop

9d012668 <Knaninf>:
9d012668:	10800002 	beqz	a0,9d012674 <i54>
9d01266c:	00000000 	nop
9d012670:	34a50001 	ori	a1,a1,0x1

9d012674 <i54>:
9d012674:	3c017ff0 	lui	at,0x7ff0
9d012678:	34210001 	ori	at,at,0x1
9d01267c:	00a1082b 	sltu	at,a1,at
9d012680:	14200003 	bnez	at,9d012690 <i55>
9d012684:	00000000 	nop
9d012688:	1000fff4 	b	9d01265c <K999>
9d01268c:	3c028000 	lui	v0,0x8000

9d012690 <i55>:
9d012690:	1000fff2 	b	9d01265c <K999>
9d012694:	2402ffff 	li	v0,-1
9d012698:	00000000 	nop

Disassembly of section .text.copysignf:

9d01269c <copysignf>:
9d01269c:	27bdffd0 	addiu	sp,sp,-48
9d0126a0:	afb30028 	sw	s3,40(sp)
9d0126a4:	afb20024 	sw	s2,36(sp)
9d0126a8:	00e09825 	move	s3,a3
9d0126ac:	00c09025 	move	s2,a2
9d0126b0:	afbf002c 	sw	ra,44(sp)
9d0126b4:	afb10020 	sw	s1,32(sp)
9d0126b8:	0f40451f 	jal	9d01147c <__truncdfsf2>
9d0126bc:	afb0001c 	sw	s0,28(sp)
9d0126c0:	02602825 	move	a1,s3
9d0126c4:	02402025 	move	a0,s2
9d0126c8:	0f40451f 	jal	9d01147c <__truncdfsf2>
9d0126cc:	00408825 	move	s1,v0
9d0126d0:	00408025 	move	s0,v0
9d0126d4:	0f404784 	jal	9d011e10 <__extendsfdf2>
9d0126d8:	02202025 	move	a0,s1
9d0126dc:	02002025 	move	a0,s0
9d0126e0:	afa20010 	sw	v0,16(sp)
9d0126e4:	7c707400 	ext	s0,v1,0x10,0xf
9d0126e8:	0f404784 	jal	9d011e10 <__extendsfdf2>
9d0126ec:	afa30014 	sw	v1,20(sp)
9d0126f0:	00031c02 	srl	v1,v1,0x10
9d0126f4:	7c037004 	ins	v1,zero,0x0,0xf
9d0126f8:	02031825 	or	v1,s0,v1
9d0126fc:	a7a30016 	sh	v1,22(sp)
9d012700:	8fa40010 	lw	a0,16(sp)
9d012704:	0f40451f 	jal	9d01147c <__truncdfsf2>
9d012708:	8fa50014 	lw	a1,20(sp)
9d01270c:	8fbf002c 	lw	ra,44(sp)
9d012710:	8fb30028 	lw	s3,40(sp)
9d012714:	8fb20024 	lw	s2,36(sp)
9d012718:	8fb10020 	lw	s1,32(sp)
9d01271c:	8fb0001c 	lw	s0,28(sp)
9d012720:	03e00008 	jr	ra
9d012724:	27bd0030 	addiu	sp,sp,48

Disassembly of section .text.__fopen_rw:

9d012728 <__fopen_rw>:
9d012728:	27bdffe8 	addiu	sp,sp,-24
9d01272c:	afb00010 	sw	s0,16(sp)
9d012730:	afbf0014 	sw	ra,20(sp)
9d012734:	0f40472c 	jal	9d011cb0 <__simple_malloc>
9d012738:	24040468 	li	a0,1128
9d01273c:	10400017 	beqz	v0,9d01279c <__fopen_rw+0x74>
9d012740:	00408025 	move	s0,v0
9d012744:	24060060 	li	a2,96
9d012748:	00002825 	move	a1,zero
9d01274c:	0f404e86 	jal	9d013a18 <memset>
9d012750:	00402025 	move	a0,v0
9d012754:	3c029d01 	lui	v0,0x9d01
9d012758:	24423adc 	addiu	v0,v0,15068
9d01275c:	ae02002c 	sw	v0,44(s0)
9d012760:	3c029d01 	lui	v0,0x9d01
9d012764:	244219c0 	addiu	v0,v0,6592
9d012768:	ae020030 	sw	v0,48(s0)
9d01276c:	3c029d01 	lui	v0,0x9d01
9d012770:	24421a84 	addiu	v0,v0,6788
9d012774:	ae02001c 	sw	v0,28(s0)
9d012778:	3c029d01 	lui	v0,0x9d01
9d01277c:	2442182c 	addiu	v0,v0,6188
9d012780:	ae020044 	sw	v0,68(s0)
9d012784:	2402ffff 	li	v0,-1
9d012788:	a2020034 	sb	v0,52(s0)
9d01278c:	26020068 	addiu	v0,s0,104
9d012790:	ae020008 	sw	v0,8(s0)
9d012794:	24020400 	li	v0,1024
9d012798:	ae02000c 	sw	v0,12(s0)
9d01279c:	8fbf0014 	lw	ra,20(sp)
9d0127a0:	02001025 	move	v0,s0
9d0127a4:	8fb00010 	lw	s0,16(sp)
9d0127a8:	03e00008 	jr	ra
9d0127ac:	27bd0018 	addiu	sp,sp,24

Disassembly of section .text.write:

9d0127b0 <write>:
9d0127b0:	27bdffe0 	addiu	sp,sp,-32
9d0127b4:	afb10014 	sw	s1,20(sp)
9d0127b8:	afbf001c 	sw	ra,28(sp)
9d0127bc:	afb20018 	sw	s2,24(sp)
9d0127c0:	afb00010 	sw	s0,16(sp)
9d0127c4:	10a0000d 	beqz	a1,9d0127fc <write+0x4c>
9d0127c8:	00008825 	move	s1,zero
9d0127cc:	50c0000c 	beqzl	a2,9d012800 <write+0x50>
9d0127d0:	8fbf001c 	lw	ra,28(sp)
9d0127d4:	2c840003 	sltiu	a0,a0,3
9d0127d8:	10800008 	beqz	a0,9d0127fc <write+0x4c>
9d0127dc:	00c08825 	move	s1,a2
9d0127e0:	3c020000 	lui	v0,0x0
9d0127e4:	24420000 	addiu	v0,v0,0
9d0127e8:	1040000b 	beqz	v0,9d012818 <write+0x68>
9d0127ec:	00a08025 	move	s0,a1
9d0127f0:	00c02825 	move	a1,a2
9d0127f4:	0c000000 	jal	90000000 <_bmxdudba_address+0x8fff0000>
9d0127f8:	02002025 	move	a0,s0
9d0127fc:	8fbf001c 	lw	ra,28(sp)
9d012800:	02201025 	move	v0,s1
9d012804:	8fb20018 	lw	s2,24(sp)
9d012808:	8fb10014 	lw	s1,20(sp)
9d01280c:	8fb00010 	lw	s0,16(sp)
9d012810:	03e00008 	jr	ra
9d012814:	27bd0020 	addiu	sp,sp,32
9d012818:	00a69021 	addu	s2,a1,a2
9d01281c:	82040000 	lb	a0,0(s0)
9d012820:	0f4043c7 	jal	9d010f1c <_mon_putc>
9d012824:	26100001 	addiu	s0,s0,1
9d012828:	1650fffc 	bne	s2,s0,9d01281c <write+0x6c>
9d01282c:	8fbf001c 	lw	ra,28(sp)
9d012830:	1000fff4 	b	9d012804 <write+0x54>
9d012834:	02201025 	move	v0,s1

Disassembly of section .text.__vsnprintf:

9d012838 <__vsnprintf>:
9d012838:	27bdffc8 	addiu	sp,sp,-56
9d01283c:	2403ffff 	li	v1,-1
9d012840:	afa30010 	sw	v1,16(sp)
9d012844:	24030102 	li	v1,258
9d012848:	00a01025 	move	v0,a1
9d01284c:	afbf0034 	sw	ra,52(sp)
9d012850:	00c02825 	move	a1,a2
9d012854:	afa30014 	sw	v1,20(sp)
9d012858:	14800002 	bnez	a0,9d012864 <__vsnprintf+0x2c>
9d01285c:	00e03025 	move	a2,a3
9d012860:	27a4002c 	addiu	a0,sp,44
9d012864:	afa40018 	sw	a0,24(sp)
9d012868:	afa2001c 	sw	v0,28(sp)
9d01286c:	10400002 	beqz	v0,9d012878 <__vsnprintf+0x40>
9d012870:	00001825 	move	v1,zero
9d012874:	2443ffff 	addiu	v1,v0,-1
9d012878:	04410008 	bgez	v0,9d01289c <__vsnprintf+0x64>
9d01287c:	afa30020 	sw	v1,32(sp)
9d012880:	3c02a000 	lui	v0,0xa000
9d012884:	2403004f 	li	v1,79
9d012888:	ac433080 	sw	v1,12416(v0)
9d01288c:	2402ffff 	li	v0,-1
9d012890:	8fbf0034 	lw	ra,52(sp)
9d012894:	03e00008 	jr	ra
9d012898:	27bd0038 	addiu	sp,sp,56
9d01289c:	afa40028 	sw	a0,40(sp)
9d0128a0:	afa40024 	sw	a0,36(sp)
9d0128a4:	a0800000 	sb	zero,0(a0)
9d0128a8:	0f404d4f 	jal	9d01353c <__vfprintf>
9d0128ac:	27a40010 	addiu	a0,sp,16
9d0128b0:	1000fff8 	b	9d012894 <__vsnprintf+0x5c>
9d0128b4:	8fbf0034 	lw	ra,52(sp)

Disassembly of section .text.fptoli:

9d0128b8 <__fixsfsi>:
9d0128b8:	00042a00 3c018000 00a12825 00043dc2     .*.....<%(...=..
9d0128c8:	30e700ff 2406009e 00c73023 18c0000d     ...0...$#0......
9d0128d8:	00000000 28c10020 14200003 00000000     .... ..(.. .....
9d0128e8:	10000005 24020000                       .......$

9d0128f0 <i42>:
9d0128f0:	04810002 	bgez	a0,9d0128fc <i43>
9d0128f4:	00c52806 	srlv	a1,a1,a2
9d0128f8:	00052823 	negu	a1,a1

9d0128fc <i43>:
9d0128fc:	00051025 	or	v0,zero,a1

9d012900 <G999>:
9d012900:	03e00008 	jr	ra
9d012904:	00000000 	nop
9d012908:	00000000 	nop

9d01290c <Gspec>:
9d01290c:	3c017f80 	lui	at,0x7f80
9d012910:	34210001 	ori	at,at,0x1
9d012914:	0081082b 	sltu	at,a0,at
9d012918:	14200003 	bnez	at,9d012928 <i44>
9d01291c:	00000000 	nop
9d012920:	1000fff7 	b	9d012900 <G999>
9d012924:	3c028000 	lui	v0,0x8000

9d012928 <i44>:
9d012928:	3c027fff 	lui	v0,0x7fff
9d01292c:	1000fff4 	b	9d012900 <G999>
9d012930:	3442ffff 	ori	v0,v0,0xffff
9d012934:	00000000 	nop

Disassembly of section .text.dremf:

9d012938 <dremf>:
9d012938:	27bdffe0 	addiu	sp,sp,-32
9d01293c:	afb10014 	sw	s1,20(sp)
9d012940:	afb00010 	sw	s0,16(sp)
9d012944:	00e08825 	move	s1,a3
9d012948:	00c08025 	move	s0,a2
9d01294c:	afbf001c 	sw	ra,28(sp)
9d012950:	0f40451f 	jal	9d01147c <__truncdfsf2>
9d012954:	afb20018 	sw	s2,24(sp)
9d012958:	02202825 	move	a1,s1
9d01295c:	02002025 	move	a0,s0
9d012960:	0f40451f 	jal	9d01147c <__truncdfsf2>
9d012964:	00409025 	move	s2,v0
9d012968:	0f404784 	jal	9d011e10 <__extendsfdf2>
9d01296c:	00402025 	move	a0,v0
9d012970:	02402025 	move	a0,s2
9d012974:	00408025 	move	s0,v0
9d012978:	0f404784 	jal	9d011e10 <__extendsfdf2>
9d01297c:	00608825 	move	s1,v1
9d012980:	00402025 	move	a0,v0
9d012984:	02003025 	move	a2,s0
9d012988:	02203825 	move	a3,s1
9d01298c:	0f403349 	jal	9d00cd24 <dreml>
9d012990:	00602825 	move	a1,v1
9d012994:	00402025 	move	a0,v0
9d012998:	0f40451f 	jal	9d01147c <__truncdfsf2>
9d01299c:	00602825 	move	a1,v1
9d0129a0:	8fbf001c 	lw	ra,28(sp)
9d0129a4:	8fb20018 	lw	s2,24(sp)
9d0129a8:	8fb10014 	lw	s1,20(sp)
9d0129ac:	8fb00010 	lw	s0,16(sp)
9d0129b0:	03e00008 	jr	ra
9d0129b4:	27bd0020 	addiu	sp,sp,32

Disassembly of section .text:

9d0129b8 <__dinit_copy_emb>:
9d0129b8:	03e00008 	jr	ra
9d0129bc:	00000000 	nop

9d0129c0 <__pic32_data_init>:
9d0129c0:	03e01825 	move	v1,ra

9d0129c4 <_dinit_init>:
9d0129c4:	3c049d01 	lui	a0,0x9d01
9d0129c8:	2484fda0 	addiu	a0,a0,-608
9d0129cc:	10800016 	beqz	a0,9d012a28 <_dinit_init+0x64>
9d0129d0:	00000000 	nop
9d0129d4:	8c850000 	lw	a1,0(a0)
9d0129d8:	10a00013 	beqz	a1,9d012a28 <_dinit_init+0x64>
9d0129dc:	24840004 	addiu	a0,a0,4
9d0129e0:	8c860000 	lw	a2,0(a0)
9d0129e4:	24840004 	addiu	a0,a0,4
9d0129e8:	848b0000 	lh	t3,0(a0)
9d0129ec:	24840004 	addiu	a0,a0,4
9d0129f0:	3c0c9d01 	lui	t4,0x9d01
9d0129f4:	258c3d78 	addiu	t4,t4,15736
9d0129f8:	000b5880 	sll	t3,t3,0x2
9d0129fc:	016c6021 	addu	t4,t3,t4
9d012a00:	8d8c0000 	lw	t4,0(t4)
9d012a04:	0180f809 	jalr	t4
9d012a08:	00000000 	nop
9d012a0c:	00402025 	move	a0,v0
9d012a10:	24840003 	addiu	a0,a0,3
9d012a14:	2406fffc 	li	a2,-4
9d012a18:	00c42024 	and	a0,a2,a0
9d012a1c:	8c850000 	lw	a1,0(a0)
9d012a20:	14a0ffec 	bnez	a1,9d0129d4 <_dinit_init+0x10>
9d012a24:	00000000 	nop
9d012a28:	0060f825 	move	ra,v1
9d012a2c:	03e00008 	jr	ra
9d012a30:	00000000 	nop

Disassembly of section .text.atoi:

9d012a34 <atoi>:
9d012a34:	24050020 	li	a1,32
9d012a38:	80820000 	lb	v0,0(a0)
9d012a3c:	1045000d 	beq	v0,a1,9d012a74 <atoi+0x40>
9d012a40:	2443fff7 	addiu	v1,v0,-9
9d012a44:	2c630005 	sltiu	v1,v1,5
9d012a48:	1460000a 	bnez	v1,9d012a74 <atoi+0x40>
9d012a4c:	2403002b 	li	v1,43
9d012a50:	1043000a 	beq	v0,v1,9d012a7c <atoi+0x48>
9d012a54:	2403002d 	li	v1,45
9d012a58:	14430003 	bne	v0,v1,9d012a68 <atoi+0x34>
9d012a5c:	00002825 	move	a1,zero
9d012a60:	24050001 	li	a1,1
9d012a64:	24840001 	addiu	a0,a0,1
9d012a68:	00001025 	move	v0,zero
9d012a6c:	10000007 	b	9d012a8c <atoi+0x58>
9d012a70:	2407000a 	li	a3,10
9d012a74:	1000fff0 	b	9d012a38 <atoi+0x4>
9d012a78:	24840001 	addiu	a0,a0,1
9d012a7c:	1000fff9 	b	9d012a64 <atoi+0x30>
9d012a80:	00002825 	move	a1,zero
9d012a84:	24840001 	addiu	a0,a0,1
9d012a88:	00431023 	subu	v0,v0,v1
9d012a8c:	80830000 	lb	v1,0(a0)
9d012a90:	2463ffd0 	addiu	v1,v1,-48
9d012a94:	2c66000a 	sltiu	a2,v1,10
9d012a98:	54c0fffa 	bnezl	a2,9d012a84 <atoi+0x50>
9d012a9c:	70471002 	mul	v0,v0,a3
9d012aa0:	50a00001 	beqzl	a1,9d012aa8 <atoi+0x74>
9d012aa4:	00021023 	negu	v0,v0
9d012aa8:	03e00008 	jr	ra
9d012aac:	00000000 	nop

Disassembly of section .text.__readv:

9d012ab0 <readv>:
9d012ab0:	27bdffd8 	addiu	sp,sp,-40
9d012ab4:	afb40020 	sw	s4,32(sp)
9d012ab8:	afb3001c 	sw	s3,28(sp)
9d012abc:	afb20018 	sw	s2,24(sp)
9d012ac0:	afb10014 	sw	s1,20(sp)
9d012ac4:	afb00010 	sw	s0,16(sp)
9d012ac8:	afbf0024 	sw	ra,36(sp)
9d012acc:	0080a025 	move	s4,a0
9d012ad0:	00c09825 	move	s3,a2
9d012ad4:	00a08025 	move	s0,a1
9d012ad8:	00008825 	move	s1,zero
9d012adc:	00009025 	move	s2,zero
9d012ae0:	0253102a 	slt	v0,s2,s3
9d012ae4:	14400009 	bnez	v0,9d012b0c <readv+0x5c>
9d012ae8:	8fbf0024 	lw	ra,36(sp)
9d012aec:	02201025 	move	v0,s1
9d012af0:	8fb40020 	lw	s4,32(sp)
9d012af4:	8fb3001c 	lw	s3,28(sp)
9d012af8:	8fb20018 	lw	s2,24(sp)
9d012afc:	8fb10014 	lw	s1,20(sp)
9d012b00:	8fb00010 	lw	s0,16(sp)
9d012b04:	03e00008 	jr	ra
9d012b08:	27bd0028 	addiu	sp,sp,40
9d012b0c:	8e060004 	lw	a2,4(s0)
9d012b10:	8e050000 	lw	a1,0(s0)
9d012b14:	02802025 	move	a0,s4
9d012b18:	0f4042e4 	jal	9d010b90 <read>
9d012b1c:	26520001 	addiu	s2,s2,1
9d012b20:	02228821 	addu	s1,s1,v0
9d012b24:	1000ffee 	b	9d012ae0 <readv+0x30>
9d012b28:	26100008 	addiu	s0,s0,8

Disassembly of section .text.litodp:

9d012b2c <__floatsidf>:
9d012b2c:	24050000 00054825 00053825 00043025     ...$%H..%8..%0..
9d012b3c:	10c0000c 00000000 04c10006 00000000     ................
9d012b4c:	3c098000 0005502b 00052823 00063023     ...<+P..#(..#0..
9d012b5c:	00ca3023                                #0..

9d012b60 <i40>:
9d012b60:	2407041e 	li	a3,1054
9d012b64:	70c84020 	clz	t0,a2
9d012b68:	00e83823 	subu	a3,a3,t0
9d012b6c:	01063004 	sllv	a2,a2,t0

9d012b70 <i39>:
9d012b70:	000542c2 	srl	t0,a1,0xb
9d012b74:	00065540 	sll	t2,a2,0x15
9d012b78:	010a4025 	or	t0,t0,t2
9d012b7c:	00065040 	sll	t2,a2,0x1
9d012b80:	000a5302 	srl	t2,t2,0xc
9d012b84:	012a4825 	or	t1,t1,t2
9d012b88:	00075500 	sll	t2,a3,0x14
9d012b8c:	012a4825 	or	t1,t1,t2
9d012b90:	00081025 	or	v0,zero,t0
9d012b94:	00091825 	or	v1,zero,t1

9d012b98 <E999>:
9d012b98:	03e00008 	jr	ra
9d012b9c:	00000000 	nop
9d012ba0:	00000000 	nop

Disassembly of section .text:

9d012ba4 <__floatdidf>:
9d012ba4:	27bdffe0 	addiu	sp,sp,-32
9d012ba8:	afb20018 	sw	s2,24(sp)
9d012bac:	00809025 	move	s2,a0
9d012bb0:	00a02025 	move	a0,a1
9d012bb4:	afbf001c 	sw	ra,28(sp)
9d012bb8:	afb10014 	sw	s1,20(sp)
9d012bbc:	0f404acb 	jal	9d012b2c <__floatsidf>
9d012bc0:	afb00010 	sw	s0,16(sp)
9d012bc4:	3c049d00 	lui	a0,0x9d00
9d012bc8:	8c867688 	lw	a2,30344(a0)
9d012bcc:	8c87768c 	lw	a3,30348(a0)
9d012bd0:	00602825 	move	a1,v1
9d012bd4:	0f403a65 	jal	9d00e994 <__muldf3>
9d012bd8:	00402025 	move	a0,v0
9d012bdc:	02402025 	move	a0,s2
9d012be0:	00408025 	move	s0,v0
9d012be4:	0f404d11 	jal	9d013444 <__floatunsidf>
9d012be8:	00608825 	move	s1,v1
9d012bec:	00402025 	move	a0,v0
9d012bf0:	02003025 	move	a2,s0
9d012bf4:	02203825 	move	a3,s1
9d012bf8:	0f40367e 	jal	9d00d9f8 <__adddf3>
9d012bfc:	00602825 	move	a1,v1
9d012c00:	8fbf001c 	lw	ra,28(sp)
9d012c04:	8fb20018 	lw	s2,24(sp)
9d012c08:	8fb10014 	lw	s1,20(sp)
9d012c0c:	8fb00010 	lw	s0,16(sp)
9d012c10:	03e00008 	jr	ra
9d012c14:	27bd0020 	addiu	sp,sp,32

Disassembly of section .text.__scan_d:

9d012c18 <__scan_d>:
9d012c18:	27bdffd8 	addiu	sp,sp,-40
9d012c1c:	afb10020 	sw	s1,32(sp)
9d012c20:	afb0001c 	sw	s0,28(sp)
9d012c24:	00a08825 	move	s1,a1
9d012c28:	8cd0000c 	lw	s0,12(a2)
9d012c2c:	00c02825 	move	a1,a2
9d012c30:	afbf0024 	sw	ra,36(sp)
9d012c34:	0f404295 	jal	9d010a54 <__read_int>
9d012c38:	00e03025 	move	a2,a3
9d012c3c:	2403ffff 	li	v1,-1
9d012c40:	1043000c 	beq	v0,v1,9d012c74 <__scan_d+0x5c>
9d012c44:	02002025 	move	a0,s0
9d012c48:	2406000a 	li	a2,10
9d012c4c:	0f404df0 	jal	9d0137c0 <strtoll>
9d012c50:	27a50010 	addiu	a1,sp,16
9d012c54:	ae220000 	sw	v0,0(s1)
9d012c58:	8fa20010 	lw	v0,16(sp)
9d012c5c:	ae230004 	sw	v1,4(s1)
9d012c60:	2404fffe 	li	a0,-2
9d012c64:	00501026 	xor	v0,v0,s0
9d012c68:	24030001 	li	v1,1
9d012c6c:	0082180a 	movz	v1,a0,v0
9d012c70:	00601025 	move	v0,v1
9d012c74:	8fbf0024 	lw	ra,36(sp)
9d012c78:	8fb10020 	lw	s1,32(sp)
9d012c7c:	8fb0001c 	lw	s0,28(sp)
9d012c80:	03e00008 	jr	ra
9d012c84:	27bd0028 	addiu	sp,sp,40

Disassembly of section .text.__consumews:

9d012c88 <__consumews>:
9d012c88:	8ca20000 	lw	v0,0(a1)
9d012c8c:	24030020 	li	v1,32
9d012c90:	80420000 	lb	v0,0(v0)
9d012c94:	10430004 	beq	v0,v1,9d012ca8 <__consumews+0x20>
9d012c98:	2442fff7 	addiu	v0,v0,-9
9d012c9c:	2c430005 	sltiu	v1,v0,5
9d012ca0:	10600013 	beqz	v1,9d012cf0 <__consumews+0x68>
9d012ca4:	00001025 	move	v0,zero
9d012ca8:	27bdffe8 	addiu	sp,sp,-24
9d012cac:	afb00010 	sw	s0,16(sp)
9d012cb0:	afbf0014 	sw	ra,20(sp)
9d012cb4:	0f404855 	jal	9d012154 <__skipws>
9d012cb8:	00a08025 	move	s0,a1
9d012cbc:	24040020 	li	a0,32
9d012cc0:	8e030000 	lw	v1,0(s0)
9d012cc4:	24650001 	addiu	a1,v1,1
9d012cc8:	ae050000 	sw	a1,0(s0)
9d012ccc:	80630001 	lb	v1,1(v1)
9d012cd0:	1064fffb 	beq	v1,a0,9d012cc0 <__consumews+0x38>
9d012cd4:	2463fff7 	addiu	v1,v1,-9
9d012cd8:	2c630005 	sltiu	v1,v1,5
9d012cdc:	1460fff8 	bnez	v1,9d012cc0 <__consumews+0x38>
9d012ce0:	8fbf0014 	lw	ra,20(sp)
9d012ce4:	8fb00010 	lw	s0,16(sp)
9d012ce8:	03e00008 	jr	ra
9d012cec:	27bd0018 	addiu	sp,sp,24
9d012cf0:	03e00008 	jr	ra
9d012cf4:	00000000 	nop

Disassembly of section .text.__putc:

9d012cf8 <__putc>:
9d012cf8:	8ca20004 	lw	v0,4(a1)
9d012cfc:	27bdffe8 	addiu	sp,sp,-24
9d012d00:	30420020 	andi	v0,v0,0x20
9d012d04:	14400006 	bnez	v0,9d012d20 <__putc+0x28>
9d012d08:	afbf0014 	sw	ra,20(sp)
9d012d0c:	0f404bc4 	jal	9d012f10 <__putc_unbuffered>
9d012d10:	00000000 	nop
9d012d14:	8fbf0014 	lw	ra,20(sp)
9d012d18:	03e00008 	jr	ra
9d012d1c:	27bd0018 	addiu	sp,sp,24
9d012d20:	00803025 	move	a2,a0
9d012d24:	308200ff 	andi	v0,a0,0xff
9d012d28:	80a40034 	lb	a0,52(a1)
9d012d2c:	10820009 	beq	a0,v0,9d012d54 <__putc+0x5c>
9d012d30:	00a01825 	move	v1,a1
9d012d34:	8ca40014 	lw	a0,20(a1)
9d012d38:	8ca50028 	lw	a1,40(a1)
9d012d3c:	0085282b 	sltu	a1,a0,a1
9d012d40:	10a00004 	beqz	a1,9d012d54 <__putc+0x5c>
9d012d44:	24850001 	addiu	a1,a0,1
9d012d48:	ac650014 	sw	a1,20(v1)
9d012d4c:	1000fff1 	b	9d012d14 <__putc+0x1c>
9d012d50:	a0860000 	sb	a2,0(a0)
9d012d54:	00c02825 	move	a1,a2
9d012d58:	0f404917 	jal	9d01245c <__overflow>
9d012d5c:	00602025 	move	a0,v1
9d012d60:	1000ffed 	b	9d012d18 <__putc+0x20>
9d012d64:	8fbf0014 	lw	ra,20(sp)

Disassembly of section .text.__simple_free:

9d012d68 <__simple_free>:
9d012d68:	10800017 	beqz	a0,9d012dc8 <__simple_free+0x60>
9d012d6c:	3c07a000 	lui	a3,0xa000
9d012d70:	8ce23084 	lw	v0,12420(a3)
9d012d74:	2486fff0 	addiu	a2,a0,-16
9d012d78:	10400015 	beqz	v0,9d012dd0 <__simple_free+0x68>
9d012d7c:	00e04025 	move	t0,a3
9d012d80:	8c83fff0 	lw	v1,-16(a0)
9d012d84:	8c450000 	lw	a1,0(v0)
9d012d88:	00834821 	addu	t1,a0,v1
9d012d8c:	14490007 	bne	v0,t1,9d012dac <__simple_free+0x44>
9d012d90:	24a50010 	addiu	a1,a1,16
9d012d94:	8c420010 	lw	v0,16(v0)
9d012d98:	00651821 	addu	v1,v1,a1
9d012d9c:	ac83fff0 	sw	v1,-16(a0)
9d012da0:	ac820000 	sw	v0,0(a0)
9d012da4:	03e00008 	jr	ra
9d012da8:	ace63084 	sw	a2,12420(a3)
9d012dac:	00453821 	addu	a3,v0,a1
9d012db0:	14c70003 	bne	a2,a3,9d012dc0 <__simple_free+0x58>
9d012db4:	00651821 	addu	v1,v1,a1
9d012db8:	03e00008 	jr	ra
9d012dbc:	ac430000 	sw	v1,0(v0)
9d012dc0:	ac820000 	sw	v0,0(a0)
9d012dc4:	ad063084 	sw	a2,12420(t0)
9d012dc8:	03e00008 	jr	ra
9d012dcc:	00000000 	nop
9d012dd0:	1000fffc 	b	9d012dc4 <__simple_free+0x5c>
9d012dd4:	ac800000 	sw	zero,0(a0)

Disassembly of section .text.__vsscanf:

9d012dd8 <__vsscanf>:
9d012dd8:	27bdff80 	addiu	sp,sp,-128
9d012ddc:	afb20078 	sw	s2,120(sp)
9d012de0:	afb10074 	sw	s1,116(sp)
9d012de4:	afb00070 	sw	s0,112(sp)
9d012de8:	00a08825 	move	s1,a1
9d012dec:	00808025 	move	s0,a0
9d012df0:	00c09025 	move	s2,a2
9d012df4:	27a40010 	addiu	a0,sp,16
9d012df8:	24060060 	li	a2,96
9d012dfc:	afbf007c 	sw	ra,124(sp)
9d012e00:	0f404e86 	jal	9d013a18 <memset>
9d012e04:	00002825 	move	a1,zero
9d012e08:	3c029d01 	lui	v0,0x9d01
9d012e0c:	24423c00 	addiu	v0,v0,15360
9d012e10:	02403025 	move	a2,s2
9d012e14:	02202825 	move	a1,s1
9d012e18:	27a40010 	addiu	a0,sp,16
9d012e1c:	afb00018 	sw	s0,24(sp)
9d012e20:	afb00048 	sw	s0,72(sp)
9d012e24:	0f404d40 	jal	9d013500 <__vfscanf>
9d012e28:	afa20054 	sw	v0,84(sp)
9d012e2c:	8fbf007c 	lw	ra,124(sp)
9d012e30:	8fb20078 	lw	s2,120(sp)
9d012e34:	8fb10074 	lw	s1,116(sp)
9d012e38:	8fb00070 	lw	s0,112(sp)
9d012e3c:	03e00008 	jr	ra
9d012e40:	27bd0080 	addiu	sp,sp,128

Disassembly of section .text.a_clz_64:

9d012e44 <a_clz_64>:
9d012e44:	24030020 	li	v1,32
9d012e48:	00a5200b 	movn	a0,a1,a1
9d012e4c:	0005180b 	movn	v1,zero,a1
9d012e50:	00042c02 	srl	a1,a0,0x10
9d012e54:	14a00004 	bnez	a1,9d012e68 <a_clz_64+0x24>
9d012e58:	00051202 	srl	v0,a1,0x8
9d012e5c:	34630010 	ori	v1,v1,0x10
9d012e60:	00802825 	move	a1,a0
9d012e64:	00051202 	srl	v0,a1,0x8
9d012e68:	14400004 	bnez	v0,9d012e7c <a_clz_64+0x38>
9d012e6c:	00022102 	srl	a0,v0,0x4
9d012e70:	34630008 	ori	v1,v1,0x8
9d012e74:	00a01025 	move	v0,a1
9d012e78:	00022102 	srl	a0,v0,0x4
9d012e7c:	54800004 	bnezl	a0,9d012e90 <a_clz_64+0x4c>
9d012e80:	00041082 	srl	v0,a0,0x2
9d012e84:	34630004 	ori	v1,v1,0x4
9d012e88:	00402025 	move	a0,v0
9d012e8c:	00041082 	srl	v0,a0,0x2
9d012e90:	54400004 	bnezl	v0,9d012ea4 <a_clz_64+0x60>
9d012e94:	00021042 	srl	v0,v0,0x1
9d012e98:	34630002 	ori	v1,v1,0x2
9d012e9c:	00801025 	move	v0,a0
9d012ea0:	00021042 	srl	v0,v0,0x1
9d012ea4:	38420001 	xori	v0,v0,0x1
9d012ea8:	03e00008 	jr	ra
9d012eac:	00431025 	or	v0,v0,v1

Disassembly of section .text.__string_out:

9d012eb0 <__string_out>:
9d012eb0:	8c820010 	lw	v0,16(a0)
9d012eb4:	27bdffe0 	addiu	sp,sp,-32
9d012eb8:	afb10018 	sw	s1,24(sp)
9d012ebc:	00c2882b 	sltu	s1,a2,v0
9d012ec0:	0051300a 	movz	a2,v0,s1
9d012ec4:	afbf001c 	sw	ra,28(sp)
9d012ec8:	10c0000c 	beqz	a2,9d012efc <__string_out+0x4c>
9d012ecc:	afb00014 	sw	s0,20(sp)
9d012ed0:	00808025 	move	s0,a0
9d012ed4:	8c840014 	lw	a0,20(a0)
9d012ed8:	0f404e48 	jal	9d013920 <memcpy>
9d012edc:	00c08825 	move	s1,a2
9d012ee0:	8e020014 	lw	v0,20(s0)
9d012ee4:	8e060010 	lw	a2,16(s0)
9d012ee8:	00511021 	addu	v0,v0,s1
9d012eec:	00d18823 	subu	s1,a2,s1
9d012ef0:	ae020014 	sw	v0,20(s0)
9d012ef4:	ae110010 	sw	s1,16(s0)
9d012ef8:	a0400000 	sb	zero,0(v0)
9d012efc:	8fbf001c 	lw	ra,28(sp)
9d012f00:	8fb10018 	lw	s1,24(sp)
9d012f04:	8fb00014 	lw	s0,20(sp)
9d012f08:	03e00008 	jr	ra
9d012f0c:	27bd0020 	addiu	sp,sp,32

Disassembly of section .text.__putc_unbuffered:

9d012f10 <__putc_unbuffered>:
9d012f10:	8ca20004 	lw	v0,4(a1)
9d012f14:	27bdffe0 	addiu	sp,sp,-32
9d012f18:	308300ff 	andi	v1,a0,0xff
9d012f1c:	30420100 	andi	v0,v0,0x100
9d012f20:	afbf001c 	sw	ra,28(sp)
9d012f24:	1040000a 	beqz	v0,9d012f50 <__putc_unbuffered+0x40>
9d012f28:	a3a30010 	sb	v1,16(sp)
9d012f2c:	8ca20014 	lw	v0,20(a1)
9d012f30:	308400ff 	andi	a0,a0,0xff
9d012f34:	24460001 	addiu	a2,v0,1
9d012f38:	aca60014 	sw	a2,20(a1)
9d012f3c:	a0430000 	sb	v1,0(v0)
9d012f40:	8fbf001c 	lw	ra,28(sp)
9d012f44:	00801025 	move	v0,a0
9d012f48:	03e00008 	jr	ra
9d012f4c:	27bd0020 	addiu	sp,sp,32
9d012f50:	00a02025 	move	a0,a1
9d012f54:	24060001 	li	a2,1
9d012f58:	0f404da8 	jal	9d0136a0 <__fwrite>
9d012f5c:	27a50010 	addiu	a1,sp,16
9d012f60:	1040fff7 	beqz	v0,9d012f40 <__putc_unbuffered+0x30>
9d012f64:	2404ffff 	li	a0,-1
9d012f68:	1000fff5 	b	9d012f40 <__putc_unbuffered+0x30>
9d012f6c:	93a40010 	lbu	a0,16(sp)

Disassembly of section .text.__fopen_std:

9d012f70 <__fopen_std>:
9d012f70:	27bdffe8 	addiu	sp,sp,-24
9d012f74:	afb00010 	sw	s0,16(sp)
9d012f78:	afbf0014 	sw	ra,20(sp)
9d012f7c:	0f40472c 	jal	9d011cb0 <__simple_malloc>
9d012f80:	24040038 	li	a0,56
9d012f84:	1040000d 	beqz	v0,9d012fbc <__fopen_std+0x4c>
9d012f88:	00408025 	move	s0,v0
9d012f8c:	24060038 	li	a2,56
9d012f90:	00002825 	move	a1,zero
9d012f94:	0f404e86 	jal	9d013a18 <memset>
9d012f98:	00402025 	move	a0,v0
9d012f9c:	3c029d01 	lui	v0,0x9d01
9d012fa0:	24423adc 	addiu	v0,v0,15068
9d012fa4:	ae02002c 	sw	v0,44(s0)
9d012fa8:	3c029d01 	lui	v0,0x9d01
9d012fac:	244223c8 	addiu	v0,v0,9160
9d012fb0:	ae020030 	sw	v0,48(s0)
9d012fb4:	2402ffff 	li	v0,-1
9d012fb8:	a2020034 	sb	v0,52(s0)
9d012fbc:	8fbf0014 	lw	ra,20(sp)
9d012fc0:	02001025 	move	v0,s0
9d012fc4:	8fb00010 	lw	s0,16(sp)
9d012fc8:	03e00008 	jr	ra
9d012fcc:	27bd0018 	addiu	sp,sp,24

Disassembly of section .text.sitofp:

9d012fd0 <__floatsisf>:
9d012fd0:	3c018000 10800012 00813024 04810002     ...<....$0......
9d012fe0:	00000000 00042023                       ....# ..

9d012fe8 <i40>:
9d012fe8:	2405009e 	li	a1,158
9d012fec:	70873820 	clz	a3,a0
9d012ff0:	00a72823 	subu	a1,a1,a3
9d012ff4:	00e42004 	sllv	a0,a0,a3
9d012ff8:	24840080 	addiu	a0,a0,128
9d012ffc:	2c880080 	sltiu	t0,a0,128
9d013000:	00a82821 	addu	a1,a1,t0
9d013004:	00044203 	sra	t0,a0,0x8
9d013008:	31080001 	andi	t0,t0,0x1
9d01300c:	00882023 	subu	a0,a0,t0
9d013010:	00042040 	sll	a0,a0,0x1
9d013014:	00042242 	srl	a0,a0,0x9
9d013018:	000545c0 	sll	t0,a1,0x17
9d01301c:	00882025 	or	a0,a0,t0

9d013020 <i39>:
9d013020:	00861025 	or	v0,a0,a2

9d013024 <E999>:
9d013024:	03e00008 	jr	ra
9d013028:	00000000 	nop
9d01302c:	00000000 	nop

Disassembly of section .text.__fmt_state:

9d013030 <__fmt_state>:
9d013030:	3c069d01 	lui	a2,0x9d01
9d013034:	00001025 	move	v0,zero
9d013038:	24c63d48 	addiu	a2,a2,15688
9d01303c:	00021840 	sll	v1,v0,0x1
9d013040:	00661821 	addu	v1,v1,a2
9d013044:	80670000 	lb	a3,0(v1)
9d013048:	54e00003 	bnezl	a3,9d013058 <__fmt_state+0x28>
9d01304c:	8c850000 	lw	a1,0(a0)
9d013050:	03e00008 	jr	ra
9d013054:	90620001 	lbu	v0,1(v1)
9d013058:	24420001 	addiu	v0,v0,1
9d01305c:	80a80000 	lb	t0,0(a1)
9d013060:	15070004 	bne	t0,a3,9d013074 <__fmt_state+0x44>
9d013064:	304200ff 	andi	v0,v0,0xff
9d013068:	90620001 	lbu	v0,1(v1)
9d01306c:	24a50001 	addiu	a1,a1,1
9d013070:	ac850000 	sw	a1,0(a0)
9d013074:	2c43000b 	sltiu	v1,v0,11
9d013078:	1460fff1 	bnez	v1,9d013040 <__fmt_state+0x10>
9d01307c:	00021840 	sll	v1,v0,0x1
9d013080:	03e00008 	jr	ra
9d013084:	00000000 	nop

Disassembly of section .text.main_entry:

9d013088 <_main_entry>:
9d013088:	3c040000 	lui	a0,0x0
9d01308c:	27bdffe8 	addiu	sp,sp,-24
9d013090:	24840000 	addiu	a0,a0,0
9d013094:	10800003 	beqz	a0,9d0130a4 <_main_entry+0x1c>
9d013098:	afbf0014 	sw	ra,20(sp)
9d01309c:	0080f809 	jalr	a0
9d0130a0:	00000000 	nop
9d0130a4:	30840000 	andi	a0,a0,0x0
9d0130a8:	30a50000 	andi	a1,a1,0x0
9d0130ac:	3c089d01 	lui	t0,0x9d01
9d0130b0:	25088320 	addiu	t0,t0,-31968
9d0130b4:	0100f809 	jalr	t0
9d0130b8:	00000000 	nop

9d0130bc <__crt0_exit>:
9d0130bc:	3c020000 24420000 10400003 00000000     ...<..B$..@.....
9d0130cc:	0040f809 00000000 1000fff9 00000000     ..@.............

Disassembly of section .text.__uflow:

9d0130dc <__uflow>:
9d0130dc:	27bdffe0 	addiu	sp,sp,-32
9d0130e0:	afb00018 	sw	s0,24(sp)
9d0130e4:	afbf001c 	sw	ra,28(sp)
9d0130e8:	0f4048cd 	jal	9d012334 <__toread>
9d0130ec:	00808025 	move	s0,a0
9d0130f0:	50400006 	beqzl	v0,9d01310c <__uflow+0x30>
9d0130f4:	8e020044 	lw	v0,68(s0)
9d0130f8:	2402ffff 	li	v0,-1
9d0130fc:	8fbf001c 	lw	ra,28(sp)
9d013100:	8fb00018 	lw	s0,24(sp)
9d013104:	03e00008 	jr	ra
9d013108:	27bd0020 	addiu	sp,sp,32
9d01310c:	24060001 	li	a2,1
9d013110:	27a50010 	addiu	a1,sp,16
9d013114:	0040f809 	jalr	v0
9d013118:	02002025 	move	a0,s0
9d01311c:	24030001 	li	v1,1
9d013120:	1443fff5 	bne	v0,v1,9d0130f8 <__uflow+0x1c>
9d013124:	93a20010 	lbu	v0,16(sp)
9d013128:	1000fff5 	b	9d013100 <__uflow+0x24>
9d01312c:	8fbf001c 	lw	ra,28(sp)

Disassembly of section .text.__pop_float:

9d013130 <__pop_float>:
9d013130:	28a30080 	slti	v1,a1,128
9d013134:	14600010 	bnez	v1,9d013178 <__pop_float+0x48>
9d013138:	00001025 	move	v0,zero
9d01313c:	28a30082 	slti	v1,a1,130
9d013140:	14600003 	bnez	v1,9d013150 <__pop_float+0x20>
9d013144:	24030083 	li	v1,131
9d013148:	14a3000b 	bne	a1,v1,9d013178 <__pop_float+0x48>
9d01314c:	00000000 	nop
9d013150:	8cc20000 	lw	v0,0(a2)
9d013154:	24420007 	addiu	v0,v0,7
9d013158:	7c021004 	ins	v0,zero,0x0,0x3
9d01315c:	24430008 	addiu	v1,v0,8
9d013160:	acc30000 	sw	v1,0(a2)
9d013164:	8c430004 	lw	v1,4(v0)
9d013168:	8c420000 	lw	v0,0(v0)
9d01316c:	ac830004 	sw	v1,4(a0)
9d013170:	ac820000 	sw	v0,0(a0)
9d013174:	24020001 	li	v0,1
9d013178:	03e00008 	jr	ra
9d01317c:	00000000 	nop

Disassembly of section .text.__stdio_exit:

9d013180 <__stdio_exit>:
9d013180:	27bdffe8 	addiu	sp,sp,-24
9d013184:	afbf0014 	sw	ra,20(sp)
9d013188:	0f404f87 	jal	9d013e1c <__stdio_exit_ofl>
9d01318c:	00000000 	nop
9d013190:	3c02a000 	lui	v0,0xa000
9d013194:	8c44307c 	lw	a0,12412(v0)
9d013198:	0f404d9a 	jal	9d013668 <__fclose>
9d01319c:	00002825 	move	a1,zero
9d0131a0:	3c02a000 	lui	v0,0xa000
9d0131a4:	8c44307c 	lw	a0,12412(v0)
9d0131a8:	0f404d9a 	jal	9d013668 <__fclose>
9d0131ac:	00002825 	move	a1,zero
9d0131b0:	3c02a000 	lui	v0,0xa000
9d0131b4:	8c44307c 	lw	a0,12412(v0)
9d0131b8:	0f404d9a 	jal	9d013668 <__fclose>
9d0131bc:	00002825 	move	a1,zero
9d0131c0:	8fbf0014 	lw	ra,20(sp)
9d0131c4:	03e00008 	jr	ra
9d0131c8:	27bd0018 	addiu	sp,sp,24

Disassembly of section .text._bootstrap_exception_handler:

9d0131cc <_bootstrap_exception_handler>:
9d0131cc:	3c020000 	lui	v0,0x0
9d0131d0:	24420000 	addiu	v0,v0,0
9d0131d4:	10400005 	beqz	v0,9d0131ec <_bootstrap_exception_handler+0x20>
9d0131d8:	3c020000 	lui	v0,0x0
9d0131dc:	24420000 	addiu	v0,v0,0
9d0131e0:	10400003 	beqz	v0,9d0131f0 <_bootstrap_exception_handler+0x24>
9d0131e4:	3c029d01 	lui	v0,0x9d01
9d0131e8:	7000003f 	sdbbp
9d0131ec:	3c029d01 	lui	v0,0x9d01
9d0131f0:	24423334 	addiu	v0,v0,13108
9d0131f4:	10400005 	beqz	v0,9d01320c <_bootstrap_exception_handler+0x40>
9d0131f8:	00000000 	nop
9d0131fc:	27bdffe8 	addiu	sp,sp,-24
9d013200:	afbf0014 	sw	ra,20(sp)
9d013204:	0040f809 	jalr	v0
9d013208:	00000000 	nop
9d01320c:	1000ffff 	b	9d01320c <_bootstrap_exception_handler+0x40>
9d013210:	00000000 	nop

Disassembly of section .text._general_exception_handler:

9d013214 <_general_exception_handler>:
9d013214:	3c020000 	lui	v0,0x0
9d013218:	24420000 	addiu	v0,v0,0
9d01321c:	10400005 	beqz	v0,9d013234 <_general_exception_handler+0x20>
9d013220:	3c020000 	lui	v0,0x0
9d013224:	24420000 	addiu	v0,v0,0
9d013228:	10400003 	beqz	v0,9d013238 <_general_exception_handler+0x24>
9d01322c:	3c029d01 	lui	v0,0x9d01
9d013230:	7000003f 	sdbbp
9d013234:	3c029d01 	lui	v0,0x9d01
9d013238:	24423334 	addiu	v0,v0,13108
9d01323c:	10400005 	beqz	v0,9d013254 <_general_exception_handler+0x40>
9d013240:	00000000 	nop
9d013244:	27bdffe8 	addiu	sp,sp,-24
9d013248:	afbf0014 	sw	ra,20(sp)
9d01324c:	0040f809 	jalr	v0
9d013250:	00000000 	nop
9d013254:	1000ffff 	b	9d013254 <_general_exception_handler+0x40>
9d013258:	00000000 	nop

Disassembly of section .vector_default:

9d01325c <_DefaultInterrupt>:
9d01325c:	3c020000 	lui	v0,0x0
9d013260:	24420000 	addiu	v0,v0,0
9d013264:	10400007 	beqz	v0,9d013284 <_DefaultInterrupt+0x28>
9d013268:	3c020000 	lui	v0,0x0
9d01326c:	24420000 	addiu	v0,v0,0
9d013270:	50400005 	beqzl	v0,9d013288 <_DefaultInterrupt+0x2c>
9d013274:	3c029d01 	lui	v0,0x9d01
9d013278:	7000003f 	sdbbp
9d01327c:	03e00008 	jr	ra
9d013280:	00000000 	nop
9d013284:	3c029d01 	lui	v0,0x9d01
9d013288:	24423334 	addiu	v0,v0,13108
9d01328c:	10400003 	beqz	v0,9d01329c <_DefaultInterrupt+0x40>
9d013290:	00000000 	nop
9d013294:	0040f809 	jalr	v0
9d013298:	00000000 	nop
9d01329c:	03e00008 	jr	ra
9d0132a0:	00000000 	nop

Disassembly of section .text.__ftello_adj_rw:

9d0132a4 <__ftello_adj_rw>:
9d0132a4:	8c820004 	lw	v0,4(a0)
9d0132a8:	30460002 	andi	a2,v0,0x2
9d0132ac:	14c00004 	bnez	a2,9d0132c0 <__ftello_adj_rw+0x1c>
9d0132b0:	00001825 	move	v1,zero
9d0132b4:	8c830040 	lw	v1,64(a0)
9d0132b8:	8c86003c 	lw	a2,60(a0)
9d0132bc:	00661823 	subu	v1,v1,a2
9d0132c0:	8c870014 	lw	a3,20(a0)
9d0132c4:	8c860018 	lw	a2,24(a0)
9d0132c8:	00e62023 	subu	a0,a3,a2
9d0132cc:	00831821 	addu	v1,a0,v1
9d0132d0:	aca30000 	sw	v1,0(a1)
9d0132d4:	30430040 	andi	v1,v0,0x40
9d0132d8:	10600002 	beqz	v1,9d0132e4 <__ftello_adj_rw+0x40>
9d0132dc:	00001025 	move	v0,zero
9d0132e0:	00c7102b 	sltu	v0,a2,a3
9d0132e4:	03e00008 	jr	ra
9d0132e8:	00000000 	nop

Disassembly of section .text.__stdio_seek_unbuffered:

9d0132ec <__stdio_seek_unbuffered>:
9d0132ec:	27bdffe8 	addiu	sp,sp,-24
9d0132f0:	afb00010 	sw	s0,16(sp)
9d0132f4:	00808025 	move	s0,a0
9d0132f8:	8c840000 	lw	a0,0(a0)
9d0132fc:	afbf0014 	sw	ra,20(sp)
9d013300:	0f404f93 	jal	9d013e4c <lseek>
9d013304:	00000000 	nop
9d013308:	04400005 	bltz	v0,9d013320 <__stdio_seek_unbuffered+0x34>
9d01330c:	2403ffff 	li	v1,-1
9d013310:	8e020004 	lw	v0,4(s0)
9d013314:	00001825 	move	v1,zero
9d013318:	7c0218c4 	ins	v0,zero,0x3,0x1
9d01331c:	ae020004 	sw	v0,4(s0)
9d013320:	8fbf0014 	lw	ra,20(sp)
9d013324:	00601025 	move	v0,v1
9d013328:	8fb00010 	lw	s0,16(sp)
9d01332c:	03e00008 	jr	ra
9d013330:	27bd0018 	addiu	sp,sp,24

Disassembly of section .text:

9d013334 <__pic32_software_reset>:
9d013334:	41606000 	di
9d013338:	000000c0 	ehb
9d01333c:	3c03aa99 	lui	v1,0xaa99
9d013340:	3c02bf81 	lui	v0,0xbf81
9d013344:	24636655 	addiu	v1,v1,26197
9d013348:	ac40f230 	sw	zero,-3536(v0)
9d01334c:	ac43f230 	sw	v1,-3536(v0)
9d013350:	3c035566 	lui	v1,0x5566
9d013354:	346399aa 	ori	v1,v1,0x99aa
9d013358:	ac43f230 	sw	v1,-3536(v0)
9d01335c:	3c02bf81 	lui	v0,0xbf81
9d013360:	24030001 	li	v1,1
9d013364:	ac43f618 	sw	v1,-2536(v0)
9d013368:	3c02bf81 	lui	v0,0xbf81
9d01336c:	8c42f610 	lw	v0,-2544(v0)
9d013370:	0b404ccf 	j	9d01333c <__pic32_software_reset+0x8>
9d013374:	00000000 	nop

Disassembly of section .text.__sio_sprintf_cdeEfFgGns:

9d013378 <__sio_sprintf_cdeEfFgGns>:
9d013378:	27bdffe8 	addiu	sp,sp,-24
9d01337c:	afbf0014 	sw	ra,20(sp)
9d013380:	0f4041f2 	jal	9d0107c8 <__fmt_d>
9d013384:	00000000 	nop
9d013388:	0f402915 	jal	9d00a454 <__fmt_fp>
9d01338c:	00000000 	nop
9d013390:	0f404803 	jal	9d01200c <__fmt_s>
9d013394:	00000000 	nop
9d013398:	0f404c4c 	jal	9d013130 <__pop_float>
9d01339c:	00000000 	nop
9d0133a0:	0f403fcc 	jal	9d00ff30 <__pop_int>
9d0133a4:	00000000 	nop
9d0133a8:	0f40459b 	jal	9d01166c <__pop_ptr>
9d0133ac:	00000000 	nop
9d0133b0:	8fbf0014 	lw	ra,20(sp)
9d0133b4:	03e00008 	jr	ra
9d0133b8:	27bd0018 	addiu	sp,sp,24

Disassembly of section .text.__towrite:

9d0133bc <__towrite>:
9d0133bc:	27bdffe8 	addiu	sp,sp,-24
9d0133c0:	afb00010 	sw	s0,16(sp)
9d0133c4:	afbf0014 	sw	ra,20(sp)
9d0133c8:	0f404d31 	jal	9d0134c4 <__towrite_rw>
9d0133cc:	00808025 	move	s0,a0
9d0133d0:	14400008 	bnez	v0,9d0133f4 <__towrite+0x38>
9d0133d4:	8fbf0014 	lw	ra,20(sp)
9d0133d8:	8e030008 	lw	v1,8(s0)
9d0133dc:	8e04000c 	lw	a0,12(s0)
9d0133e0:	ae030018 	sw	v1,24(s0)
9d0133e4:	ae030014 	sw	v1,20(s0)
9d0133e8:	00641821 	addu	v1,v1,a0
9d0133ec:	ae030028 	sw	v1,40(s0)
9d0133f0:	8fbf0014 	lw	ra,20(sp)
9d0133f4:	8fb00010 	lw	s0,16(sp)
9d0133f8:	03e00008 	jr	ra
9d0133fc:	27bd0018 	addiu	sp,sp,24

Disassembly of section .text._get_heap_left_space:

9d013400 <_get_heap_left_space>:
9d013400:	3c02a000 	lui	v0,0xa000
9d013404:	8c433070 	lw	v1,12400(v0)
9d013408:	27bdffe8 	addiu	sp,sp,-24
9d01340c:	afb00010 	sw	s0,16(sp)
9d013410:	afbf0014 	sw	ra,20(sp)
9d013414:	14600003 	bnez	v1,9d013424 <_get_heap_left_space+0x24>
9d013418:	00408025 	move	s0,v0
9d01341c:	0f40419d 	jal	9d010674 <_sbrk_init>
9d013420:	00000000 	nop
9d013424:	3c02a000 	lui	v0,0xa000
9d013428:	8c433074 	lw	v1,12404(v0)
9d01342c:	8fbf0014 	lw	ra,20(sp)
9d013430:	8e023070 	lw	v0,12400(s0)
9d013434:	8fb00010 	lw	s0,16(sp)
9d013438:	27bd0018 	addiu	sp,sp,24
9d01343c:	03e00008 	jr	ra
9d013440:	00621023 	subu	v0,v1,v0

Disassembly of section .text:

9d013444 <__floatunsidf>:
9d013444:	27bdffe8 	addiu	sp,sp,-24
9d013448:	afb00010 	sw	s0,16(sp)
9d01344c:	afbf0014 	sw	ra,20(sp)
9d013450:	0f404acb 	jal	9d012b2c <__floatsidf>
9d013454:	00808025 	move	s0,a0
9d013458:	06010006 	bgez	s0,9d013474 <__floatunsidf+0x30>
9d01345c:	00602825 	move	a1,v1
9d013460:	3c049d00 	lui	a0,0x9d00
9d013464:	8c867578 	lw	a2,30072(a0)
9d013468:	8c87757c 	lw	a3,30076(a0)
9d01346c:	0f40367e 	jal	9d00d9f8 <__adddf3>
9d013470:	00402025 	move	a0,v0
9d013474:	8fbf0014 	lw	ra,20(sp)
9d013478:	8fb00010 	lw	s0,16(sp)
9d01347c:	03e00008 	jr	ra
9d013480:	27bd0018 	addiu	sp,sp,24

Disassembly of section .text.memchr:

9d013484 <memchr>:
9d013484:	10c0000b 	beqz	a2,9d0134b4 <memchr+0x30>
9d013488:	30a500ff 	andi	a1,a1,0xff
9d01348c:	90820000 	lbu	v0,0(a0)
9d013490:	1045000a 	beq	v0,a1,9d0134bc <memchr+0x38>
9d013494:	00863021 	addu	a2,a0,a2
9d013498:	10000004 	b	9d0134ac <memchr+0x28>
9d01349c:	24840001 	addiu	a0,a0,1
9d0134a0:	10450006 	beq	v0,a1,9d0134bc <memchr+0x38>
9d0134a4:	00000000 	nop
9d0134a8:	24840001 	addiu	a0,a0,1
9d0134ac:	54c4fffc 	bnel	a2,a0,9d0134a0 <memchr+0x1c>
9d0134b0:	90820000 	lbu	v0,0(a0)
9d0134b4:	03e00008 	jr	ra
9d0134b8:	00001025 	move	v0,zero
9d0134bc:	03e00008 	jr	ra
9d0134c0:	00801025 	move	v0,a0

Disassembly of section .text.__towrite_rw:

9d0134c4 <__towrite_rw>:
9d0134c4:	80820048 	lb	v0,72(a0)
9d0134c8:	2443ffff 	addiu	v1,v0,-1
9d0134cc:	00431025 	or	v0,v0,v1
9d0134d0:	a0820048 	sb	v0,72(a0)
9d0134d4:	8c820004 	lw	v0,4(a0)
9d0134d8:	30430004 	andi	v1,v0,0x4
9d0134dc:	50600005 	beqzl	v1,9d0134f4 <__towrite_rw+0x30>
9d0134e0:	ac800040 	sw	zero,64(a0)
9d0134e4:	34420010 	ori	v0,v0,0x10
9d0134e8:	ac820004 	sw	v0,4(a0)
9d0134ec:	03e00008 	jr	ra
9d0134f0:	2402ffff 	li	v0,-1
9d0134f4:	ac80003c 	sw	zero,60(a0)
9d0134f8:	03e00008 	jr	ra
9d0134fc:	00001025 	move	v0,zero

Disassembly of section .text.__vfscanf:

9d013500 <__vfscanf>:
9d013500:	27bdffe0 	addiu	sp,sp,-32
9d013504:	afb00018 	sw	s0,24(sp)
9d013508:	afa60010 	sw	a2,16(sp)
9d01350c:	00808025 	move	s0,a0
9d013510:	afbf001c 	sw	ra,28(sp)
9d013514:	0f402d1c 	jal	9d00b470 <__scanf_core>
9d013518:	27a60010 	addiu	a2,sp,16
9d01351c:	8e030004 	lw	v1,4(s0)
9d013520:	8fbf001c 	lw	ra,28(sp)
9d013524:	2404ffff 	li	a0,-1
9d013528:	30630010 	andi	v1,v1,0x10
9d01352c:	0083100b 	movn	v0,a0,v1
9d013530:	8fb00018 	lw	s0,24(sp)
9d013534:	03e00008 	jr	ra
9d013538:	27bd0020 	addiu	sp,sp,32

Disassembly of section .text.__vfprintf:

9d01353c <__vfprintf>:
9d01353c:	27bdffe0 	addiu	sp,sp,-32
9d013540:	afb00018 	sw	s0,24(sp)
9d013544:	afa60010 	sw	a2,16(sp)
9d013548:	00808025 	move	s0,a0
9d01354c:	afbf001c 	sw	ra,28(sp)
9d013550:	0f4030b2 	jal	9d00c2c8 <__printf_core>
9d013554:	27a60010 	addiu	a2,sp,16
9d013558:	8e030004 	lw	v1,4(s0)
9d01355c:	8fbf001c 	lw	ra,28(sp)
9d013560:	2404ffff 	li	a0,-1
9d013564:	30630010 	andi	v1,v1,0x10
9d013568:	0083100b 	movn	v0,a0,v1
9d01356c:	8fb00018 	lw	s0,24(sp)
9d013570:	03e00008 	jr	ra
9d013574:	27bd0020 	addiu	sp,sp,32

Disassembly of section .text.logbf:

9d013578 <logbf>:
9d013578:	27bdffe8 	addiu	sp,sp,-24
9d01357c:	afbf0014 	sw	ra,20(sp)
9d013580:	0f40451f 	jal	9d01147c <__truncdfsf2>
9d013584:	00000000 	nop
9d013588:	0f404784 	jal	9d011e10 <__extendsfdf2>
9d01358c:	00402025 	move	a0,v0
9d013590:	00402025 	move	a0,v0
9d013594:	0f404411 	jal	9d011044 <logbl>
9d013598:	00602825 	move	a1,v1
9d01359c:	00402025 	move	a0,v0
9d0135a0:	0f40451f 	jal	9d01147c <__truncdfsf2>
9d0135a4:	00602825 	move	a1,v1
9d0135a8:	8fbf0014 	lw	ra,20(sp)
9d0135ac:	03e00008 	jr	ra
9d0135b0:	27bd0018 	addiu	sp,sp,24

Disassembly of section .text:

9d0135b4 <__lshrdi3>:
9d0135b4:	10c00008 	beqz	a2,9d0135d8 <__lshrdi3+0x24>
9d0135b8:	00801025 	move	v0,a0
9d0135bc:	24030020 	li	v1,32
9d0135c0:	00661823 	subu	v1,v1,a2
9d0135c4:	1c600006 	bgtz	v1,9d0135e0 <__lshrdi3+0x2c>
9d0135c8:	00c52006 	srlv	a0,a1,a2
9d0135cc:	00002025 	move	a0,zero
9d0135d0:	00c51006 	srlv	v0,a1,a2
9d0135d4:	00802825 	move	a1,a0
9d0135d8:	03e00008 	jr	ra
9d0135dc:	00a01825 	move	v1,a1
9d0135e0:	00c21006 	srlv	v0,v0,a2
9d0135e4:	00652804 	sllv	a1,a1,v1
9d0135e8:	1000fffa 	b	9d0135d4 <__lshrdi3+0x20>
9d0135ec:	00451025 	or	v0,v0,a1

9d0135f0 <__ashldi3>:
9d0135f0:	10c00008 	beqz	a2,9d013614 <__ashldi3+0x24>
9d0135f4:	00801025 	move	v0,a0
9d0135f8:	24040020 	li	a0,32
9d0135fc:	00862023 	subu	a0,a0,a2
9d013600:	5c800006 	bgtzl	a0,9d01361c <__ashldi3+0x2c>
9d013604:	00c21804 	sllv	v1,v0,a2
9d013608:	00001825 	move	v1,zero
9d01360c:	00c22804 	sllv	a1,v0,a2
9d013610:	00601025 	move	v0,v1
9d013614:	03e00008 	jr	ra
9d013618:	00a01825 	move	v1,a1
9d01361c:	00c52804 	sllv	a1,a1,a2
9d013620:	00821006 	srlv	v0,v0,a0
9d013624:	1000fffa 	b	9d013610 <__ashldi3+0x20>
9d013628:	00a22825 	or	a1,a1,v0

Disassembly of section .text.__expand_heap:

9d01362c <__expand_heap>:
9d01362c:	8c840000 	lw	a0,0(a0)
9d013630:	04810003 	bgez	a0,9d013640 <__expand_heap+0x14>
9d013634:	00001025 	move	v0,zero
9d013638:	03e00008 	jr	ra
9d01363c:	00000000 	nop
9d013640:	27bdffe8 	addiu	sp,sp,-24
9d013644:	afbf0014 	sw	ra,20(sp)
9d013648:	0f404758 	jal	9d011d60 <_sbrk>
9d01364c:	00000000 	nop
9d013650:	2403ffff 	li	v1,-1
9d013654:	50430001 	beql	v0,v1,9d01365c <__expand_heap+0x30>
9d013658:	00001025 	move	v0,zero
9d01365c:	8fbf0014 	lw	ra,20(sp)
9d013660:	03e00008 	jr	ra
9d013664:	27bd0018 	addiu	sp,sp,24

Disassembly of section .text.__fclose:

9d013668 <__fclose>:
9d013668:	1080000b 	beqz	a0,9d013698 <__fclose+0x30>
9d01366c:	00001025 	move	v0,zero
9d013670:	8c83001c 	lw	v1,28(a0)
9d013674:	10600008 	beqz	v1,9d013698 <__fclose+0x30>
9d013678:	00000000 	nop
9d01367c:	27bdffe8 	addiu	sp,sp,-24
9d013680:	afbf0014 	sw	ra,20(sp)
9d013684:	0060f809 	jalr	v1
9d013688:	00000000 	nop
9d01368c:	8fbf0014 	lw	ra,20(sp)
9d013690:	03e00008 	jr	ra
9d013694:	27bd0018 	addiu	sp,sp,24
9d013698:	03e00008 	jr	ra
9d01369c:	00000000 	nop

Disassembly of section .text.__fwrite:

9d0136a0 <__fwrite>:
9d0136a0:	8c83002c 	lw	v1,44(a0)
9d0136a4:	27bdffe8 	addiu	sp,sp,-24
9d0136a8:	10600006 	beqz	v1,9d0136c4 <__fwrite+0x24>
9d0136ac:	afbf0014 	sw	ra,20(sp)
9d0136b0:	0060f809 	jalr	v1
9d0136b4:	00000000 	nop
9d0136b8:	8fbf0014 	lw	ra,20(sp)
9d0136bc:	03e00008 	jr	ra
9d0136c0:	27bd0018 	addiu	sp,sp,24
9d0136c4:	0f4049ec 	jal	9d0127b0 <write>
9d0136c8:	8c840000 	lw	a0,0(a0)
9d0136cc:	1000fffb 	b	9d0136bc <__fwrite+0x1c>
9d0136d0:	8fbf0014 	lw	ra,20(sp)

Disassembly of section .text.finitef:

9d0136d4 <finitef>:
9d0136d4:	27bdffe8 	addiu	sp,sp,-24
9d0136d8:	afbf0014 	sw	ra,20(sp)
9d0136dc:	0f40451f 	jal	9d01147c <__truncdfsf2>
9d0136e0:	00000000 	nop
9d0136e4:	0f404784 	jal	9d011e10 <__extendsfdf2>
9d0136e8:	00402025 	move	a0,v0
9d0136ec:	00031403 	sra	v0,v1,0x10
9d0136f0:	8fbf0014 	lw	ra,20(sp)
9d0136f4:	30427ff0 	andi	v0,v0,0x7ff0
9d0136f8:	38427ff0 	xori	v0,v0,0x7ff0
9d0136fc:	0002102b 	sltu	v0,zero,v0
9d013700:	03e00008 	jr	ra
9d013704:	27bd0018 	addiu	sp,sp,24

Disassembly of section .text.copysign:

9d013708 <copysign>:
9d013708:	00071c02 	srl	v1,a3,0x10
9d01370c:	7c037004 	ins	v1,zero,0x0,0xf
9d013710:	7ca27400 	ext	v0,a1,0x10,0xf
9d013714:	27bdfff8 	addiu	sp,sp,-8
9d013718:	00431025 	or	v0,v0,v1
9d01371c:	afa50004 	sw	a1,4(sp)
9d013720:	afa40000 	sw	a0,0(sp)
9d013724:	a7a20006 	sh	v0,6(sp)
9d013728:	8fa30004 	lw	v1,4(sp)
9d01372c:	8fa20000 	lw	v0,0(sp)
9d013730:	03e00008 	jr	ra
9d013734:	27bd0008 	addiu	sp,sp,8

Disassembly of section .text.strlen:

9d013738 <strlen>:
9d013738:	80820000 	lb	v0,0(a0)
9d01373c:	10400008 	beqz	v0,9d013760 <strlen+0x28>
9d013740:	00000000 	nop
9d013744:	00801025 	move	v0,a0
9d013748:	24420001 	addiu	v0,v0,1
9d01374c:	80430000 	lb	v1,0(v0)
9d013750:	5460fffe 	bnezl	v1,9d01374c <strlen+0x14>
9d013754:	24420001 	addiu	v0,v0,1
9d013758:	03e00008 	jr	ra
9d01375c:	00441023 	subu	v0,v0,a0
9d013760:	03e00008 	jr	ra
9d013764:	00001025 	move	v0,zero

Disassembly of section .text.__sio_sscanf_deEfFgGn:

9d013768 <__sio_sscanf_deEfFgGn>:
9d013768:	27bdffe8 	addiu	sp,sp,-24
9d01376c:	afbf0014 	sw	ra,20(sp)
9d013770:	0f404b06 	jal	9d012c18 <__scan_d>
9d013774:	00000000 	nop
9d013778:	0f403788 	jal	9d00de20 <__scan_fp>
9d01377c:	00000000 	nop
9d013780:	0f403bef 	jal	9d00efbc <__scan_i>
9d013784:	00000000 	nop
9d013788:	8fbf0014 	lw	ra,20(sp)
9d01378c:	03e00008 	jr	ra
9d013790:	27bd0018 	addiu	sp,sp,24

Disassembly of section .text.strtoull:

9d013794 <strtoull>:
9d013794:	27bdffe0 	addiu	sp,sp,-32
9d013798:	2402ffff 	li	v0,-1
9d01379c:	2403ffff 	li	v1,-1
9d0137a0:	afa20010 	sw	v0,16(sp)
9d0137a4:	afa30014 	sw	v1,20(sp)
9d0137a8:	afbf001c 	sw	ra,28(sp)
9d0137ac:	0f4046d1 	jal	9d011b44 <strtox>
9d0137b0:	00000000 	nop
9d0137b4:	8fbf001c 	lw	ra,28(sp)
9d0137b8:	03e00008 	jr	ra
9d0137bc:	27bd0020 	addiu	sp,sp,32

Disassembly of section .text.strtoll:

9d0137c0 <strtoll>:
9d0137c0:	27bdffe0 	addiu	sp,sp,-32
9d0137c4:	00001025 	move	v0,zero
9d0137c8:	3c038000 	lui	v1,0x8000
9d0137cc:	afa20010 	sw	v0,16(sp)
9d0137d0:	afa30014 	sw	v1,20(sp)
9d0137d4:	afbf001c 	sw	ra,28(sp)
9d0137d8:	0f4046d1 	jal	9d011b44 <strtox>
9d0137dc:	00000000 	nop
9d0137e0:	8fbf001c 	lw	ra,28(sp)
9d0137e4:	03e00008 	jr	ra
9d0137e8:	27bd0020 	addiu	sp,sp,32

Disassembly of section .text.strtoul:

9d0137ec <strtoul>:
9d0137ec:	27bdffe0 	addiu	sp,sp,-32
9d0137f0:	2402ffff 	li	v0,-1
9d0137f4:	00001825 	move	v1,zero
9d0137f8:	afa20010 	sw	v0,16(sp)
9d0137fc:	afa30014 	sw	v1,20(sp)
9d013800:	afbf001c 	sw	ra,28(sp)
9d013804:	0f4046d1 	jal	9d011b44 <strtox>
9d013808:	00000000 	nop
9d01380c:	8fbf001c 	lw	ra,28(sp)
9d013810:	03e00008 	jr	ra
9d013814:	27bd0020 	addiu	sp,sp,32

Disassembly of section .text.strtol:

9d013818 <strtol>:
9d013818:	27bdffe0 	addiu	sp,sp,-32
9d01381c:	3c028000 	lui	v0,0x8000
9d013820:	00001825 	move	v1,zero
9d013824:	afa20010 	sw	v0,16(sp)
9d013828:	afa30014 	sw	v1,20(sp)
9d01382c:	afbf001c 	sw	ra,28(sp)
9d013830:	0f4046d1 	jal	9d011b44 <strtox>
9d013834:	00000000 	nop
9d013838:	8fbf001c 	lw	ra,28(sp)
9d01383c:	03e00008 	jr	ra
9d013840:	27bd0020 	addiu	sp,sp,32

Disassembly of section .rodata:

9d013844 <CSWTCH.35>:
9d013844:	fbceff6b 0000fbce                       k.......

9d01384c <CSWTCH.34>:
9d01384c:	00353518                                .55.

9d013850 <p10s.2639>:
9d013850:	0000000a 00000064 000003e8 00002710     ....d........'..
9d013860:	000186a0 000f4240 00989680 05f5e100     ....@B..........

Disassembly of section .text.__shlim:

9d013870 <__shlim>:
9d013870:	8c830040 	lw	v1,64(a0)
9d013874:	8c86003c 	lw	a2,60(a0)
9d013878:	ac850050 	sw	a1,80(a0)
9d01387c:	00661023 	subu	v0,v1,a2
9d013880:	10a00004 	beqz	a1,9d013894 <__shlim+0x24>
9d013884:	ac820054 	sw	v0,84(a0)
9d013888:	00a2102a 	slt	v0,a1,v0
9d01388c:	54400001 	bnezl	v0,9d013894 <__shlim+0x24>
9d013890:	00c51821 	addu	v1,a2,a1
9d013894:	03e00008 	jr	ra
9d013898:	ac83004c 	sw	v1,76(a0)

Disassembly of section .text.__dummy:

9d01389c <__dummy>:
9d01389c:	8c870014 	lw	a3,20(a0)
9d0138a0:	8c860018 	lw	a2,24(a0)
9d0138a4:	8c830004 	lw	v1,4(a0)
9d0138a8:	00e61023 	subu	v0,a3,a2
9d0138ac:	30630040 	andi	v1,v1,0x40
9d0138b0:	aca20000 	sw	v0,0(a1)
9d0138b4:	10600002 	beqz	v1,9d0138c0 <__dummy+0x24>
9d0138b8:	00001025 	move	v0,zero
9d0138bc:	00c7102b 	sltu	v0,a2,a3
9d0138c0:	03e00008 	jr	ra
9d0138c4:	00000000 	nop

Disassembly of section .text.__init_stdio:

9d0138c8 <__init_stdio>:
9d0138c8:	27bdffe8 	addiu	sp,sp,-24
9d0138cc:	afbf0014 	sw	ra,20(sp)
9d0138d0:	0f404f91 	jal	9d013e44 <__init_stderr>
9d0138d4:	00000000 	nop
9d0138d8:	0f404f91 	jal	9d013e44 <__init_stderr>
9d0138dc:	00000000 	nop
9d0138e0:	0f404f91 	jal	9d013e44 <__init_stderr>
9d0138e4:	00000000 	nop
9d0138e8:	8fbf0014 	lw	ra,20(sp)
9d0138ec:	03e00008 	jr	ra
9d0138f0:	27bd0018 	addiu	sp,sp,24

Disassembly of section .text.copysignl:

9d0138f4 <copysignl>:
9d0138f4:	afa50004 	sw	a1,4(sp)
9d0138f8:	97a20006 	lhu	v0,6(sp)
9d0138fc:	00073c02 	srl	a3,a3,0x10
9d013900:	7c077004 	ins	a3,zero,0x0,0xf
9d013904:	30427fff 	andi	v0,v0,0x7fff
9d013908:	00471025 	or	v0,v0,a3
9d01390c:	a7a20006 	sh	v0,6(sp)
9d013910:	afa40000 	sw	a0,0(sp)
9d013914:	8fa20000 	lw	v0,0(sp)
9d013918:	03e00008 	jr	ra
9d01391c:	8fa30004 	lw	v1,4(sp)

Disassembly of section .text.memcpy:

9d013920 <memcpy>:
9d013920:	10c00008 	beqz	a2,9d013944 <memcpy+0x24>
9d013924:	00801025 	move	v0,a0
9d013928:	00863021 	addu	a2,a0,a2
9d01392c:	00801825 	move	v1,a0
9d013930:	24a50001 	addiu	a1,a1,1
9d013934:	90a7ffff 	lbu	a3,-1(a1)
9d013938:	24630001 	addiu	v1,v1,1
9d01393c:	1466fffc 	bne	v1,a2,9d013930 <memcpy+0x10>
9d013940:	a067ffff 	sb	a3,-1(v1)
9d013944:	03e00008 	jr	ra
9d013948:	00000000 	nop

Disassembly of section .text._stub_sbd_memlayout:

9d01394c <_stub_sbd_memlayout>:
9d01394c:	3c04a000 	lui	a0,0xa000
9d013950:	24823058 	addiu	v0,a0,12376
9d013954:	24030001 	li	v1,1
9d013958:	ac430008 	sw	v1,8(v0)
9d01395c:	3c03a000 	lui	v1,0xa000
9d013960:	24633090 	addiu	v1,v1,12432
9d013964:	ac833058 	sw	v1,12376(a0)
9d013968:	3c030000 	lui	v1,0x0
9d01396c:	24630000 	addiu	v1,v1,0
9d013970:	03e00008 	jr	ra
9d013974:	ac430004 	sw	v1,4(v0)

Disassembly of section .text.__wrap_sprintf:

9d013978 <_dsprintf_cdeEfFgGns>:
9d013978:	27bdffe0 	addiu	sp,sp,-32
9d01397c:	afa60028 	sw	a2,40(sp)
9d013980:	27a60028 	addiu	a2,sp,40
9d013984:	afbf001c 	sw	ra,28(sp)
9d013988:	afa7002c 	sw	a3,44(sp)
9d01398c:	0f404e7c 	jal	9d0139f0 <__vsprintf>
9d013990:	afa60010 	sw	a2,16(sp)
9d013994:	8fbf001c 	lw	ra,28(sp)
9d013998:	03e00008 	jr	ra
9d01399c:	27bd0020 	addiu	sp,sp,32

Disassembly of section .text.__wrap_sscanf:

9d0139a0 <_dsscanf_deEfFgGn>:
9d0139a0:	27bdffe0 	addiu	sp,sp,-32
9d0139a4:	afa60028 	sw	a2,40(sp)
9d0139a8:	27a60028 	addiu	a2,sp,40
9d0139ac:	afbf001c 	sw	ra,28(sp)
9d0139b0:	afa7002c 	sw	a3,44(sp)
9d0139b4:	0f404b76 	jal	9d012dd8 <__vsscanf>
9d0139b8:	afa60010 	sw	a2,16(sp)
9d0139bc:	8fbf001c 	lw	ra,28(sp)
9d0139c0:	03e00008 	jr	ra
9d0139c4:	27bd0020 	addiu	sp,sp,32

Disassembly of section .text.strtof:

9d0139c8 <strtof>:
9d0139c8:	27bdffe8 	addiu	sp,sp,-24
9d0139cc:	afbf0014 	sw	ra,20(sp)
9d0139d0:	0f40482c 	jal	9d0120b0 <strtox>
9d0139d4:	00003025 	move	a2,zero
9d0139d8:	00402025 	move	a0,v0
9d0139dc:	0f40451f 	jal	9d01147c <__truncdfsf2>
9d0139e0:	00602825 	move	a1,v1
9d0139e4:	8fbf0014 	lw	ra,20(sp)
9d0139e8:	03e00008 	jr	ra
9d0139ec:	27bd0018 	addiu	sp,sp,24

Disassembly of section .text.__vsprintf:

9d0139f0 <__vsprintf>:
9d0139f0:	00c03825 	move	a3,a2
9d0139f4:	00a03025 	move	a2,a1
9d0139f8:	3c057fff 	lui	a1,0x7fff
9d0139fc:	27bdffe8 	addiu	sp,sp,-24
9d013a00:	afbf0014 	sw	ra,20(sp)
9d013a04:	0f404a0e 	jal	9d012838 <__vsnprintf>
9d013a08:	34a5ffff 	ori	a1,a1,0xffff
9d013a0c:	8fbf0014 	lw	ra,20(sp)
9d013a10:	03e00008 	jr	ra
9d013a14:	27bd0018 	addiu	sp,sp,24

Disassembly of section .text.memset:

9d013a18 <memset>:
9d013a18:	10c00007 	beqz	a2,9d013a38 <memset+0x20>
9d013a1c:	00801025 	move	v0,a0
9d013a20:	7c052c20 	seb	a1,a1
9d013a24:	00863021 	addu	a2,a0,a2
9d013a28:	00801825 	move	v1,a0
9d013a2c:	24630001 	addiu	v1,v1,1
9d013a30:	1466fffe 	bne	v1,a2,9d013a2c <memset+0x14>
9d013a34:	a065ffff 	sb	a1,-1(v1)
9d013a38:	03e00008 	jr	ra
9d013a3c:	00000000 	nop

Disassembly of section .text.strcpy:

9d013a40 <strcpy>:
9d013a40:	27bdffe8 	addiu	sp,sp,-24
9d013a44:	afb00010 	sw	s0,16(sp)
9d013a48:	afbf0014 	sw	ra,20(sp)
9d013a4c:	0f404e9a 	jal	9d013a68 <stpcpy>
9d013a50:	00808025 	move	s0,a0
9d013a54:	8fbf0014 	lw	ra,20(sp)
9d013a58:	02001025 	move	v0,s0
9d013a5c:	8fb00010 	lw	s0,16(sp)
9d013a60:	03e00008 	jr	ra
9d013a64:	27bd0018 	addiu	sp,sp,24

Disassembly of section .text.stpcpy:

9d013a68 <stpcpy>:
9d013a68:	10000002 	b	9d013a74 <stpcpy+0xc>
9d013a6c:	00801025 	move	v0,a0
9d013a70:	00c01025 	move	v0,a2
9d013a74:	24a50001 	addiu	a1,a1,1
9d013a78:	80a3ffff 	lb	v1,-1(a1)
9d013a7c:	24460001 	addiu	a2,v0,1
9d013a80:	1460fffb 	bnez	v1,9d013a70 <stpcpy+0x8>
9d013a84:	a0c3ffff 	sb	v1,-1(a2)
9d013a88:	03e00008 	jr	ra
9d013a8c:	00000000 	nop

Disassembly of section .text.__init_search_fl:

9d013a90 <__init_search_fl>:
9d013a90:	3c03a000 	lui	v1,0xa000
9d013a94:	8c663084 	lw	a2,12420(v1)
9d013a98:	14c00005 	bnez	a2,9d013ab0 <__init_search_fl+0x20>
9d013a9c:	00001025 	move	v0,zero
9d013aa0:	ac643084 	sw	a0,12420(v1)
9d013aa4:	ac800010 	sw	zero,16(a0)
9d013aa8:	ac850000 	sw	a1,0(a0)
9d013aac:	24020001 	li	v0,1
9d013ab0:	03e00008 	jr	ra
9d013ab4:	00000000 	nop

Disassembly of section .text.isxdigit:

9d013ab8 <isxdigit>:
9d013ab8:	2483ffd0 	addiu	v1,a0,-48
9d013abc:	2c63000a 	sltiu	v1,v1,10
9d013ac0:	14600004 	bnez	v1,9d013ad4 <isxdigit+0x1c>
9d013ac4:	24020001 	li	v0,1
9d013ac8:	34840020 	ori	a0,a0,0x20
9d013acc:	2482ff9f 	addiu	v0,a0,-97
9d013ad0:	2c420006 	sltiu	v0,v0,6
9d013ad4:	03e00008 	jr	ra
9d013ad8:	00000000 	nop

Disassembly of section .text.__fwrite_min:

9d013adc <__stdio_write>:
9d013adc:	8c840000 	lw	a0,0(a0)
9d013ae0:	27bdffe8 	addiu	sp,sp,-24
9d013ae4:	afbf0014 	sw	ra,20(sp)
9d013ae8:	0f4049ec 	jal	9d0127b0 <write>
9d013aec:	00000000 	nop
9d013af0:	8fbf0014 	lw	ra,20(sp)
9d013af4:	03e00008 	jr	ra
9d013af8:	27bd0018 	addiu	sp,sp,24

Disassembly of section .text.__fseeko:

9d013afc <__fseeko>:
9d013afc:	8c820030 	lw	v0,48(a0)
9d013b00:	27bdffe8 	addiu	sp,sp,-24
9d013b04:	afbf0014 	sw	ra,20(sp)
9d013b08:	0040f809 	jalr	v0
9d013b0c:	00000000 	nop
9d013b10:	8fbf0014 	lw	ra,20(sp)
9d013b14:	03e00008 	jr	ra
9d013b18:	27bd0018 	addiu	sp,sp,24

Disassembly of section .text:

9d013b1c <__dinit_copy>:
9d013b1c:	908c0000 	lbu	t4,0(a0)
9d013b20:	24c6ffff 	addiu	a2,a2,-1
9d013b24:	24840001 	addiu	a0,a0,1
9d013b28:	a0ac0000 	sb	t4,0(a1)
9d013b2c:	14c0fffb 	bnez	a2,9d013b1c <__dinit_copy>
9d013b30:	24a50001 	addiu	a1,a1,1
9d013b34:	03e00008 	jr	ra
9d013b38:	00801025 	move	v0,a0

Disassembly of section .text.strtod:

9d013b3c <strtod>:
9d013b3c:	27bdffe8 	addiu	sp,sp,-24
9d013b40:	afbf0014 	sw	ra,20(sp)
9d013b44:	0f40482c 	jal	9d0120b0 <strtox>
9d013b48:	24060001 	li	a2,1
9d013b4c:	8fbf0014 	lw	ra,20(sp)
9d013b50:	03e00008 	jr	ra
9d013b54:	27bd0018 	addiu	sp,sp,24

Disassembly of section .text.strtold:

9d013b58 <strtold>:
9d013b58:	27bdffe8 	addiu	sp,sp,-24
9d013b5c:	afbf0014 	sw	ra,20(sp)
9d013b60:	0f40482c 	jal	9d0120b0 <strtox>
9d013b64:	24060002 	li	a2,2
9d013b68:	8fbf0014 	lw	ra,20(sp)
9d013b6c:	03e00008 	jr	ra
9d013b70:	27bd0018 	addiu	sp,sp,24

Disassembly of section .text.strtoimax:

9d013b74 <strtoimax>:
9d013b74:	27bdffe8 	addiu	sp,sp,-24
9d013b78:	afbf0014 	sw	ra,20(sp)
9d013b7c:	0f404df0 	jal	9d0137c0 <strtoll>
9d013b80:	00000000 	nop
9d013b84:	8fbf0014 	lw	ra,20(sp)
9d013b88:	03e00008 	jr	ra
9d013b8c:	27bd0018 	addiu	sp,sp,24

Disassembly of section .text.strtoumax:

9d013b90 <strtoumax>:
9d013b90:	27bdffe8 	addiu	sp,sp,-24
9d013b94:	afbf0014 	sw	ra,20(sp)
9d013b98:	0f404de5 	jal	9d013794 <strtoull>
9d013b9c:	00000000 	nop
9d013ba0:	8fbf0014 	lw	ra,20(sp)
9d013ba4:	03e00008 	jr	ra
9d013ba8:	27bd0018 	addiu	sp,sp,24

Disassembly of section .text.__isxdigit_l:

9d013bac <__isxdigit_l>:
9d013bac:	27bdffe8 	addiu	sp,sp,-24
9d013bb0:	afbf0014 	sw	ra,20(sp)
9d013bb4:	0f404eae 	jal	9d013ab8 <isxdigit>
9d013bb8:	00000000 	nop
9d013bbc:	8fbf0014 	lw	ra,20(sp)
9d013bc0:	03e00008 	jr	ra
9d013bc4:	27bd0018 	addiu	sp,sp,24

Disassembly of section .text.tolower:

9d013bc8 <tolower>:
9d013bc8:	2483ffbf 	addiu	v1,a0,-65
9d013bcc:	2c63001a 	sltiu	v1,v1,26
9d013bd0:	10600002 	beqz	v1,9d013bdc <tolower+0x14>
9d013bd4:	00801025 	move	v0,a0
9d013bd8:	34820020 	ori	v0,a0,0x20
9d013bdc:	03e00008 	jr	ra
9d013be0:	00000000 	nop

Disassembly of section .text.__tolower_l:

9d013be4 <__tolower_l>:
9d013be4:	27bdffe8 	addiu	sp,sp,-24
9d013be8:	afbf0014 	sw	ra,20(sp)
9d013bec:	0f404ef2 	jal	9d013bc8 <tolower>
9d013bf0:	00000000 	nop
9d013bf4:	8fbf0014 	lw	ra,20(sp)
9d013bf8:	03e00008 	jr	ra
9d013bfc:	27bd0018 	addiu	sp,sp,24

Disassembly of section .text.do_read:

9d013c00 <do_read>:
9d013c00:	27bdffe8 	addiu	sp,sp,-24
9d013c04:	afbf0014 	sw	ra,20(sp)
9d013c08:	0f40487d 	jal	9d0121f4 <__string_read>
9d013c0c:	00000000 	nop
9d013c10:	8fbf0014 	lw	ra,20(sp)
9d013c14:	03e00008 	jr	ra
9d013c18:	27bd0018 	addiu	sp,sp,24

Disassembly of section .text.__toread_needs_stdio_exit:

9d013c1c <__toread_needs_stdio_exit>:
9d013c1c:	27bdffe8 	addiu	sp,sp,-24
9d013c20:	afbf0014 	sw	ra,20(sp)
9d013c24:	0f404c60 	jal	9d013180 <__stdio_exit>
9d013c28:	00000000 	nop
9d013c2c:	8fbf0014 	lw	ra,20(sp)
9d013c30:	03e00008 	jr	ra
9d013c34:	27bd0018 	addiu	sp,sp,24

Disassembly of section .text.putc:

9d013c38 <putc>:
9d013c38:	27bdffe8 	addiu	sp,sp,-24
9d013c3c:	afbf0014 	sw	ra,20(sp)
9d013c40:	0f404b3e 	jal	9d012cf8 <__putc>
9d013c44:	00000000 	nop
9d013c48:	8fbf0014 	lw	ra,20(sp)
9d013c4c:	03e00008 	jr	ra
9d013c50:	27bd0018 	addiu	sp,sp,24

Disassembly of section .text.__fopen:

9d013c54 <__fopen>:
9d013c54:	27bdffe8 	addiu	sp,sp,-24
9d013c58:	afbf0014 	sw	ra,20(sp)
9d013c5c:	0f4049ca 	jal	9d012728 <__fopen_rw>
9d013c60:	00000000 	nop
9d013c64:	8fbf0014 	lw	ra,20(sp)
9d013c68:	03e00008 	jr	ra
9d013c6c:	27bd0018 	addiu	sp,sp,24

Disassembly of section .text.__ftello_adj:

9d013c70 <__ftello_adj>:
9d013c70:	27bdffe8 	addiu	sp,sp,-24
9d013c74:	afbf0014 	sw	ra,20(sp)
9d013c78:	0f404ca9 	jal	9d0132a4 <__ftello_adj_rw>
9d013c7c:	00000000 	nop
9d013c80:	8fbf0014 	lw	ra,20(sp)
9d013c84:	03e00008 	jr	ra
9d013c88:	27bd0018 	addiu	sp,sp,24

Disassembly of section .text.logb:

9d013c8c <logb>:
9d013c8c:	27bdffe8 	addiu	sp,sp,-24
9d013c90:	afbf0014 	sw	ra,20(sp)
9d013c94:	0f404411 	jal	9d011044 <logbl>
9d013c98:	00000000 	nop
9d013c9c:	8fbf0014 	lw	ra,20(sp)
9d013ca0:	03e00008 	jr	ra
9d013ca4:	27bd0018 	addiu	sp,sp,24

Disassembly of section .text.drem:

9d013ca8 <drem>:
9d013ca8:	27bdffe8 	addiu	sp,sp,-24
9d013cac:	afbf0014 	sw	ra,20(sp)
9d013cb0:	0f403349 	jal	9d00cd24 <dreml>
9d013cb4:	00000000 	nop
9d013cb8:	8fbf0014 	lw	ra,20(sp)
9d013cbc:	03e00008 	jr	ra
9d013cc0:	27bd0018 	addiu	sp,sp,24

Disassembly of section .text.fabsl:

9d013cc4 <fabsl>:
9d013cc4:	27bdffe8 	addiu	sp,sp,-24
9d013cc8:	afbf0014 	sw	ra,20(sp)
9d013ccc:	0f404f6d 	jal	9d013db4 <fabs>
9d013cd0:	00000000 	nop
9d013cd4:	8fbf0014 	lw	ra,20(sp)
9d013cd8:	03e00008 	jr	ra
9d013cdc:	27bd0018 	addiu	sp,sp,24

Disassembly of section .text.scalbnl:

9d013ce0 <scalbnl>:
9d013ce0:	27bdffe8 	addiu	sp,sp,-24
9d013ce4:	afbf0014 	sw	ra,20(sp)
9d013ce8:	0f40455f 	jal	9d01157c <scalbn>
9d013cec:	00000000 	nop
9d013cf0:	8fbf0014 	lw	ra,20(sp)
9d013cf4:	03e00008 	jr	ra
9d013cf8:	27bd0018 	addiu	sp,sp,24

Disassembly of section .text:

9d013d18 <get_mode>:
#include "utilities.h"

volatile enum mode_t mode;

enum mode_t get_mode(){
    return mode;
9d013d18:	8f82805c 	lw	v0,-32676(gp)
}
9d013d1c:	03e00008 	jr	ra
9d013d20:	00000000 	nop

9d013d24 <set_mode>:

void set_mode(enum mode_t md){
    mode = md;
9d013d24:	af84805c 	sw	a0,-32676(gp)
9d013d28:	03e00008 	jr	ra
9d013d2c:	00000000 	nop

9d013d30 <_nmi_handler>:
9d013d30:	401a6000 	mfc0	k0,c0_status
9d013d34:	3c1bffbf 	lui	k1,0xffbf
9d013d38:	377bffff 	ori	k1,k1,0xffff
9d013d3c:	035bd024 	and	k0,k0,k1
9d013d40:	409a6000 	mtc0	k0,c0_status
9d013d44:	42000018 	eret

Disassembly of section .rodata:

9d013d48 <state_table>:
9d013d48:	096c0768 906a834c c07aa074 88688000     h.l.L.j.t.z...h.
9d013d58:	826c8400 00008100                       ..l.....

Disassembly of section .text:

9d013d60 <__dinit_clear>:
9d013d60:	24c6ffff 	addiu	a2,a2,-1
9d013d64:	a0a00000 	sb	zero,0(a1)
9d013d68:	14c0fffd 	bnez	a2,9d013d60 <__dinit_clear>
9d013d6c:	24a50001 	addiu	a1,a1,1
9d013d70:	03e00008 	jr	ra
9d013d74:	00801025 	move	v0,a0

Disassembly of section .rodata:

9d013d78 <_dinit_func_table>:
9d013d78:	9d013d60 9d013b1c 9d0129b8 9d0129b8     `=...;...)...)..
9d013d88:	9d0129b8                                .)..

Disassembly of section .text.finitel:

9d013d8c <finitel>:
9d013d8c:	00051403 	sra	v0,a1,0x10
9d013d90:	30427ff0 	andi	v0,v0,0x7ff0
9d013d94:	38427ff0 	xori	v0,v0,0x7ff0
9d013d98:	03e00008 	jr	ra
9d013d9c:	0002102b 	sltu	v0,zero,v0

Disassembly of section .text.finite:

9d013da0 <finite>:
9d013da0:	00051403 	sra	v0,a1,0x10
9d013da4:	30427ff0 	andi	v0,v0,0x7ff0
9d013da8:	38427ff0 	xori	v0,v0,0x7ff0
9d013dac:	03e00008 	jr	ra
9d013db0:	0002102b 	sltu	v0,zero,v0

Disassembly of section .text.fabs:

9d013db4 <fabs>:
9d013db4:	7ca6f000 	ext	a2,a1,0x0,0x1f
9d013db8:	00801025 	move	v0,a0
9d013dbc:	03e00008 	jr	ra
9d013dc0:	00c01825 	move	v1,a2

Disassembly of section .text.__get_stderr:

9d013dc4 <__get_stderr>:
9d013dc4:	3c02a000 	lui	v0,0xa000
9d013dc8:	03e00008 	jr	ra
9d013dcc:	244200b4 	addiu	v0,v0,180

Disassembly of section .text.__get_stdout:

9d013dd0 <__get_stdout>:
9d013dd0:	3c02a000 	lui	v0,0xa000
9d013dd4:	03e00008 	jr	ra
9d013dd8:	24420114 	addiu	v0,v0,276

Disassembly of section .text._on_reset:

9d013ddc <_on_reset>:
9d013ddc:	03e00008 	jr	ra
9d013de0:	00000000 	nop

Disassembly of section .text._on_bootstrap:

9d013de4 <_on_bootstrap>:
9d013de4:	03e00008 	jr	ra
9d013de8:	00000000 	nop

Disassembly of section .text.__dummy_fmt3:

9d013dec <__fmt_o>:
9d013dec:	03e00008 	jr	ra
9d013df0:	00001025 	move	v0,zero

Disassembly of section .text.__dummy_fmt4:

9d013df4 <__fmt_a>:
9d013df4:	03e00008 	jr	ra
9d013df8:	00001025 	move	v0,zero

Disassembly of section .text.__dummy_fmts:

9d013dfc <__dummy_fmts>:
9d013dfc:	03e00008 	jr	ra
9d013e00:	00001025 	move	v0,zero

Disassembly of section .text.__dummy_scan:

9d013e04 <__scan_a>:
9d013e04:	03e00008 	jr	ra
9d013e08:	00001025 	move	v0,zero

Disassembly of section .text.__dummy_scan_s:

9d013e0c <__scan_s>:
9d013e0c:	03e00008 	jr	ra
9d013e10:	00001025 	move	v0,zero

Disassembly of section .text.__dummy:

9d013e14 <__dummy>:
9d013e14:	03e00008 	jr	ra
9d013e18:	00000000 	nop

9d013e1c <__stdio_exit_ofl>:
9d013e1c:	03e00008 	jr	ra
9d013e20:	00000000 	nop

Disassembly of section .text.__dummy1:

9d013e24 <__dummy1>:
9d013e24:	03e00008 	jr	ra
9d013e28:	00001025 	move	v0,zero

Disassembly of section .text.__dummy:

9d013e2c <__dummy>:
9d013e2c:	03e00008 	jr	ra
9d013e30:	00000000 	nop

9d013e34 <__dummy>:
9d013e34:	03e00008 	jr	ra
9d013e38:	00001025 	move	v0,zero

Disassembly of section .text.__dummy:

9d013e3c <__dummy>:
9d013e3c:	03e00008 	jr	ra
9d013e40:	00001025 	move	v0,zero

9d013e44 <__init_stderr>:
9d013e44:	03e00008 	jr	ra
9d013e48:	00000000 	nop

Disassembly of section .text.lseek:

9d013e4c <lseek>:
9d013e4c:	03e00008 	jr	ra
9d013e50:	00001025 	move	v0,zero

Disassembly of section .text.close:

9d013e54 <close>:
9d013e54:	03e00008 	jr	ra
9d013e58:	00001025 	move	v0,zero

Disassembly of section .text.getpagesize:

9d013e5c <getpagesize>:
9d013e5c:	03e00008 	jr	ra
9d013e60:	24020080 	li	v0,128
