
out.elf:     file format elf32-tradlittlemips


Disassembly of section .reset:

bd007000 <_reset>:
bd007000:	0f401c02 	jal	bd007008 <_startup>
bd007004:	00000000 	nop

bd007008 <_startup>:
bd007008:	401a6000 	mfc0	k0,c0_status
bd00700c:	7f5a04c0 	ext	k0,k0,0x13,0x1
bd007010:	13400005 	beqz	k0,bd007028 <_no_nmi>
bd007014:	00000000 	nop
bd007018:	3c1a9d01 	lui	k0,0x9d01
bd00701c:	275af590 	addiu	k0,k0,-2672
bd007020:	03400008 	jr	k0
bd007024:	00000000 	nop

bd007028 <_no_nmi>:
bd007028:	3c1da001 	lui	sp,0xa001
bd00702c:	27bdfff8 	addiu	sp,sp,-8
bd007030:	3c1ca000 	lui	gp,0xa000
bd007034:	279c7ff0 	addiu	gp,gp,32752
bd007038:	3c089d01 	lui	t0,0x9d01
bd00703c:	2508f604 	addiu	t0,t0,-2556
bd007040:	0100f809 	jalr	t0
bd007044:	00000000 	nop
bd007048:	3c089d01 	lui	t0,0x9d01
bd00704c:	2508e3f0 	addiu	t0,t0,-7184
bd007050:	0100f809 	jalr	t0
bd007054:	00000000 	nop
bd007058:	3c090000 	lui	t1,0x0
bd00705c:	25290000 	addiu	t1,t1,0
bd007060:	11200010 	beqz	t1,bd0070a4 <_ramfunc_done>
bd007064:	00000000 	nop
bd007068:	3c090001 	lui	t1,0x1
bd00706c:	25290000 	addiu	t1,t1,0
bd007070:	3c0abf88 	lui	t2,0xbf88
bd007074:	254a2010 	addiu	t2,t2,8208
bd007078:	ad490000 	sw	t1,0(t2)
bd00707c:	3c090001 	lui	t1,0x1
bd007080:	25290000 	addiu	t1,t1,0
bd007084:	3c0abf88 	lui	t2,0xbf88
bd007088:	254a2020 	addiu	t2,t2,8224
bd00708c:	ad490000 	sw	t1,0(t2)
bd007090:	3c090001 	lui	t1,0x1
bd007094:	25290000 	addiu	t1,t1,0
bd007098:	3c0abf88 	lui	t2,0xbf88
bd00709c:	254a2030 	addiu	t2,t2,8240
bd0070a0:	ad490000 	sw	t1,0(t2)

bd0070a4 <_ramfunc_done>:
bd0070a4:	40804800 	mtc0	zero,c0_count
bd0070a8:	240affff 	li	t2,-1
bd0070ac:	408a5800 	mtc0	t2,c0_compare
bd0070b0:	3c080040 	lui	t0,0x40
bd0070b4:	400a6000 	mfc0	t2,c0_status
bd0070b8:	010a5025 	or	t2,t0,t2
bd0070bc:	408a6000 	mtc0	t2,c0_status
bd0070c0:	3c099d00 	lui	t1,0x9d00
bd0070c4:	25296000 	addiu	t1,t1,24576
bd0070c8:	000000c0 	ehb
bd0070cc:	40897801 	mtc0	t1,c0_ebase
bd0070d0:	3c090000 	lui	t1,0x0
bd0070d4:	25290001 	addiu	t1,t1,1
bd0070d8:	240a0000 	li	t2,0
bd0070dc:	7d2a4944 	ins	t2,t1,0x5,0x5
bd0070e0:	408a6001 	mtc0	t2,c0_intctl
bd0070e4:	3c090080 	lui	t1,0x80
bd0070e8:	40896800 	mtc0	t1,c0_cause
bd0070ec:	40088000 	mfc0	t0,c0_config
bd0070f0:	7d090580 	ext	t1,t0,0x16,0x1
bd0070f4:	00094c40 	sll	t1,t1,0x11
bd0070f8:	40086000 	mfc0	t0,c0_status
bd0070fc:	3c010058 	lui	at,0x58
bd007100:	01014024 	and	t0,t0,at
bd007104:	01284025 	or	t0,t1,t0
bd007108:	40886000 	mtc0	t0,c0_status
bd00710c:	000000c0 	ehb
bd007110:	3c089d01 	lui	t0,0x9d01
bd007114:	2508f60c 	addiu	t0,t0,-2548
bd007118:	0100f809 	jalr	t0
bd00711c:	00000000 	nop
bd007120:	40086000 	mfc0	t0,c0_status
bd007124:	3c01ffbf 	lui	at,0xffbf
bd007128:	3421ffff 	ori	at,at,0xffff
bd00712c:	01014024 	and	t0,t0,at
bd007130:	40886000 	mtc0	t0,c0_status
bd007134:	30840000 	andi	a0,a0,0x0
bd007138:	30a50000 	andi	a1,a1,0x0
bd00713c:	3c089d01 	lui	t0,0x9d01
bd007140:	2508eab8 	addiu	t0,t0,-5448
bd007144:	01000008 	jr	t0
bd007148:	00000000 	nop

Disassembly of section .bev_excpt:

bfc07380 <_bev_exception>:
bfc07380:	3c1a9d01 	lui	k0,0x9d01
bfc07384:	275aebfc 	addiu	k0,k0,-5124
bfc07388:	03400008 	jr	k0
bfc0738c:	00000000 	nop

Disassembly of section .app_excpt:

9d006180 <_gen_exception>:
9d006180:	3c1a9d01 	lui	k0,0x9d01
9d006184:	275ad43c 	addiu	k0,k0,-11204
9d006188:	03400008 	jr	k0
9d00618c:	00000000 	nop

Disassembly of section .vector_0:

9d006200 <__vector_dispatch_0>:
9d006200:	0b403b23 	j	9d00ec8c <_DefaultInterrupt>
9d006204:	00000000 	nop

Disassembly of section .vector_1:

9d006220 <__vector_dispatch_1>:
9d006220:	0b403b23 	j	9d00ec8c <_DefaultInterrupt>
9d006224:	00000000 	nop

Disassembly of section .vector_2:

9d006240 <__vector_dispatch_2>:
9d006240:	0b403b23 	j	9d00ec8c <_DefaultInterrupt>
9d006244:	00000000 	nop

Disassembly of section .vector_3:

9d006260 <__vector_dispatch_3>:
9d006260:	0b403b23 	j	9d00ec8c <_DefaultInterrupt>
9d006264:	00000000 	nop

Disassembly of section .vector_4:

9d006280 <__vector_dispatch_4>:
9d006280:	0b403b23 	j	9d00ec8c <_DefaultInterrupt>
9d006284:	00000000 	nop

Disassembly of section .vector_5:

9d0062a0 <__vector_dispatch_5>:
9d0062a0:	0b403b23 	j	9d00ec8c <_DefaultInterrupt>
9d0062a4:	00000000 	nop

Disassembly of section .vector_6:

9d0062c0 <__vector_dispatch_6>:
9d0062c0:	0b403b23 	j	9d00ec8c <_DefaultInterrupt>
9d0062c4:	00000000 	nop

Disassembly of section .vector_7:

9d0062e0 <__vector_dispatch_7>:
9d0062e0:	0b403b23 	j	9d00ec8c <_DefaultInterrupt>
9d0062e4:	00000000 	nop

Disassembly of section .vector_8:

9d006300 <__vector_dispatch_8>:
9d006300:	0b402525 	j	9d009494 <Controller>
9d006304:	00000000 	nop

Disassembly of section .vector_9:

9d006320 <__vector_dispatch_9>:
9d006320:	0b403b23 	j	9d00ec8c <_DefaultInterrupt>
9d006324:	00000000 	nop

Disassembly of section .vector_10:

9d006340 <__vector_dispatch_10>:
9d006340:	0b403b23 	j	9d00ec8c <_DefaultInterrupt>
9d006344:	00000000 	nop

Disassembly of section .vector_11:

9d006360 <__vector_dispatch_11>:
9d006360:	0b403b23 	j	9d00ec8c <_DefaultInterrupt>
9d006364:	00000000 	nop

Disassembly of section .vector_12:

9d006380 <__vector_dispatch_12>:
9d006380:	0b403b23 	j	9d00ec8c <_DefaultInterrupt>
9d006384:	00000000 	nop

Disassembly of section .vector_13:

9d0063a0 <__vector_dispatch_13>:
9d0063a0:	0b403b23 	j	9d00ec8c <_DefaultInterrupt>
9d0063a4:	00000000 	nop

Disassembly of section .vector_14:

9d0063c0 <__vector_dispatch_14>:
9d0063c0:	0b403b23 	j	9d00ec8c <_DefaultInterrupt>
9d0063c4:	00000000 	nop

Disassembly of section .vector_15:

9d0063e0 <__vector_dispatch_15>:
9d0063e0:	0b403b23 	j	9d00ec8c <_DefaultInterrupt>
9d0063e4:	00000000 	nop

Disassembly of section .vector_16:

9d006400 <__vector_dispatch_16>:
9d006400:	0b403b23 	j	9d00ec8c <_DefaultInterrupt>
9d006404:	00000000 	nop

Disassembly of section .vector_17:

9d006420 <__vector_dispatch_17>:
9d006420:	0b403b23 	j	9d00ec8c <_DefaultInterrupt>
9d006424:	00000000 	nop

Disassembly of section .vector_18:

9d006440 <__vector_dispatch_18>:
9d006440:	0b403b23 	j	9d00ec8c <_DefaultInterrupt>
9d006444:	00000000 	nop

Disassembly of section .vector_19:

9d006460 <__vector_dispatch_19>:
9d006460:	0b403b23 	j	9d00ec8c <_DefaultInterrupt>
9d006464:	00000000 	nop

Disassembly of section .vector_20:

9d006480 <__vector_dispatch_20>:
9d006480:	0b403b23 	j	9d00ec8c <_DefaultInterrupt>
9d006484:	00000000 	nop

Disassembly of section .vector_21:

9d0064a0 <__vector_dispatch_21>:
9d0064a0:	0b403b23 	j	9d00ec8c <_DefaultInterrupt>
9d0064a4:	00000000 	nop

Disassembly of section .vector_22:

9d0064c0 <__vector_dispatch_22>:
9d0064c0:	0b403b23 	j	9d00ec8c <_DefaultInterrupt>
9d0064c4:	00000000 	nop

Disassembly of section .vector_23:

9d0064e0 <__vector_dispatch_23>:
9d0064e0:	0b403b23 	j	9d00ec8c <_DefaultInterrupt>
9d0064e4:	00000000 	nop

Disassembly of section .vector_24:

9d006500 <__vector_dispatch_24>:
9d006500:	0b403b23 	j	9d00ec8c <_DefaultInterrupt>
9d006504:	00000000 	nop

Disassembly of section .vector_25:

9d006520 <__vector_dispatch_25>:
9d006520:	0b403b23 	j	9d00ec8c <_DefaultInterrupt>
9d006524:	00000000 	nop

Disassembly of section .vector_26:

9d006540 <__vector_dispatch_26>:
9d006540:	0b403b23 	j	9d00ec8c <_DefaultInterrupt>
9d006544:	00000000 	nop

Disassembly of section .vector_27:

9d006560 <__vector_dispatch_27>:
9d006560:	0b403b23 	j	9d00ec8c <_DefaultInterrupt>
9d006564:	00000000 	nop

Disassembly of section .vector_28:

9d006580 <__vector_dispatch_28>:
9d006580:	0b403b23 	j	9d00ec8c <_DefaultInterrupt>
9d006584:	00000000 	nop

Disassembly of section .vector_29:

9d0065a0 <__vector_dispatch_29>:
9d0065a0:	0b403b23 	j	9d00ec8c <_DefaultInterrupt>
9d0065a4:	00000000 	nop

Disassembly of section .vector_30:

9d0065c0 <__vector_dispatch_30>:
9d0065c0:	0b403b23 	j	9d00ec8c <_DefaultInterrupt>
9d0065c4:	00000000 	nop

Disassembly of section .vector_31:

9d0065e0 <__vector_dispatch_31>:
9d0065e0:	0b403b23 	j	9d00ec8c <_DefaultInterrupt>
9d0065e4:	00000000 	nop

Disassembly of section .vector_32:

9d006600 <__vector_dispatch_32>:
9d006600:	0b403b23 	j	9d00ec8c <_DefaultInterrupt>
9d006604:	00000000 	nop

Disassembly of section .vector_33:

9d006620 <__vector_dispatch_33>:
9d006620:	0b403b23 	j	9d00ec8c <_DefaultInterrupt>
9d006624:	00000000 	nop

Disassembly of section .vector_34:

9d006640 <__vector_dispatch_34>:
9d006640:	0b403b23 	j	9d00ec8c <_DefaultInterrupt>
9d006644:	00000000 	nop

Disassembly of section .vector_35:

9d006660 <__vector_dispatch_35>:
9d006660:	0b403b23 	j	9d00ec8c <_DefaultInterrupt>
9d006664:	00000000 	nop

Disassembly of section .vector_36:

9d006680 <__vector_dispatch_36>:
9d006680:	0b403b23 	j	9d00ec8c <_DefaultInterrupt>
9d006684:	00000000 	nop

Disassembly of section .vector_37:

9d0066a0 <__vector_dispatch_37>:
9d0066a0:	0b402d16 	j	9d00b458 <U2ISR>
9d0066a4:	00000000 	nop

Disassembly of section .vector_38:

9d0066c0 <__vector_dispatch_38>:
9d0066c0:	0b403b23 	j	9d00ec8c <_DefaultInterrupt>
9d0066c4:	00000000 	nop

Disassembly of section .vector_39:

9d0066e0 <__vector_dispatch_39>:
9d0066e0:	0b403b23 	j	9d00ec8c <_DefaultInterrupt>
9d0066e4:	00000000 	nop

Disassembly of section .vector_40:

9d006700 <__vector_dispatch_40>:
9d006700:	0b403b23 	j	9d00ec8c <_DefaultInterrupt>
9d006704:	00000000 	nop

Disassembly of section .vector_41:

9d006720 <__vector_dispatch_41>:
9d006720:	0b403b23 	j	9d00ec8c <_DefaultInterrupt>
9d006724:	00000000 	nop

Disassembly of section .vector_42:

9d006740 <__vector_dispatch_42>:
9d006740:	0b403b23 	j	9d00ec8c <_DefaultInterrupt>
9d006744:	00000000 	nop

Disassembly of section .vector_43:

9d006760 <__vector_dispatch_43>:
9d006760:	0b403b23 	j	9d00ec8c <_DefaultInterrupt>
9d006764:	00000000 	nop

Disassembly of section .rodata:

9d007490 <.rodata>:
9d007490:	00006425 	0x6425
9d007494:	32433249 	andi	v1,s2,0x3249
9d007498:	73614d20 	0x73614d20
9d00749c:	3a726574 	xori	s2,s3,0x6574
9d0074a0:	69616620 	0x69616620
9d0074a4:	2064656c 	addi	a0,v1,25964
9d0074a8:	72206f74 	0x72206f74
9d0074ac:	69656365 	0x69656365
9d0074b0:	41206576 	0x41206576
9d0074b4:	0a0d4b43 	j	98352d0c <_bmxdudba_address+0x98342d0c>
9d0074b8:	00000000 	nop
	...
9d0074c4:	40080000 	mfc0	t0,c0_index
9d0074c8:	4e4b4e55 	c3	0x4b4e55
9d0074cc:	004e574f 	0x4e574f
9d0074d0:	454c4449 	bc1any4f	$fcc3,9d0185f8 <getpagesize+0x8f74>
9d0074d4:	0c000000 	jal	90000000 <_bmxdudba_address+0x8fff0000>
9d0074d8:	53455449 	beql	k0,a1,9d01c600 <getpagesize+0xcf7c>
9d0074dc:	0c000054 	jal	90000150 <_bmxdudba_address+0x8fff0150>
9d0074e0:	444c4f48 	0x444c4f48
9d0074e4:	0c000000 	jal	90000000 <_bmxdudba_address+0x8fff0000>
9d0074e8:	43415254 	c0	0x1415254
9d0074ec:	0c00004b 	jal	9000012c <_bmxdudba_address+0x8fff012c>
9d0074f0:	004d5750 	0x4d5750
9d0074f4:	0a0d6625 	j	98359894 <_bmxdudba_address+0x98349894>
9d0074f8:	00000000 	nop
9d0074fc:	00000061 	0x61
9d007500:	0a0d6425 	j	98359094 <_bmxdudba_address+0x98349094>
9d007504:	00000000 	nop
9d007508:	00000062 	0x62
9d00750c:	00006425 	0x6425
9d007510:	0a0d7325 	j	9835cc94 <_bmxdudba_address+0x9834cc94>
9d007514:	00000000 	nop
9d007518:	3e89f6cd 	0x3e89f6cd
9d00751c:	00464e49 	0x464e49
9d007520:	00666e69 	0x666e69
9d007524:	004e414e 	0x4e414e
9d007528:	006e616e 	0x6e616e
	...
9d007534:	3ff00000 	0x3ff00000
9d007538:	00000000 	nop
9d00753c:	40240000 	0x40240000
9d007540:	00000000 	nop
9d007544:	43500000 	c0	0x1500000
9d007548:	00000000 	nop
9d00754c:	40140000 	mfc0	s4,c0_index
9d007550:	6c696e28 	0x6c696e28
9d007554:	00000029 	0x29
9d007558:	00000025 	move	zero,zero
	...
9d007564:	43e00000 	c0	0x1e00000
9d007568:	00000000 	nop
9d00756c:	c3e00000 	ll	zero,0(ra)
9d007570:	f0000000 	0xf0000000
9d007574:	341fffff 	li	ra,0xffff
9d007578:	00000000 	nop
9d00757c:	07f00000 	bltzal	ra,9d007580 <__vector_dispatch_43+0xe20>
9d007580:	00000000 	nop
9d007584:	7fe00000 	ext	zero,ra,0x0,0x1
9d007588:	00000000 	nop
9d00758c:	03600000 	0x3600000
9d007590:	00000000 	nop
9d007594:	41f00000 	0x41f00000
9d007598:	00000000 	nop
9d00759c:	41f00000 	0x41f00000

Disassembly of section ._debug_exception:

bfc00480 <__DbgExecReturn>:
bfc00480:	409bf800 	mtc0	k1,c0_desave
bfc00484:	000000c0 	ehb
bfc00488:	3c1b9d01 	lui	k1,0x9d01
bfc0048c:	277bed64 	addiu	k1,k1,-4764
bfc00490:	13600002 	beqz	k1,bfc0049c <__DbgExecReturn+0x1c>
bfc00494:	00000000 	nop
bfc00498:	409bc000 	mtc0	k1,c0_depc
bfc0049c:	401bf800 	mfc0	k1,c0_desave
bfc004a0:	000000c0 	ehb
bfc004a4:	4200001f 	deret
bfc004a8:	00000000 	nop

Disassembly of section .text.__fmt_fp:

9d0075a0 <__fmt_fp>:
9d0075a0:	27bdff78 	addiu	sp,sp,-136
9d0075a4:	afa70094 	sw	a3,148(sp)
9d0075a8:	8ca20000 	lw	v0,0(a1)
9d0075ac:	afb3006c 	sw	s3,108(sp)
9d0075b0:	8cd30004 	lw	s3,4(a2)
9d0075b4:	afa2001c 	sw	v0,28(sp)
9d0075b8:	8ca20008 	lw	v0,8(a1)
9d0075bc:	afb10064 	sw	s1,100(sp)
9d0075c0:	afb00060 	sw	s0,96(sp)
9d0075c4:	afa20020 	sw	v0,32(sp)
9d0075c8:	8ca20010 	lw	v0,16(a1)
9d0075cc:	afa40088 	sw	a0,136(sp)
9d0075d0:	afa5008c 	sw	a1,140(sp)
9d0075d4:	afa20034 	sw	v0,52(sp)
9d0075d8:	8cc20000 	lw	v0,0(a2)
9d0075dc:	8cb10004 	lw	s1,4(a1)
9d0075e0:	8cb0000c 	lw	s0,12(a1)
9d0075e4:	afa20018 	sw	v0,24(sp)
9d0075e8:	8fa30018 	lw	v1,24(sp)
9d0075ec:	00003025 	move	a2,zero
9d0075f0:	00003825 	move	a3,zero
9d0075f4:	00602025 	move	a0,v1
9d0075f8:	02602825 	move	a1,s3
9d0075fc:	afbf0084 	sw	ra,132(sp)
9d007600:	afbe0080 	sw	s8,128(sp)
9d007604:	afb7007c 	sw	s7,124(sp)
9d007608:	afb60078 	sw	s6,120(sp)
9d00760c:	afb50074 	sw	s5,116(sp)
9d007610:	afb40070 	sw	s4,112(sp)
9d007614:	0f4032ff 	jal	9d00cbfc <dpcmplt>
9d007618:	afb20068 	sw	s2,104(sp)
9d00761c:	0440000d 	bltz	v0,9d007654 <__fmt_fp+0xb4>
9d007620:	3c028000 	lui	v0,0x8000
9d007624:	8fa2001c 	lw	v0,28(sp)
9d007628:	30420004 	andi	v0,v0,0x4
9d00762c:	14400037 	bnez	v0,9d00770c <__fmt_fp+0x16c>
9d007630:	8fb20020 	lw	s2,32(sp)
9d007634:	8fa2001c 	lw	v0,28(sp)
9d007638:	30420008 	andi	v0,v0,0x8
9d00763c:	1040000c 	beqz	v0,9d007670 <__fmt_fp+0xd0>
9d007640:	afa20024 	sw	v0,36(sp)
9d007644:	24020020 	li	v0,32
9d007648:	a2020000 	sb	v0,0(s0)
9d00764c:	10000006 	b	9d007668 <__fmt_fp+0xc8>
9d007650:	2652ffff 	addiu	s2,s2,-1
9d007654:	00539826 	xor	s3,v0,s3
9d007658:	2402002d 	li	v0,45
9d00765c:	a2020000 	sb	v0,0(s0)
9d007660:	8fa20020 	lw	v0,32(sp)
9d007664:	2452ffff 	addiu	s2,v0,-1
9d007668:	24020001 	li	v0,1
9d00766c:	afa20024 	sw	v0,36(sp)
9d007670:	8fa30024 	lw	v1,36(sp)
9d007674:	02031821 	addu	v1,s0,v1
9d007678:	afa3002c 	sw	v1,44(sp)
9d00767c:	8fa30018 	lw	v1,24(sp)
9d007680:	14600026 	bnez	v1,9d00771c <__fmt_fp+0x17c>
9d007684:	7e62f000 	ext	v0,s3,0x0,0x1f
9d007688:	3c037ff0 	lui	v1,0x7ff0
9d00768c:	14430024 	bne	v0,v1,9d007720 <__fmt_fp+0x180>
9d007690:	3c047ff0 	lui	a0,0x7ff0
9d007694:	8fa20094 	lw	v0,148(sp)
9d007698:	2442ffbf 	addiu	v0,v0,-65
9d00769c:	2c42001a 	sltiu	v0,v0,26
9d0076a0:	1040001c 	beqz	v0,9d007714 <__fmt_fp+0x174>
9d0076a4:	3c059d00 	lui	a1,0x9d00
9d0076a8:	3c059d00 	lui	a1,0x9d00
9d0076ac:	24a5751c 	addiu	a1,a1,29980
9d0076b0:	0f403cc9 	jal	9d00f324 <strcpy>
9d0076b4:	8fa4002c 	lw	a0,44(sp)
9d0076b8:	0f403c32 	jal	9d00f0c8 <strlen>
9d0076bc:	02002025 	move	a0,s0
9d0076c0:	8fa3001c 	lw	v1,28(sp)
9d0076c4:	8fa70020 	lw	a3,32(sp)
9d0076c8:	8fa40088 	lw	a0,136(sp)
9d0076cc:	afa30010 	sw	v1,16(sp)
9d0076d0:	02002825 	move	a1,s0
9d0076d4:	0f40341a 	jal	9d00d068 <__pad>
9d0076d8:	00403025 	move	a2,v0
9d0076dc:	8fbf0084 	lw	ra,132(sp)
9d0076e0:	8fbe0080 	lw	s8,128(sp)
9d0076e4:	8fb7007c 	lw	s7,124(sp)
9d0076e8:	8fb60078 	lw	s6,120(sp)
9d0076ec:	8fb50074 	lw	s5,116(sp)
9d0076f0:	8fb40070 	lw	s4,112(sp)
9d0076f4:	8fb3006c 	lw	s3,108(sp)
9d0076f8:	8fb20068 	lw	s2,104(sp)
9d0076fc:	8fb10064 	lw	s1,100(sp)
9d007700:	8fb00060 	lw	s0,96(sp)
9d007704:	03e00008 	jr	ra
9d007708:	27bd0088 	addiu	sp,sp,136
9d00770c:	1000ffd3 	b	9d00765c <__fmt_fp+0xbc>
9d007710:	2402002b 	li	v0,43
9d007714:	1000ffe6 	b	9d0076b0 <__fmt_fp+0x110>
9d007718:	24a57520 	addiu	a1,a1,29984
9d00771c:	3c047ff0 	lui	a0,0x7ff0
9d007720:	24830001 	addiu	v1,a0,1
9d007724:	0043182b 	sltu	v1,v0,v1
9d007728:	50600005 	beqzl	v1,9d007740 <__fmt_fp+0x1a0>
9d00772c:	8fa20094 	lw	v0,148(sp)
9d007730:	1444000c 	bne	v0,a0,9d007764 <__fmt_fp+0x1c4>
9d007734:	8fa20018 	lw	v0,24(sp)
9d007738:	1040000a 	beqz	v0,9d007764 <__fmt_fp+0x1c4>
9d00773c:	8fa20094 	lw	v0,148(sp)
9d007740:	2442ffbf 	addiu	v0,v0,-65
9d007744:	2c42001a 	sltiu	v0,v0,26
9d007748:	50400004 	beqzl	v0,9d00775c <__fmt_fp+0x1bc>
9d00774c:	3c059d00 	lui	a1,0x9d00
9d007750:	3c059d00 	lui	a1,0x9d00
9d007754:	1000ffd6 	b	9d0076b0 <__fmt_fp+0x110>
9d007758:	24a57524 	addiu	a1,a1,29988
9d00775c:	1000ffd4 	b	9d0076b0 <__fmt_fp+0x110>
9d007760:	24a57528 	addiu	a1,a1,29992
9d007764:	8fa30018 	lw	v1,24(sp)
9d007768:	00003025 	move	a2,zero
9d00776c:	00003825 	move	a3,zero
9d007770:	00602025 	move	a0,v1
9d007774:	0f4032b4 	jal	9d00cad0 <__eqdf2>
9d007778:	02602825 	move	a1,s3
9d00777c:	3c179d00 	lui	s7,0x9d00
9d007780:	3c039d00 	lui	v1,0x9d00
9d007784:	afa30030 	sw	v1,48(sp)
9d007788:	8ef57530 	lw	s5,30000(s7)
9d00778c:	8ef67534 	lw	s6,30004(s7)
9d007790:	14400013 	bnez	v0,9d0077e0 <__fmt_fp+0x240>
9d007794:	0000a025 	move	s4,zero
9d007798:	0f403d26 	jal	9d00f498 <tolower>
9d00779c:	8fa40094 	lw	a0,148(sp)
9d0077a0:	7c021420 	seb	v0,v0
9d0077a4:	afa20028 	sw	v0,40(sp)
9d0077a8:	8fa30028 	lw	v1,40(sp)
9d0077ac:	062001a5 	bltz	s1,9d007e44 <__fmt_fp+0x8a4>
9d0077b0:	24020067 	li	v0,103
9d0077b4:	14620057 	bne	v1,v0,9d007914 <__fmt_fp+0x374>
9d0077b8:	8fa90028 	lw	t1,40(sp)
9d0077bc:	52200001 	beqzl	s1,9d0077c4 <__fmt_fp+0x224>
9d0077c0:	24110001 	li	s1,1
9d0077c4:	2a82fffc 	slti	v0,s4,-4
9d0077c8:	14400003 	bnez	v0,9d0077d8 <__fmt_fp+0x238>
9d0077cc:	0291102a 	slt	v0,s4,s1
9d0077d0:	14400196 	bnez	v0,9d007e2c <__fmt_fp+0x88c>
9d0077d4:	00000000 	nop
9d0077d8:	1000005a 	b	9d007944 <__fmt_fp+0x3a4>
9d0077dc:	24090065 	li	t1,101
9d0077e0:	3c029d00 	lui	v0,0x9d00
9d0077e4:	8c4a7538 	lw	t2,30008(v0)
9d0077e8:	8c4b753c 	lw	t3,30012(v0)
9d0077ec:	01403025 	move	a2,t2
9d0077f0:	01603825 	move	a3,t3
9d0077f4:	02a02025 	move	a0,s5
9d0077f8:	02c02825 	move	a1,s6
9d0077fc:	afaa0038 	sw	t2,56(sp)
9d007800:	0f402c42 	jal	9d00b108 <__muldf3>
9d007804:	afab003c 	sw	t3,60(sp)
9d007808:	8fa40018 	lw	a0,24(sp)
9d00780c:	02603825 	move	a3,s3
9d007810:	00602825 	move	a1,v1
9d007814:	00803025 	move	a2,a0
9d007818:	00402025 	move	a0,v0
9d00781c:	0040f025 	move	s8,v0
9d007820:	0f4032b4 	jal	9d00cad0 <__eqdf2>
9d007824:	afa30028 	sw	v1,40(sp)
9d007828:	1c40002d 	bgtz	v0,9d0078e0 <__fmt_fp+0x340>
9d00782c:	8fa30028 	lw	v1,40(sp)
9d007830:	8faa0038 	lw	t2,56(sp)
9d007834:	8fab003c 	lw	t3,60(sp)
9d007838:	26940001 	addiu	s4,s4,1
9d00783c:	03c0a825 	move	s5,s8
9d007840:	1000ffea 	b	9d0077ec <__fmt_fp+0x24c>
9d007844:	0060b025 	move	s6,v1
9d007848:	10400013 	beqz	v0,9d007898 <__fmt_fp+0x2f8>
9d00784c:	8fa20028 	lw	v0,40(sp)
9d007850:	14400011 	bnez	v0,9d007898 <__fmt_fp+0x2f8>
9d007854:	8fa30018 	lw	v1,24(sp)
9d007858:	8fa60038 	lw	a2,56(sp)
9d00785c:	02602825 	move	a1,s3
9d007860:	03c03825 	move	a3,s8
9d007864:	0f402c42 	jal	9d00b108 <__muldf3>
9d007868:	00602025 	move	a0,v1
9d00786c:	8fa60048 	lw	a2,72(sp)
9d007870:	8fa70050 	lw	a3,80(sp)
9d007874:	02a02025 	move	a0,s5
9d007878:	02c02825 	move	a1,s6
9d00787c:	afa20018 	sw	v0,24(sp)
9d007880:	0f402c42 	jal	9d00b108 <__muldf3>
9d007884:	00609825 	move	s3,v1
9d007888:	0040a825 	move	s5,v0
9d00788c:	24020001 	li	v0,1
9d007890:	0060b025 	move	s6,v1
9d007894:	afa20028 	sw	v0,40(sp)
9d007898:	8fa60040 	lw	a2,64(sp)
9d00789c:	8fa70044 	lw	a3,68(sp)
9d0078a0:	02a02025 	move	a0,s5
9d0078a4:	0f40282b 	jal	9d00a0ac <__divdf3>
9d0078a8:	02c02825 	move	a1,s6
9d0078ac:	0040a825 	move	s5,v0
9d0078b0:	0060b025 	move	s6,v1
9d0078b4:	2694ffff 	addiu	s4,s4,-1
9d0078b8:	8fa30018 	lw	v1,24(sp)
9d0078bc:	02a03025 	move	a2,s5
9d0078c0:	02c03825 	move	a3,s6
9d0078c4:	00602025 	move	a0,v1
9d0078c8:	0f4032ff 	jal	9d00cbfc <dpcmplt>
9d0078cc:	02602825 	move	a1,s3
9d0078d0:	0442ffdd 	bltzl	v0,9d007848 <__fmt_fp+0x2a8>
9d0078d4:	2a82fed4 	slti	v0,s4,-300
9d0078d8:	1000ffaf 	b	9d007798 <__fmt_fp+0x1f8>
9d0078dc:	00000000 	nop
9d0078e0:	3c029d00 	lui	v0,0x9d00
9d0078e4:	8c437540 	lw	v1,30016(v0)
9d0078e8:	8c5e7544 	lw	s8,30020(v0)
9d0078ec:	8fa20030 	lw	v0,48(sp)
9d0078f0:	afa30038 	sw	v1,56(sp)
9d0078f4:	afa30048 	sw	v1,72(sp)
9d0078f8:	8c43753c 	lw	v1,30012(v0)
9d0078fc:	8c427538 	lw	v0,30008(v0)
9d007900:	afa00028 	sw	zero,40(sp)
9d007904:	afbe0050 	sw	s8,80(sp)
9d007908:	afa20040 	sw	v0,64(sp)
9d00790c:	1000ffea 	b	9d0078b8 <__fmt_fp+0x318>
9d007910:	afa30044 	sw	v1,68(sp)
9d007914:	24020066 	li	v0,102
9d007918:	1522000a 	bne	t1,v0,9d007944 <__fmt_fp+0x3a4>
9d00791c:	26310001 	addiu	s1,s1,1
9d007920:	06810004 	bgez	s4,9d007934 <__fmt_fp+0x394>
9d007924:	8fa30028 	lw	v1,40(sp)
9d007928:	8ef57530 	lw	s5,30000(s7)
9d00792c:	8ef67534 	lw	s6,30004(s7)
9d007930:	0000a025 	move	s4,zero
9d007934:	24020067 	li	v0,103
9d007938:	10620002 	beq	v1,v0,9d007944 <__fmt_fp+0x3a4>
9d00793c:	24090066 	li	t1,102
9d007940:	02348821 	addu	s1,s1,s4
9d007944:	8fac0018 	lw	t4,24(sp)
9d007948:	02a05825 	move	t3,s5
9d00794c:	02c05025 	move	t2,s6
9d007950:	0260b825 	move	s7,s3
9d007954:	00007025 	move	t6,zero
9d007958:	01603025 	move	a2,t3
9d00795c:	01403825 	move	a3,t2
9d007960:	01802025 	move	a0,t4
9d007964:	02e02825 	move	a1,s7
9d007968:	afa9005c 	sw	t1,92(sp)
9d00796c:	afae0058 	sw	t6,88(sp)
9d007970:	afab0050 	sw	t3,80(sp)
9d007974:	afaa0054 	sw	t2,84(sp)
9d007978:	0f40282b 	jal	9d00a0ac <__divdf3>
9d00797c:	afac0048 	sw	t4,72(sp)
9d007980:	00402025 	move	a0,v0
9d007984:	0f4033d8 	jal	9d00cf60 <dpfloor>
9d007988:	00602825 	move	a1,v1
9d00798c:	00602825 	move	a1,v1
9d007990:	00402025 	move	a0,v0
9d007994:	afa30044 	sw	v1,68(sp)
9d007998:	0f403872 	jal	9d00e1c8 <__fixdfsi>
9d00799c:	afa20040 	sw	v0,64(sp)
9d0079a0:	8fac0040 	lw	t4,64(sp)
9d0079a4:	8faf0048 	lw	t7,72(sp)
9d0079a8:	8faa0054 	lw	t2,84(sp)
9d0079ac:	8fab0050 	lw	t3,80(sp)
9d0079b0:	8fad0044 	lw	t5,68(sp)
9d0079b4:	02e0f025 	move	s8,s7
9d0079b8:	3c178000 	lui	s7,0x8000
9d0079bc:	02fe2026 	xor	a0,s7,s8
9d0079c0:	01603025 	move	a2,t3
9d0079c4:	01403825 	move	a3,t2
9d0079c8:	01a02825 	move	a1,t5
9d0079cc:	afaf0010 	sw	t7,16(sp)
9d0079d0:	afa40014 	sw	a0,20(sp)
9d0079d4:	01802025 	move	a0,t4
9d0079d8:	afaa0048 	sw	t2,72(sp)
9d0079dc:	0f401f95 	jal	9d007e54 <fma>
9d0079e0:	afa20038 	sw	v0,56(sp)
9d0079e4:	afa20040 	sw	v0,64(sp)
9d0079e8:	0040f025 	move	s8,v0
9d0079ec:	8fa20030 	lw	v0,48(sp)
9d0079f0:	8fab0050 	lw	t3,80(sp)
9d0079f4:	8faa0048 	lw	t2,72(sp)
9d0079f8:	8c467538 	lw	a2,30008(v0)
9d0079fc:	8c47753c 	lw	a3,30012(v0)
9d007a00:	01602025 	move	a0,t3
9d007a04:	01402825 	move	a1,t2
9d007a08:	0f40282b 	jal	9d00a0ac <__divdf3>
9d007a0c:	02e3b826 	xor	s7,s7,v1
9d007a10:	8fae0058 	lw	t6,88(sp)
9d007a14:	00405825 	move	t3,v0
9d007a18:	00605025 	move	t2,v1
9d007a1c:	25ce0001 	addiu	t6,t6,1
9d007a20:	8fac0040 	lw	t4,64(sp)
9d007a24:	162effcc 	bne	s1,t6,9d007958 <__fmt_fp+0x3b8>
9d007a28:	8fa9005c 	lw	t1,92(sp)
9d007a2c:	3c029d00 	lui	v0,0x9d00
9d007a30:	8c467548 	lw	a2,30024(v0)
9d007a34:	8c47754c 	lw	a3,30028(v0)
9d007a38:	01602025 	move	a0,t3
9d007a3c:	00602825 	move	a1,v1
9d007a40:	0f402c42 	jal	9d00b108 <__muldf3>
9d007a44:	afa90048 	sw	t1,72(sp)
9d007a48:	00403025 	move	a2,v0
9d007a4c:	00603825 	move	a3,v1
9d007a50:	03c02025 	move	a0,s8
9d007a54:	02e02825 	move	a1,s7
9d007a58:	afa20040 	sw	v0,64(sp)
9d007a5c:	0f4032ff 	jal	9d00cbfc <dpcmplt>
9d007a60:	afa30044 	sw	v1,68(sp)
9d007a64:	04400010 	bltz	v0,9d007aa8 <__fmt_fp+0x508>
9d007a68:	8fa90048 	lw	t1,72(sp)
9d007a6c:	8faa0040 	lw	t2,64(sp)
9d007a70:	8fab0044 	lw	t3,68(sp)
9d007a74:	03c02025 	move	a0,s8
9d007a78:	01403025 	move	a2,t2
9d007a7c:	01603825 	move	a3,t3
9d007a80:	0f4032b4 	jal	9d00cad0 <__eqdf2>
9d007a84:	02e02825 	move	a1,s7
9d007a88:	8faa0040 	lw	t2,64(sp)
9d007a8c:	8fab0044 	lw	t3,68(sp)
9d007a90:	14400007 	bnez	v0,9d007ab0 <__fmt_fp+0x510>
9d007a94:	8fa90048 	lw	t1,72(sp)
9d007a98:	8fa20038 	lw	v0,56(sp)
9d007a9c:	30420001 	andi	v0,v0,0x1
9d007aa0:	14400004 	bnez	v0,9d007ab4 <__fmt_fp+0x514>
9d007aa4:	8fa30018 	lw	v1,24(sp)
9d007aa8:	00005025 	move	t2,zero
9d007aac:	00005825 	move	t3,zero
9d007ab0:	8fa30018 	lw	v1,24(sp)
9d007ab4:	01403025 	move	a2,t2
9d007ab8:	01603825 	move	a3,t3
9d007abc:	02602825 	move	a1,s3
9d007ac0:	00602025 	move	a0,v1
9d007ac4:	0f40295b 	jal	9d00a56c <__adddf3>
9d007ac8:	afa90048 	sw	t1,72(sp)
9d007acc:	0040f025 	move	s8,v0
9d007ad0:	afa20018 	sw	v0,24(sp)
9d007ad4:	8fa20030 	lw	v0,48(sp)
9d007ad8:	02a02025 	move	a0,s5
9d007adc:	02c02825 	move	a1,s6
9d007ae0:	8c467538 	lw	a2,30008(v0)
9d007ae4:	8c47753c 	lw	a3,30012(v0)
9d007ae8:	0060b825 	move	s7,v1
9d007aec:	0f402c42 	jal	9d00b108 <__muldf3>
9d007af0:	afa30038 	sw	v1,56(sp)
9d007af4:	00402025 	move	a0,v0
9d007af8:	03c03025 	move	a2,s8
9d007afc:	02e03825 	move	a3,s7
9d007b00:	00602825 	move	a1,v1
9d007b04:	00409825 	move	s3,v0
9d007b08:	0f4032ff 	jal	9d00cbfc <dpcmplt>
9d007b0c:	afa30040 	sw	v1,64(sp)
9d007b10:	1c400054 	bgtz	v0,9d007c64 <__fmt_fp+0x6c4>
9d007b14:	8fa90048 	lw	t1,72(sp)
9d007b18:	24020066 	li	v0,102
9d007b1c:	26940001 	addiu	s4,s4,1
9d007b20:	15220052 	bne	t1,v0,9d007c6c <__fmt_fp+0x6cc>
9d007b24:	8fab0040 	lw	t3,64(sp)
9d007b28:	26310001 	addiu	s1,s1,1
9d007b2c:	0280b025 	move	s6,s4
9d007b30:	8fb50024 	lw	s5,36(sp)
9d007b34:	02d11023 	subu	v0,s6,s1
9d007b38:	afa20040 	sw	v0,64(sp)
9d007b3c:	0000f025 	move	s8,zero
9d007b40:	00008825 	move	s1,zero
9d007b44:	8fa20040 	lw	v0,64(sp)
9d007b48:	10560007 	beq	v0,s6,9d007b68 <__fmt_fp+0x5c8>
9d007b4c:	02a0b825 	move	s7,s5
9d007b50:	8fa2008c 	lw	v0,140(sp)
9d007b54:	8c420010 	lw	v0,16(v0)
9d007b58:	2442fffb 	addiu	v0,v0,-5
9d007b5c:	02a2102b 	sltu	v0,s5,v0
9d007b60:	14400047 	bnez	v0,9d007c80 <__fmt_fp+0x6e0>
9d007b64:	8fa30018 	lw	v1,24(sp)
9d007b68:	16200007 	bnez	s1,9d007b88 <__fmt_fp+0x5e8>
9d007b6c:	8fa2001c 	lw	v0,28(sp)
9d007b70:	30420010 	andi	v0,v0,0x10
9d007b74:	10400004 	beqz	v0,9d007b88 <__fmt_fp+0x5e8>
9d007b78:	0217b821 	addu	s7,s0,s7
9d007b7c:	2402002e 	li	v0,46
9d007b80:	26b50001 	addiu	s5,s5,1
9d007b84:	a2e20000 	sb	v0,0(s7)
9d007b88:	02152021 	addu	a0,s0,s5
9d007b8c:	24020065 	li	v0,101
9d007b90:	15220022 	bne	t1,v0,9d007c1c <__fmt_fp+0x67c>
9d007b94:	a0800000 	sb	zero,0(a0)
9d007b98:	06810003 	bgez	s4,9d007ba8 <__fmt_fp+0x608>
9d007b9c:	00001825 	move	v1,zero
9d007ba0:	0014a023 	negu	s4,s4
9d007ba4:	24030001 	li	v1,1
9d007ba8:	8fa20034 	lw	v0,52(sp)
9d007bac:	264afffe 	addiu	t2,s2,-2
9d007bb0:	2407000a 	li	a3,10
9d007bb4:	2442ffff 	addiu	v0,v0,-1
9d007bb8:	02022821 	addu	a1,s0,v0
9d007bbc:	a0a00000 	sb	zero,0(a1)
9d007bc0:	24050002 	li	a1,2
9d007bc4:	16800088 	bnez	s4,9d007de8 <__fmt_fp+0x848>
9d007bc8:	01459021 	addu	s2,t2,a1
9d007bcc:	1ca00086 	bgtz	a1,9d007de8 <__fmt_fp+0x848>
9d007bd0:	2406002d 	li	a2,45
9d007bd4:	2405002b 	li	a1,43
9d007bd8:	00c3280b 	movn	a1,a2,v1
9d007bdc:	00a01825 	move	v1,a1
9d007be0:	02022821 	addu	a1,s0,v0
9d007be4:	a0a3ffff 	sb	v1,-1(a1)
9d007be8:	8fa30094 	lw	v1,148(sp)
9d007bec:	24050045 	li	a1,69
9d007bf0:	2442fffe 	addiu	v0,v0,-2
9d007bf4:	2463ffbf 	addiu	v1,v1,-65
9d007bf8:	2c63001a 	sltiu	v1,v1,26
9d007bfc:	00a3480b 	movn	t1,a1,v1
9d007c00:	02a2a82a 	slt	s5,s5,v0
9d007c04:	02022821 	addu	a1,s0,v0
9d007c08:	a0a90000 	sb	t1,0(a1)
9d007c0c:	12a00003 	beqz	s5,9d007c1c <__fmt_fp+0x67c>
9d007c10:	2652fffe 	addiu	s2,s2,-2
9d007c14:	0f403cc9 	jal	9d00f324 <strcpy>
9d007c18:	00000000 	nop
9d007c1c:	8fa2001c 	lw	v0,28(sp)
9d007c20:	24030002 	li	v1,2
9d007c24:	30420003 	andi	v0,v0,0x3
9d007c28:	1443fea3 	bne	v0,v1,9d0076b8 <__fmt_fp+0x118>
9d007c2c:	00000000 	nop
9d007c30:	1a40fea1 	blez	s2,9d0076b8 <__fmt_fp+0x118>
9d007c34:	00000000 	nop
9d007c38:	0f403c32 	jal	9d00f0c8 <strlen>
9d007c3c:	02002025 	move	a0,s0
9d007c40:	8fa30024 	lw	v1,36(sp)
9d007c44:	0043182a 	slt	v1,v0,v1
9d007c48:	10600071 	beqz	v1,9d007e10 <__fmt_fp+0x870>
9d007c4c:	02403025 	move	a2,s2
9d007c50:	8fa4002c 	lw	a0,44(sp)
9d007c54:	0f403cbf 	jal	9d00f2fc <memset>
9d007c58:	24050030 	li	a1,48
9d007c5c:	1000fe96 	b	9d0076b8 <__fmt_fp+0x118>
9d007c60:	afa00020 	sw	zero,32(sp)
9d007c64:	02a09825 	move	s3,s5
9d007c68:	02c05825 	move	t3,s6
9d007c6c:	39360065 	xori	s6,t1,0x65
9d007c70:	02801025 	move	v0,s4
9d007c74:	0016100a 	movz	v0,zero,s6
9d007c78:	1000ffad 	b	9d007b30 <__fmt_fp+0x590>
9d007c7c:	0040b025 	move	s6,v0
9d007c80:	8fa20038 	lw	v0,56(sp)
9d007c84:	01603825 	move	a3,t3
9d007c88:	02603025 	move	a2,s3
9d007c8c:	00602025 	move	a0,v1
9d007c90:	00402825 	move	a1,v0
9d007c94:	afa90054 	sw	t1,84(sp)
9d007c98:	0f40282b 	jal	9d00a0ac <__divdf3>
9d007c9c:	afab0050 	sw	t3,80(sp)
9d007ca0:	00402025 	move	a0,v0
9d007ca4:	0f4033d8 	jal	9d00cf60 <dpfloor>
9d007ca8:	00602825 	move	a1,v1
9d007cac:	00402025 	move	a0,v0
9d007cb0:	00602825 	move	a1,v1
9d007cb4:	afa3004c 	sw	v1,76(sp)
9d007cb8:	0f403872 	jal	9d00e1c8 <__fixdfsi>
9d007cbc:	afa20048 	sw	v0,72(sp)
9d007cc0:	2844000a 	slti	a0,v0,10
9d007cc4:	24030009 	li	v1,9
9d007cc8:	0064100a 	movz	v0,v1,a0
9d007ccc:	8fa3001c 	lw	v1,28(sp)
9d007cd0:	8fae0048 	lw	t6,72(sp)
9d007cd4:	8faf004c 	lw	t7,76(sp)
9d007cd8:	30630010 	andi	v1,v1,0x10
9d007cdc:	00621825 	or	v1,v1,v0
9d007ce0:	8fab0050 	lw	t3,80(sp)
9d007ce4:	1460000c 	bnez	v1,9d007d18 <__fmt_fp+0x778>
9d007ce8:	8fa90054 	lw	t1,84(sp)
9d007cec:	8fa40028 	lw	a0,40(sp)
9d007cf0:	24030067 	li	v1,103
9d007cf4:	14830008 	bne	a0,v1,9d007d18 <__fmt_fp+0x778>
9d007cf8:	00000000 	nop
9d007cfc:	06c0001d 	bltz	s6,9d007d74 <__fmt_fp+0x7d4>
9d007d00:	27d70001 	addiu	s7,s8,1
9d007d04:	02a01825 	move	v1,s5
9d007d08:	02152021 	addu	a0,s0,s5
9d007d0c:	03c0b825 	move	s7,s8
9d007d10:	1000000e 	b	9d007d4c <__fmt_fp+0x7ac>
9d007d14:	24050030 	li	a1,48
9d007d18:	1620fffb 	bnez	s1,9d007d08 <__fmt_fp+0x768>
9d007d1c:	02a01825 	move	v1,s5
9d007d20:	06c3fffa 	bgezl	s6,9d007d0c <__fmt_fp+0x76c>
9d007d24:	02152021 	addu	a0,s0,s5
9d007d28:	0217b821 	addu	s7,s0,s7
9d007d2c:	2403002e 	li	v1,46
9d007d30:	26b50001 	addiu	s5,s5,1
9d007d34:	2652ffff 	addiu	s2,s2,-1
9d007d38:	a2e30000 	sb	v1,0(s7)
9d007d3c:	1000fff1 	b	9d007d04 <__fmt_fp+0x764>
9d007d40:	24110001 	li	s1,1
9d007d44:	26f7ffff 	addiu	s7,s7,-1
9d007d48:	24840001 	addiu	a0,a0,1
9d007d4c:	56e0fffd 	bnezl	s7,9d007d44 <__fmt_fp+0x7a4>
9d007d50:	a0850000 	sb	a1,0(a0)
9d007d54:	2652ffff 	addiu	s2,s2,-1
9d007d58:	26b50001 	addiu	s5,s5,1
9d007d5c:	02031821 	addu	v1,s0,v1
9d007d60:	025e9023 	subu	s2,s2,s8
9d007d64:	02bea821 	addu	s5,s5,s8
9d007d68:	24420030 	addiu	v0,v0,48
9d007d6c:	007ef021 	addu	s8,v1,s8
9d007d70:	a3c20000 	sb	v0,0(s8)
9d007d74:	8fa20038 	lw	v0,56(sp)
9d007d78:	8fa50018 	lw	a1,24(sp)
9d007d7c:	3c1e8000 	lui	s8,0x8000
9d007d80:	03c22026 	xor	a0,s8,v0
9d007d84:	02603025 	move	a2,s3
9d007d88:	01603825 	move	a3,t3
9d007d8c:	afa50010 	sw	a1,16(sp)
9d007d90:	afa40014 	sw	a0,20(sp)
9d007d94:	01e02825 	move	a1,t7
9d007d98:	01c02025 	move	a0,t6
9d007d9c:	afa90050 	sw	t1,80(sp)
9d007da0:	0f401f95 	jal	9d007e54 <fma>
9d007da4:	afab0048 	sw	t3,72(sp)
9d007da8:	afa20018 	sw	v0,24(sp)
9d007dac:	03c31026 	xor	v0,s8,v1
9d007db0:	afa20038 	sw	v0,56(sp)
9d007db4:	8fa20030 	lw	v0,48(sp)
9d007db8:	8fab0048 	lw	t3,72(sp)
9d007dbc:	02602025 	move	a0,s3
9d007dc0:	8c467538 	lw	a2,30008(v0)
9d007dc4:	8c47753c 	lw	a3,30012(v0)
9d007dc8:	01602825 	move	a1,t3
9d007dcc:	0f40282b 	jal	9d00a0ac <__divdf3>
9d007dd0:	26d6ffff 	addiu	s6,s6,-1
9d007dd4:	00409825 	move	s3,v0
9d007dd8:	00605825 	move	t3,v1
9d007ddc:	02e0f025 	move	s8,s7
9d007de0:	1000ff58 	b	9d007b44 <__fmt_fp+0x5a4>
9d007de4:	8fa90050 	lw	t1,80(sp)
9d007de8:	0287001a 	div	zero,s4,a3
9d007dec:	00e001f4 	teq	a3,zero,0x7
9d007df0:	2442ffff 	addiu	v0,v0,-1
9d007df4:	02025821 	addu	t3,s0,v0
9d007df8:	24a5ffff 	addiu	a1,a1,-1
9d007dfc:	00003010 	mfhi	a2
9d007e00:	24c60030 	addiu	a2,a2,48
9d007e04:	a1660000 	sb	a2,0(t3)
9d007e08:	1000ff6e 	b	9d007bc4 <__fmt_fp+0x624>
9d007e0c:	0000a012 	mflo	s4
9d007e10:	02021821 	addu	v1,s0,v0
9d007e14:	80640000 	lb	a0,0(v1)
9d007e18:	02421821 	addu	v1,s2,v0
9d007e1c:	02031821 	addu	v1,s0,v1
9d007e20:	a0640000 	sb	a0,0(v1)
9d007e24:	1000ff86 	b	9d007c40 <__fmt_fp+0x6a0>
9d007e28:	2442ffff 	addiu	v0,v0,-1
9d007e2c:	0681fec1 	bgez	s4,9d007934 <__fmt_fp+0x394>
9d007e30:	8fa30028 	lw	v1,40(sp)
9d007e34:	1000feb7 	b	9d007914 <__fmt_fp+0x374>
9d007e38:	24090066 	li	t1,102
9d007e3c:	1000fe61 	b	9d0077c4 <__fmt_fp+0x224>
9d007e40:	24110006 	li	s1,6
9d007e44:	1062fe5f 	beq	v1,v0,9d0077c4 <__fmt_fp+0x224>
9d007e48:	24110006 	li	s1,6
9d007e4c:	1000feb1 	b	9d007914 <__fmt_fp+0x374>
9d007e50:	00604825 	move	t1,v1

Disassembly of section .text.fma:

9d007e54 <fma>:
9d007e54:	27bdff78 	addiu	sp,sp,-136
9d007e58:	afa40088 	sw	a0,136(sp)
9d007e5c:	afa60090 	sw	a2,144(sp)
9d007e60:	afa70094 	sw	a3,148(sp)
9d007e64:	00803025 	move	a2,a0
9d007e68:	00a03825 	move	a3,a1
9d007e6c:	27a40030 	addiu	a0,sp,48
9d007e70:	afbf0084 	sw	ra,132(sp)
9d007e74:	afa5008c 	sw	a1,140(sp)
9d007e78:	afbe0080 	sw	s8,128(sp)
9d007e7c:	afb3006c 	sw	s3,108(sp)
9d007e80:	afb20068 	sw	s2,104(sp)
9d007e84:	8fb3009c 	lw	s3,156(sp)
9d007e88:	8fb20098 	lw	s2,152(sp)
9d007e8c:	afb7007c 	sw	s7,124(sp)
9d007e90:	afb60078 	sw	s6,120(sp)
9d007e94:	afb50074 	sw	s5,116(sp)
9d007e98:	afb40070 	sw	s4,112(sp)
9d007e9c:	afb10064 	sw	s1,100(sp)
9d007ea0:	0f403714 	jal	9d00dc50 <normalize>
9d007ea4:	afb00060 	sw	s0,96(sp)
9d007ea8:	8fa60090 	lw	a2,144(sp)
9d007eac:	8fa70094 	lw	a3,148(sp)
9d007eb0:	0f403714 	jal	9d00dc50 <normalize>
9d007eb4:	27a40020 	addiu	a0,sp,32
9d007eb8:	02403025 	move	a2,s2
9d007ebc:	02603825 	move	a3,s3
9d007ec0:	0f403714 	jal	9d00dc50 <normalize>
9d007ec4:	27a40010 	addiu	a0,sp,16
9d007ec8:	8fbe0038 	lw	s8,56(sp)
9d007ecc:	2bc203cb 	slti	v0,s8,971
9d007ed0:	10400006 	beqz	v0,9d007eec <fma+0x98>
9d007ed4:	8fa60090 	lw	a2,144(sp)
9d007ed8:	8faf0028 	lw	t7,40(sp)
9d007edc:	29e203cb 	slti	v0,t7,971
9d007ee0:	1440000e 	bnez	v0,9d007f1c <fma+0xc8>
9d007ee4:	8fa60018 	lw	a2,24(sp)
9d007ee8:	8fa60090 	lw	a2,144(sp)
9d007eec:	8fa70094 	lw	a3,148(sp)
9d007ef0:	8fa40088 	lw	a0,136(sp)
9d007ef4:	0f402c42 	jal	9d00b108 <__muldf3>
9d007ef8:	8fa5008c 	lw	a1,140(sp)
9d007efc:	00403025 	move	a2,v0
9d007f00:	00603825 	move	a3,v1
9d007f04:	02402025 	move	a0,s2
9d007f08:	0f40295b 	jal	9d00a56c <__adddf3>
9d007f0c:	02602825 	move	a1,s3
9d007f10:	00409025 	move	s2,v0
9d007f14:	10000006 	b	9d007f30 <fma+0xdc>
9d007f18:	00609825 	move	s3,v1
9d007f1c:	28c203cb 	slti	v0,a2,971
9d007f20:	14400011 	bnez	v0,9d007f68 <fma+0x114>
9d007f24:	240203cb 	li	v0,971
9d007f28:	14c2fff0 	bne	a2,v0,9d007eec <fma+0x98>
9d007f2c:	8fa60090 	lw	a2,144(sp)
9d007f30:	8fbf0084 	lw	ra,132(sp)
9d007f34:	02401025 	move	v0,s2
9d007f38:	02601825 	move	v1,s3
9d007f3c:	8fbe0080 	lw	s8,128(sp)
9d007f40:	8fb7007c 	lw	s7,124(sp)
9d007f44:	8fb60078 	lw	s6,120(sp)
9d007f48:	8fb50074 	lw	s5,116(sp)
9d007f4c:	8fb40070 	lw	s4,112(sp)
9d007f50:	8fb3006c 	lw	s3,108(sp)
9d007f54:	8fb20068 	lw	s2,104(sp)
9d007f58:	8fb10064 	lw	s1,100(sp)
9d007f5c:	8fb00060 	lw	s0,96(sp)
9d007f60:	03e00008 	jr	ra
9d007f64:	27bd0088 	addiu	sp,sp,136
9d007f68:	8fa20030 	lw	v0,48(sp)
9d007f6c:	8fac0020 	lw	t4,32(sp)
9d007f70:	8fa40024 	lw	a0,36(sp)
9d007f74:	8fb80034 	lw	t8,52(sp)
9d007f78:	004c0019 	multu	v0,t4
9d007f7c:	03cff021 	addu	s8,s8,t7
9d007f80:	00de8823 	subu	s1,a2,s8
9d007f84:	00004810 	mfhi	t1
9d007f88:	afa90044 	sw	t1,68(sp)
9d007f8c:	00004012 	mflo	t0
9d007f90:	afa80040 	sw	t0,64(sp)
9d007f94:	8fa90040 	lw	t1,64(sp)
9d007f98:	00440019 	multu	v0,a0
9d007f9c:	00001012 	mflo	v0
9d007fa0:	00001810 	mfhi	v1
9d007fa4:	030c0019 	multu	t8,t4
9d007fa8:	00006012 	mflo	t4
9d007fac:	004c7021 	addu	t6,v0,t4
9d007fb0:	01c2282b 	sltu	a1,t6,v0
9d007fb4:	00006810 	mfhi	t5
9d007fb8:	8fa20044 	lw	v0,68(sp)
9d007fbc:	006d6821 	addu	t5,v1,t5
9d007fc0:	03040019 	multu	t8,a0
9d007fc4:	8fa30044 	lw	v1,68(sp)
9d007fc8:	01c27021 	addu	t6,t6,v0
9d007fcc:	00ad2821 	addu	a1,a1,t5
9d007fd0:	01c3202b 	sltu	a0,t6,v1
9d007fd4:	0000c012 	mflo	t8
9d007fd8:	03052821 	addu	a1,t8,a1
9d007fdc:	00b8102b 	sltu	v0,a1,t8
9d007fe0:	00a42021 	addu	a0,a1,a0
9d007fe4:	0000c810 	mfhi	t9
9d007fe8:	00591021 	addu	v0,v0,t9
9d007fec:	0085282b 	sltu	a1,a0,a1
9d007ff0:	00808025 	move	s0,a0
9d007ff4:	1a2000ad 	blez	s1,9d0082ac <fma+0x458>
9d007ff8:	00a2b021 	addu	s6,a1,v0
9d007ffc:	2a220040 	slti	v0,s1,64
9d008000:	8faf0010 	lw	t7,16(sp)
9d008004:	10400079 	beqz	v0,9d0081ec <fma+0x398>
9d008008:	8fb70014 	lw	s7,20(sp)
9d00800c:	01e02025 	move	a0,t7
9d008010:	02e02825 	move	a1,s7
9d008014:	02203025 	move	a2,s1
9d008018:	afae0054 	sw	t6,84(sp)
9d00801c:	afa90050 	sw	t1,80(sp)
9d008020:	0f403bf9 	jal	9d00efe4 <__ashldi3>
9d008024:	afaf004c 	sw	t7,76(sp)
9d008028:	8faf004c 	lw	t7,76(sp)
9d00802c:	24060040 	li	a2,64
9d008030:	02e02825 	move	a1,s7
9d008034:	01e02025 	move	a0,t7
9d008038:	00d13023 	subu	a2,a2,s1
9d00803c:	afa20048 	sw	v0,72(sp)
9d008040:	0f403bea 	jal	9d00efa8 <__lshrdi3>
9d008044:	afa30040 	sw	v1,64(sp)
9d008048:	8fb80040 	lw	t8,64(sp)
9d00804c:	8fa70048 	lw	a3,72(sp)
9d008050:	8fa90050 	lw	t1,80(sp)
9d008054:	8fae0054 	lw	t6,84(sp)
9d008058:	00407825 	move	t7,v0
9d00805c:	0060b825 	move	s7,v1
9d008060:	8fa2002c 	lw	v0,44(sp)
9d008064:	8fb1003c 	lw	s1,60(sp)
9d008068:	02228826 	xor	s1,s1,v0
9d00806c:	8fa2001c 	lw	v0,28(sp)
9d008070:	145100b9 	bne	v0,s1,9d008358 <fma+0x504>
9d008074:	00e95021 	addu	t2,a3,t1
9d008078:	0147902b 	sltu	s2,t2,a3
9d00807c:	030e7021 	addu	t6,t8,t6
9d008080:	024ea021 	addu	s4,s2,t6
9d008084:	0298102b 	sltu	v0,s4,t8
9d008088:	0140a825 	move	s5,t2
9d00808c:	14400006 	bnez	v0,9d0080a8 <fma+0x254>
9d008090:	24060001 	li	a2,1
9d008094:	17140003 	bne	t8,s4,9d0080a4 <fma+0x250>
9d008098:	0147382b 	sltu	a3,t2,a3
9d00809c:	14e00003 	bnez	a3,9d0080ac <fma+0x258>
9d0080a0:	01f05821 	addu	t3,t7,s0
9d0080a4:	00003025 	move	a2,zero
9d0080a8:	01f05821 	addu	t3,t7,s0
9d0080ac:	016f782b 	sltu	t7,t3,t7
9d0080b0:	02f61021 	addu	v0,s7,s6
9d0080b4:	00cb5821 	addu	t3,a2,t3
9d0080b8:	01e21021 	addu	v0,t7,v0
9d0080bc:	0166302b 	sltu	a2,t3,a2
9d0080c0:	00c2c821 	addu	t9,a2,v0
9d0080c4:	01602025 	move	a0,t3
9d0080c8:	03202825 	move	a1,t9
9d0080cc:	afab0048 	sw	t3,72(sp)
9d0080d0:	0f403a1d 	jal	9d00e874 <a_clz_64>
9d0080d4:	afb90040 	sw	t9,64(sp)
9d0080d8:	2453ffff 	addiu	s3,v0,-1
9d0080dc:	24060040 	li	a2,64
9d0080e0:	00d33023 	subu	a2,a2,s3
9d0080e4:	02a02025 	move	a0,s5
9d0080e8:	0f403bea 	jal	9d00efa8 <__lshrdi3>
9d0080ec:	02802825 	move	a1,s4
9d0080f0:	8fab0048 	lw	t3,72(sp)
9d0080f4:	8fb90040 	lw	t9,64(sp)
9d0080f8:	02603025 	move	a2,s3
9d0080fc:	01602025 	move	a0,t3
9d008100:	03202825 	move	a1,t9
9d008104:	00408025 	move	s0,v0
9d008108:	0f403bf9 	jal	9d00efe4 <__ashldi3>
9d00810c:	00609025 	move	s2,v1
9d008110:	02603025 	move	a2,s3
9d008114:	02a02025 	move	a0,s5
9d008118:	02802825 	move	a1,s4
9d00811c:	02028025 	or	s0,s0,v0
9d008120:	0f403bf9 	jal	9d00efe4 <__ashldi3>
9d008124:	02439025 	or	s2,s2,v1
9d008128:	00431025 	or	v0,v0,v1
9d00812c:	0002102b 	sltu	v0,zero,v0
9d008130:	27de0040 	addiu	s8,s8,64
9d008134:	02028025 	or	s0,s0,v0
9d008138:	02002025 	move	a0,s0
9d00813c:	12200005 	beqz	s1,9d008154 <fma+0x300>
9d008140:	02402825 	move	a1,s2
9d008144:	00102023 	negu	a0,s0
9d008148:	0004102b 	sltu	v0,zero,a0
9d00814c:	00122823 	negu	a1,s2
9d008150:	00a22823 	subu	a1,a1,v0
9d008154:	0f403975 	jal	9d00e5d4 <__floatdidf>
9d008158:	03d3f023 	subu	s8,s8,s3
9d00815c:	0040b025 	move	s6,v0
9d008160:	2bc2fbc4 	slti	v0,s8,-1084
9d008164:	104000fc 	beqz	v0,9d008558 <fma+0x704>
9d008168:	0060b825 	move	s7,v1
9d00816c:	2402fbc3 	li	v0,-1085
9d008170:	17c200ff 	bne	s8,v0,9d008570 <fma+0x71c>
9d008174:	00102580 	sll	a0,s0,0x16
9d008178:	122000b8 	beqz	s1,9d00845c <fma+0x608>
9d00817c:	3c029d00 	lui	v0,0x9d00
9d008180:	8c547568 	lw	s4,30056(v0)
9d008184:	8c55756c 	lw	s5,30060(v0)
9d008188:	02c03025 	move	a2,s6
9d00818c:	02e03825 	move	a3,s7
9d008190:	02802025 	move	a0,s4
9d008194:	0f4032b4 	jal	9d00cad0 <__eqdf2>
9d008198:	02a02825 	move	a1,s5
9d00819c:	144000b3 	bnez	v0,9d00846c <fma+0x618>
9d0081a0:	3c029d00 	lui	v0,0x9d00
9d0081a4:	8c467570 	lw	a2,30064(v0)
9d0081a8:	8c477574 	lw	a3,30068(v0)
9d0081ac:	02c02025 	move	a0,s6
9d0081b0:	0f402c42 	jal	9d00b108 <__muldf3>
9d0081b4:	02e02825 	move	a1,s7
9d0081b8:	00602825 	move	a1,v1
9d0081bc:	0f40345a 	jal	9d00d168 <__truncdfsf2>
9d0081c0:	00402025 	move	a0,v0
9d0081c4:	0f4036bf 	jal	9d00dafc <__extendsfdf2>
9d0081c8:	00402025 	move	a0,v0
9d0081cc:	3c049d00 	lui	a0,0x9d00
9d0081d0:	8c867578 	lw	a2,30072(a0)
9d0081d4:	8c87757c 	lw	a3,30076(a0)
9d0081d8:	00602825 	move	a1,v1
9d0081dc:	0f402c42 	jal	9d00b108 <__muldf3>
9d0081e0:	00402025 	move	a0,v0
9d0081e4:	1000ff4b 	b	9d007f14 <fma+0xc0>
9d0081e8:	00409025 	move	s2,v0
9d0081ec:	2631ffc0 	addiu	s1,s1,-64
9d0081f0:	24deffc0 	addiu	s8,a2,-64
9d0081f4:	00003825 	move	a3,zero
9d0081f8:	1220ff99 	beqz	s1,9d008060 <fma+0x20c>
9d0081fc:	0000c025 	move	t8,zero
9d008200:	2a220040 	slti	v0,s1,64
9d008204:	1040004c 	beqz	v0,9d008338 <fma+0x4e4>
9d008208:	8fa40040 	lw	a0,64(sp)
9d00820c:	240b0040 	li	t3,64
9d008210:	01715823 	subu	t3,t3,s1
9d008214:	01603025 	move	a2,t3
9d008218:	01c02825 	move	a1,t6
9d00821c:	afb80058 	sw	t8,88(sp)
9d008220:	afa70054 	sw	a3,84(sp)
9d008224:	afaf0050 	sw	t7,80(sp)
9d008228:	afab004c 	sw	t3,76(sp)
9d00822c:	0f403bf9 	jal	9d00efe4 <__ashldi3>
9d008230:	afae0048 	sw	t6,72(sp)
9d008234:	8fae0048 	lw	t6,72(sp)
9d008238:	8fa40040 	lw	a0,64(sp)
9d00823c:	00431025 	or	v0,v0,v1
9d008240:	01c02825 	move	a1,t6
9d008244:	02203025 	move	a2,s1
9d008248:	0f403bea 	jal	9d00efa8 <__lshrdi3>
9d00824c:	0002a82b 	sltu	s5,zero,v0
9d008250:	8fab004c 	lw	t3,76(sp)
9d008254:	02002025 	move	a0,s0
9d008258:	02c02825 	move	a1,s6
9d00825c:	01603025 	move	a2,t3
9d008260:	0060a025 	move	s4,v1
9d008264:	0f403bf9 	jal	9d00efe4 <__ashldi3>
9d008268:	02a2a825 	or	s5,s5,v0
9d00826c:	02a24825 	or	t1,s5,v0
9d008270:	02837025 	or	t6,s4,v1
9d008274:	02002025 	move	a0,s0
9d008278:	02c02825 	move	a1,s6
9d00827c:	02203025 	move	a2,s1
9d008280:	afa90048 	sw	t1,72(sp)
9d008284:	0f403bea 	jal	9d00efa8 <__lshrdi3>
9d008288:	afae0040 	sw	t6,64(sp)
9d00828c:	00408025 	move	s0,v0
9d008290:	0060b025 	move	s6,v1
9d008294:	8fae0040 	lw	t6,64(sp)
9d008298:	8fa90048 	lw	t1,72(sp)
9d00829c:	8faf0050 	lw	t7,80(sp)
9d0082a0:	8fa70054 	lw	a3,84(sp)
9d0082a4:	1000ff6e 	b	9d008060 <fma+0x20c>
9d0082a8:	8fb80058 	lw	t8,88(sp)
9d0082ac:	03c68823 	subu	s1,s8,a2
9d0082b0:	16200005 	bnez	s1,9d0082c8 <fma+0x474>
9d0082b4:	8fa70010 	lw	a3,16(sp)
9d0082b8:	8fb80014 	lw	t8,20(sp)
9d0082bc:	00007825 	move	t7,zero
9d0082c0:	1000ff67 	b	9d008060 <fma+0x20c>
9d0082c4:	0000b825 	move	s7,zero
9d0082c8:	2a220040 	slti	v0,s1,64
9d0082cc:	1040001f 	beqz	v0,9d00834c <fma+0x4f8>
9d0082d0:	8faa0010 	lw	t2,16(sp)
9d0082d4:	8fab0014 	lw	t3,20(sp)
9d0082d8:	24060040 	li	a2,64
9d0082dc:	01402025 	move	a0,t2
9d0082e0:	01602825 	move	a1,t3
9d0082e4:	00d13023 	subu	a2,a2,s1
9d0082e8:	afae004c 	sw	t6,76(sp)
9d0082ec:	afa90048 	sw	t1,72(sp)
9d0082f0:	afaa0040 	sw	t2,64(sp)
9d0082f4:	0f403bf9 	jal	9d00efe4 <__ashldi3>
9d0082f8:	afab0044 	sw	t3,68(sp)
9d0082fc:	8faa0040 	lw	t2,64(sp)
9d008300:	8fab0044 	lw	t3,68(sp)
9d008304:	00431025 	or	v0,v0,v1
9d008308:	02203025 	move	a2,s1
9d00830c:	01402025 	move	a0,t2
9d008310:	01602825 	move	a1,t3
9d008314:	0f403bea 	jal	9d00efa8 <__lshrdi3>
9d008318:	0002a02b 	sltu	s4,zero,v0
9d00831c:	02823825 	or	a3,s4,v0
9d008320:	0060c025 	move	t8,v1
9d008324:	00007825 	move	t7,zero
9d008328:	0000b825 	move	s7,zero
9d00832c:	8fa90048 	lw	t1,72(sp)
9d008330:	1000ff4b 	b	9d008060 <fma+0x20c>
9d008334:	8fae004c 	lw	t6,76(sp)
9d008338:	24090001 	li	t1,1
9d00833c:	00007025 	move	t6,zero
9d008340:	00008025 	move	s0,zero
9d008344:	1000ff46 	b	9d008060 <fma+0x20c>
9d008348:	0000b025 	move	s6,zero
9d00834c:	24070001 	li	a3,1
9d008350:	1000ffda 	b	9d0082bc <fma+0x468>
9d008354:	0000c025 	move	t8,zero
9d008358:	01275023 	subu	t2,t1,a3
9d00835c:	012a182b 	sltu	v1,t1,t2
9d008360:	01d84023 	subu	t0,t6,t8
9d008364:	0103a023 	subu	s4,t0,v1
9d008368:	01d4102b 	sltu	v0,t6,s4
9d00836c:	0140a825 	move	s5,t2
9d008370:	241f0001 	li	ra,1
9d008374:	14400006 	bnez	v0,9d008390 <fma+0x53c>
9d008378:	00003025 	move	a2,zero
9d00837c:	568e0004 	bnel	s4,t6,9d008390 <fma+0x53c>
9d008380:	0000f825 	move	ra,zero
9d008384:	14600003 	bnez	v1,9d008394 <fma+0x540>
9d008388:	020f1823 	subu	v1,s0,t7
9d00838c:	0000f825 	move	ra,zero
9d008390:	020f1823 	subu	v1,s0,t7
9d008394:	0203c82b 	sltu	t9,s0,v1
9d008398:	02d71023 	subu	v0,s6,s7
9d00839c:	00591023 	subu	v0,v0,t9
9d0083a0:	007f5823 	subu	t3,v1,ra
9d0083a4:	006b182b 	sltu	v1,v1,t3
9d0083a8:	00461023 	subu	v0,v0,a2
9d0083ac:	0043c823 	subu	t9,v0,v1
9d0083b0:	07210013 	bgez	t9,9d008400 <fma+0x5ac>
9d0083b4:	00e95023 	subu	t2,a3,t1
9d0083b8:	00ea382b 	sltu	a3,a3,t2
9d0083bc:	030e4023 	subu	t0,t8,t6
9d0083c0:	01f02023 	subu	a0,t7,s0
9d0083c4:	0107a023 	subu	s4,t0,a3
9d0083c8:	01e4782b 	sltu	t7,t7,a0
9d0083cc:	02f61023 	subu	v0,s7,s6
9d0083d0:	01545825 	or	t3,t2,s4
9d0083d4:	009ff821 	addu	ra,a0,ra
9d0083d8:	004f1023 	subu	v0,v0,t7
9d0083dc:	000b582b 	sltu	t3,zero,t3
9d0083e0:	03e4202b 	sltu	a0,ra,a0
9d0083e4:	00461021 	addu	v0,v0,a2
9d0083e8:	03eb5823 	subu	t3,ra,t3
9d0083ec:	00821021 	addu	v0,a0,v0
9d0083f0:	03ebf82b 	sltu	ra,ra,t3
9d0083f4:	0140a825 	move	s5,t2
9d0083f8:	005fc823 	subu	t9,v0,ra
9d0083fc:	2e310001 	sltiu	s1,s1,1
9d008400:	01791025 	or	v0,t3,t9
9d008404:	1440ff2f 	bnez	v0,9d0080c4 <fma+0x270>
9d008408:	02b41025 	or	v0,s5,s4
9d00840c:	1040feb6 	beqz	v0,9d007ee8 <fma+0x94>
9d008410:	02a02025 	move	a0,s5
9d008414:	0f403a1d 	jal	9d00e874 <a_clz_64>
9d008418:	02802825 	move	a1,s4
9d00841c:	2453ffff 	addiu	s3,v0,-1
9d008420:	06610007 	bgez	s3,9d008440 <fma+0x5ec>
9d008424:	001417c0 	sll	v0,s4,0x1f
9d008428:	00158042 	srl	s0,s5,0x1
9d00842c:	00508025 	or	s0,v0,s0
9d008430:	32aa0001 	andi	t2,s5,0x1
9d008434:	020a8025 	or	s0,s0,t2
9d008438:	1000ff3f 	b	9d008138 <fma+0x2e4>
9d00843c:	00149042 	srl	s2,s4,0x1
9d008440:	02603025 	move	a2,s3
9d008444:	02a02025 	move	a0,s5
9d008448:	0f403bf9 	jal	9d00efe4 <__ashldi3>
9d00844c:	02802825 	move	a1,s4
9d008450:	00408025 	move	s0,v0
9d008454:	1000ff38 	b	9d008138 <fma+0x2e4>
9d008458:	00609025 	move	s2,v1
9d00845c:	3c029d00 	lui	v0,0x9d00
9d008460:	8c547560 	lw	s4,30048(v0)
9d008464:	1000ff48 	b	9d008188 <fma+0x334>
9d008468:	8c557564 	lw	s5,30052(v0)
9d00846c:	00101540 	sll	v0,s0,0x15
9d008470:	10400039 	beqz	v0,9d008558 <fma+0x704>
9d008474:	001217c0 	sll	v0,s2,0x1f
9d008478:	00102042 	srl	a0,s0,0x1
9d00847c:	00442025 	or	a0,v0,a0
9d008480:	00122842 	srl	a1,s2,0x1
9d008484:	32100001 	andi	s0,s0,0x1
9d008488:	3c024000 	lui	v0,0x4000
9d00848c:	00902025 	or	a0,a0,s0
9d008490:	12200005 	beqz	s1,9d0084a8 <fma+0x654>
9d008494:	00452825 	or	a1,v0,a1
9d008498:	00042023 	negu	a0,a0
9d00849c:	0004102b 	sltu	v0,zero,a0
9d0084a0:	00052823 	negu	a1,a1
9d0084a4:	00a22823 	subu	a1,a1,v0
9d0084a8:	0f403975 	jal	9d00e5d4 <__floatdidf>
9d0084ac:	00000000 	nop
9d0084b0:	00403025 	move	a2,v0
9d0084b4:	00603825 	move	a3,v1
9d0084b8:	00402025 	move	a0,v0
9d0084bc:	0f40295b 	jal	9d00a56c <__adddf3>
9d0084c0:	00602825 	move	a1,v1
9d0084c4:	00402025 	move	a0,v0
9d0084c8:	02803025 	move	a2,s4
9d0084cc:	02a03825 	move	a3,s5
9d0084d0:	0f402959 	jal	9d00a564 <__subdf3>
9d0084d4:	00602825 	move	a1,v1
9d0084d8:	00408025 	move	s0,v0
9d0084dc:	3c029d00 	lui	v0,0x9d00
9d0084e0:	8c467578 	lw	a2,30072(v0)
9d0084e4:	8c47757c 	lw	a3,30076(v0)
9d0084e8:	02002025 	move	a0,s0
9d0084ec:	00602825 	move	a1,v1
9d0084f0:	0f402c42 	jal	9d00b108 <__muldf3>
9d0084f4:	00608825 	move	s1,v1
9d0084f8:	00403025 	move	a2,v0
9d0084fc:	00603825 	move	a3,v1
9d008500:	00402025 	move	a0,v0
9d008504:	0f402c42 	jal	9d00b108 <__muldf3>
9d008508:	00602825 	move	a1,v1
9d00850c:	02003025 	move	a2,s0
9d008510:	02203825 	move	a3,s1
9d008514:	02002025 	move	a0,s0
9d008518:	02202825 	move	a1,s1
9d00851c:	00409025 	move	s2,v0
9d008520:	0f402959 	jal	9d00a564 <__subdf3>
9d008524:	00609825 	move	s3,v1
9d008528:	00403025 	move	a2,v0
9d00852c:	00603825 	move	a3,v1
9d008530:	02402025 	move	a0,s2
9d008534:	0f402c42 	jal	9d00b108 <__muldf3>
9d008538:	02602825 	move	a1,s3
9d00853c:	00402025 	move	a0,v0
9d008540:	02003025 	move	a2,s0
9d008544:	02203825 	move	a3,s1
9d008548:	0f40295b 	jal	9d00a56c <__adddf3>
9d00854c:	00602825 	move	a1,v1
9d008550:	0040b025 	move	s6,v0
9d008554:	0060b825 	move	s7,v1
9d008558:	03c03025 	move	a2,s8
9d00855c:	02c02025 	move	a0,s6
9d008560:	0f40349a 	jal	9d00d268 <scalbn>
9d008564:	02e02825 	move	a1,s7
9d008568:	1000fe6a 	b	9d007f14 <fma+0xc0>
9d00856c:	00409025 	move	s2,v0
9d008570:	00121580 	sll	v0,s2,0x16
9d008574:	00108282 	srl	s0,s0,0xa
9d008578:	00508025 	or	s0,v0,s0
9d00857c:	0004202b 	sltu	a0,zero,a0
9d008580:	00902025 	or	a0,a0,s0
9d008584:	02402825 	move	a1,s2
9d008588:	00041582 	srl	v0,a0,0x16
9d00858c:	7c054804 	ins	a1,zero,0x0,0xa
9d008590:	00452825 	or	a1,v0,a1
9d008594:	12200005 	beqz	s1,9d0085ac <fma+0x758>
9d008598:	00042280 	sll	a0,a0,0xa
9d00859c:	00042023 	negu	a0,a0
9d0085a0:	0004102b 	sltu	v0,zero,a0
9d0085a4:	00052823 	negu	a1,a1
9d0085a8:	00a22823 	subu	a1,a1,v0
9d0085ac:	0f403975 	jal	9d00e5d4 <__floatdidf>
9d0085b0:	00000000 	nop
9d0085b4:	1000ffe7 	b	9d008554 <fma+0x700>
9d0085b8:	0040b025 	move	s6,v0

Disassembly of section .text.__scanf_core:

9d0085bc <__scanf_core>:
9d0085bc:	27bdfe20 	addiu	sp,sp,-480
9d0085c0:	afb601d4 	sw	s6,468(sp)
9d0085c4:	afb501d0 	sw	s5,464(sp)
9d0085c8:	afb201c4 	sw	s2,452(sp)
9d0085cc:	afb001bc 	sw	s0,444(sp)
9d0085d0:	afbf01dc 	sw	ra,476(sp)
9d0085d4:	afb701d8 	sw	s7,472(sp)
9d0085d8:	afb401cc 	sw	s4,460(sp)
9d0085dc:	afb301c8 	sw	s3,456(sp)
9d0085e0:	afb101c0 	sw	s1,448(sp)
9d0085e4:	00808025 	move	s0,a0
9d0085e8:	00c09025 	move	s2,a2
9d0085ec:	afa501b4 	sw	a1,436(sp)
9d0085f0:	afa001b0 	sw	zero,432(sp)
9d0085f4:	0000a825 	move	s5,zero
9d0085f8:	27b6011c 	addiu	s6,sp,284
9d0085fc:	8fa201b4 	lw	v0,436(sp)
9d008600:	80420000 	lb	v0,0(v0)
9d008604:	1040005a 	beqz	v0,9d008770 <__scanf_core+0x1b4>
9d008608:	24020080 	li	v0,128
9d00860c:	27a501b4 	addiu	a1,sp,436
9d008610:	02002025 	move	a0,s0
9d008614:	afa0019c 	sw	zero,412(sp)
9d008618:	afa001a0 	sw	zero,416(sp)
9d00861c:	afa001a4 	sw	zero,420(sp)
9d008620:	afb601a8 	sw	s6,424(sp)
9d008624:	0f4039ae 	jal	9d00e6b8 <__consumews>
9d008628:	afa201ac 	sw	v0,428(sp)
9d00862c:	00408825 	move	s1,v0
9d008630:	8fa301b4 	lw	v1,436(sp)
9d008634:	80620000 	lb	v0,0(v1)
9d008638:	10400003 	beqz	v0,9d008648 <__scanf_core+0x8c>
9d00863c:	24040025 	li	a0,37
9d008640:	5444003b 	bnel	v0,a0,9d008730 <__scanf_core+0x174>
9d008644:	8e02003c 	lw	v0,60(s0)
9d008648:	8fa201b0 	lw	v0,432(sp)
9d00864c:	00511021 	addu	v0,v0,s1
9d008650:	afa201b0 	sw	v0,432(sp)
9d008654:	80640000 	lb	a0,0(v1)
9d008658:	24020025 	li	v0,37
9d00865c:	1482002d 	bne	a0,v0,9d008714 <__scanf_core+0x158>
9d008660:	24620001 	addiu	v0,v1,1
9d008664:	afa201b4 	sw	v0,436(sp)
9d008668:	afa001a4 	sw	zero,420(sp)
9d00866c:	80640001 	lb	a0,1(v1)
9d008670:	2402002a 	li	v0,42
9d008674:	14820004 	bne	a0,v0,9d008688 <__scanf_core+0xcc>
9d008678:	00008825 	move	s1,zero
9d00867c:	24630002 	addiu	v1,v1,2
9d008680:	afa301b4 	sw	v1,436(sp)
9d008684:	24110001 	li	s1,1
9d008688:	0f403919 	jal	9d00e464 <atoi>
9d00868c:	8fa401b4 	lw	a0,436(sp)
9d008690:	00402825 	move	a1,v0
9d008694:	02002025 	move	a0,s0
9d008698:	0f403c6a 	jal	9d00f1a8 <__shlim>
9d00869c:	afa201a4 	sw	v0,420(sp)
9d0086a0:	8fa301b4 	lw	v1,436(sp)
9d0086a4:	80620000 	lb	v0,0(v1)
9d0086a8:	2442ffd0 	addiu	v0,v0,-48
9d0086ac:	2c42000a 	sltiu	v0,v0,10
9d0086b0:	1440004b 	bnez	v0,9d0087e0 <__scanf_core+0x224>
9d0086b4:	24630001 	addiu	v1,v1,1
9d0086b8:	0f403a98 	jal	9d00ea60 <__fmt_state>
9d0086bc:	27a401b4 	addiu	a0,sp,436
9d0086c0:	0040a025 	move	s4,v0
9d0086c4:	8fa201b4 	lw	v0,436(sp)
9d0086c8:	0f403d26 	jal	9d00f498 <tolower>
9d0086cc:	80440000 	lb	a0,0(v0)
9d0086d0:	28430068 	slti	v1,v0,104
9d0086d4:	1060005f 	beqz	v1,9d008854 <__scanf_core+0x298>
9d0086d8:	28430065 	slti	v1,v0,101
9d0086dc:	106000bd 	beqz	v1,9d0089d4 <__scanf_core+0x418>
9d0086e0:	24030061 	li	v1,97
9d0086e4:	104300bb 	beq	v0,v1,9d0089d4 <__scanf_core+0x418>
9d0086e8:	28430062 	slti	v1,v0,98
9d0086ec:	1060003e 	beqz	v1,9d0087e8 <__scanf_core+0x22c>
9d0086f0:	24040025 	li	a0,37
9d0086f4:	104400e0 	beq	v0,a0,9d008a78 <__scanf_core+0x4bc>
9d0086f8:	8fa301b4 	lw	v1,436(sp)
9d0086fc:	2404005b 	li	a0,91
9d008700:	104400fc 	beq	v0,a0,9d008af4 <__scanf_core+0x538>
9d008704:	24020080 	li	v0,128
9d008708:	8fa201b4 	lw	v0,436(sp)
9d00870c:	24420001 	addiu	v0,v0,1
9d008710:	afa201b4 	sw	v0,436(sp)
9d008714:	2402ffff 	li	v0,-1
9d008718:	166200ac 	bne	s3,v0,9d0089cc <__scanf_core+0x410>
9d00871c:	00008825 	move	s1,zero
9d008720:	52a00013 	beqzl	s5,9d008770 <__scanf_core+0x1b4>
9d008724:	2415ffff 	li	s5,-1
9d008728:	10000012 	b	9d008774 <__scanf_core+0x1b8>
9d00872c:	8fbf01dc 	lw	ra,476(sp)
9d008730:	8e03004c 	lw	v1,76(s0)
9d008734:	0043182b 	sltu	v1,v0,v1
9d008738:	10600019 	beqz	v1,9d0087a0 <__scanf_core+0x1e4>
9d00873c:	24430001 	addiu	v1,v0,1
9d008740:	ae03003c 	sw	v1,60(s0)
9d008744:	90530000 	lbu	s3,0(v0)
9d008748:	8fa201b4 	lw	v0,436(sp)
9d00874c:	80420000 	lb	v0,0(v0)
9d008750:	10530019 	beq	v0,s3,9d0087b8 <__scanf_core+0x1fc>
9d008754:	8fa201b0 	lw	v0,432(sp)
9d008758:	8e02004c 	lw	v0,76(s0)
9d00875c:	10400005 	beqz	v0,9d008774 <__scanf_core+0x1b8>
9d008760:	8fbf01dc 	lw	ra,476(sp)
9d008764:	8e02003c 	lw	v0,60(s0)
9d008768:	2442ffff 	addiu	v0,v0,-1
9d00876c:	ae02003c 	sw	v0,60(s0)
9d008770:	8fbf01dc 	lw	ra,476(sp)
9d008774:	02a01025 	move	v0,s5
9d008778:	8fb701d8 	lw	s7,472(sp)
9d00877c:	8fb601d4 	lw	s6,468(sp)
9d008780:	8fb501d0 	lw	s5,464(sp)
9d008784:	8fb401cc 	lw	s4,460(sp)
9d008788:	8fb301c8 	lw	s3,456(sp)
9d00878c:	8fb201c4 	lw	s2,452(sp)
9d008790:	8fb101c0 	lw	s1,448(sp)
9d008794:	8fb001bc 	lw	s0,444(sp)
9d008798:	03e00008 	jr	ra
9d00879c:	27bd01e0 	addiu	sp,sp,480
9d0087a0:	0f40363a 	jal	9d00d8e8 <__shgetc>
9d0087a4:	02002025 	move	a0,s0
9d0087a8:	00409825 	move	s3,v0
9d0087ac:	2402ffff 	li	v0,-1
9d0087b0:	1662ffe5 	bne	s3,v0,9d008748 <__scanf_core+0x18c>
9d0087b4:	8fa201b0 	lw	v0,432(sp)
9d0087b8:	27a501b4 	addiu	a1,sp,436
9d0087bc:	02002025 	move	a0,s0
9d0087c0:	24420001 	addiu	v0,v0,1
9d0087c4:	afa201b0 	sw	v0,432(sp)
9d0087c8:	8fa201b4 	lw	v0,436(sp)
9d0087cc:	24420001 	addiu	v0,v0,1
9d0087d0:	0f4039ae 	jal	9d00e6b8 <__consumews>
9d0087d4:	afa201b4 	sw	v0,436(sp)
9d0087d8:	1000ff95 	b	9d008630 <__scanf_core+0x74>
9d0087dc:	02228821 	addu	s1,s1,v0
9d0087e0:	1000ffaf 	b	9d0086a0 <__scanf_core+0xe4>
9d0087e4:	afa301b4 	sw	v1,436(sp)
9d0087e8:	24030063 	li	v1,99
9d0087ec:	1043008a 	beq	v0,v1,9d008a18 <__scanf_core+0x45c>
9d0087f0:	24030064 	li	v1,100
9d0087f4:	1443ffc4 	bne	v0,v1,9d008708 <__scanf_core+0x14c>
9d0087f8:	27a701b0 	addiu	a3,sp,432
9d0087fc:	27a6019c 	addiu	a2,sp,412
9d008800:	27a50018 	addiu	a1,sp,24
9d008804:	0f403992 	jal	9d00e648 <__scan_d>
9d008808:	02002025 	move	a0,s0
9d00880c:	0442000c 	bltzl	v0,9d008840 <__scanf_core+0x284>
9d008810:	00408825 	move	s1,v0
9d008814:	8fa201b4 	lw	v0,436(sp)
9d008818:	24420001 	addiu	v0,v0,1
9d00881c:	162000a8 	bnez	s1,9d008ac0 <__scanf_core+0x504>
9d008820:	afa201b4 	sw	v0,436(sp)
9d008824:	02403825 	move	a3,s2
9d008828:	24060001 	li	a2,1
9d00882c:	02802825 	move	a1,s4
9d008830:	0f403016 	jal	9d00c058 <__push_int>
9d008834:	27a40018 	addiu	a0,sp,24
9d008838:	04410064 	bgez	v0,9d0089cc <__scanf_core+0x410>
9d00883c:	00408825 	move	s1,v0
9d008840:	2402ffff 	li	v0,-1
9d008844:	1222ffb6 	beq	s1,v0,9d008720 <__scanf_core+0x164>
9d008848:	8fbf01dc 	lw	ra,476(sp)
9d00884c:	1000ffca 	b	9d008778 <__scanf_core+0x1bc>
9d008850:	02a01025 	move	v0,s5
9d008854:	24030070 	li	v1,112
9d008858:	10430040 	beq	v0,v1,9d00895c <__scanf_core+0x3a0>
9d00885c:	28430071 	slti	v1,v0,113
9d008860:	1060000d 	beqz	v1,9d008898 <__scanf_core+0x2dc>
9d008864:	2403006e 	li	v1,110
9d008868:	1043004b 	beq	v0,v1,9d008998 <__scanf_core+0x3dc>
9d00886c:	2843006f 	slti	v1,v0,111
9d008870:	1060002c 	beqz	v1,9d008924 <__scanf_core+0x368>
9d008874:	24030069 	li	v1,105
9d008878:	1443ffa3 	bne	v0,v1,9d008708 <__scanf_core+0x14c>
9d00887c:	27a701b0 	addiu	a3,sp,432
9d008880:	27a6019c 	addiu	a2,sp,412
9d008884:	27a50018 	addiu	a1,sp,24
9d008888:	0f402dcc 	jal	9d00b730 <__scan_i>
9d00888c:	02002025 	move	a0,s0
9d008890:	1000ffde 	b	9d00880c <__scanf_core+0x250>
9d008894:	00000000 	nop
9d008898:	24030075 	li	v1,117
9d00889c:	10430013 	beq	v0,v1,9d0088ec <__scanf_core+0x330>
9d0088a0:	24030078 	li	v1,120
9d0088a4:	10430026 	beq	v0,v1,9d008940 <__scanf_core+0x384>
9d0088a8:	24030073 	li	v1,115
9d0088ac:	1443ff96 	bne	v0,v1,9d008708 <__scanf_core+0x14c>
9d0088b0:	24020080 	li	v0,128
9d0088b4:	1682ff94 	bne	s4,v0,9d008708 <__scanf_core+0x14c>
9d0088b8:	8fa201b4 	lw	v0,436(sp)
9d0088bc:	24420001 	addiu	v0,v0,1
9d0088c0:	afa201b4 	sw	v0,436(sp)
9d0088c4:	16200005 	bnez	s1,9d0088dc <__scanf_core+0x320>
9d0088c8:	00001025 	move	v0,zero
9d0088cc:	8e420000 	lw	v0,0(s2)
9d0088d0:	24430004 	addiu	v1,v0,4
9d0088d4:	ae430000 	sw	v1,0(s2)
9d0088d8:	8c420000 	lw	v0,0(v0)
9d0088dc:	afa20010 	sw	v0,16(sp)
9d0088e0:	27a701b0 	addiu	a3,sp,432
9d0088e4:	1000005f 	b	9d008a64 <__scanf_core+0x4a8>
9d0088e8:	24060001 	li	a2,1
9d0088ec:	27a701b0 	addiu	a3,sp,432
9d0088f0:	27a6019c 	addiu	a2,sp,412
9d0088f4:	27a50018 	addiu	a1,sp,24
9d0088f8:	0f403d8b 	jal	9d00f62c <__scan_a>
9d0088fc:	02002025 	move	a0,s0
9d008900:	0442ffcf 	bltzl	v0,9d008840 <__scanf_core+0x284>
9d008904:	00408825 	move	s1,v0
9d008908:	8fa201b4 	lw	v0,436(sp)
9d00890c:	24420001 	addiu	v0,v0,1
9d008910:	1620006b 	bnez	s1,9d008ac0 <__scanf_core+0x504>
9d008914:	afa201b4 	sw	v0,436(sp)
9d008918:	02403825 	move	a3,s2
9d00891c:	1000ffc3 	b	9d00882c <__scanf_core+0x270>
9d008920:	00003025 	move	a2,zero
9d008924:	27a701b0 	addiu	a3,sp,432
9d008928:	27a6019c 	addiu	a2,sp,412
9d00892c:	27a50018 	addiu	a1,sp,24
9d008930:	0f403d8b 	jal	9d00f62c <__scan_a>
9d008934:	02002025 	move	a0,s0
9d008938:	1000fff1 	b	9d008900 <__scanf_core+0x344>
9d00893c:	00000000 	nop
9d008940:	27a701b0 	addiu	a3,sp,432
9d008944:	27a6019c 	addiu	a2,sp,412
9d008948:	27a50018 	addiu	a1,sp,24
9d00894c:	0f403d8b 	jal	9d00f62c <__scan_a>
9d008950:	02002025 	move	a0,s0
9d008954:	1000ffea 	b	9d008900 <__scanf_core+0x344>
9d008958:	00000000 	nop
9d00895c:	27a701b0 	addiu	a3,sp,432
9d008960:	27a6019c 	addiu	a2,sp,412
9d008964:	27a50018 	addiu	a1,sp,24
9d008968:	0f403d8b 	jal	9d00f62c <__scan_a>
9d00896c:	02002025 	move	a0,s0
9d008970:	0442ffb3 	bltzl	v0,9d008840 <__scanf_core+0x284>
9d008974:	00408825 	move	s1,v0
9d008978:	8fa201b4 	lw	v0,436(sp)
9d00897c:	24420001 	addiu	v0,v0,1
9d008980:	1620004f 	bnez	s1,9d008ac0 <__scanf_core+0x504>
9d008984:	afa201b4 	sw	v0,436(sp)
9d008988:	02403825 	move	a3,s2
9d00898c:	00003025 	move	a2,zero
9d008990:	1000ffa7 	b	9d008830 <__scanf_core+0x274>
9d008994:	240500f0 	li	a1,240
9d008998:	8fa201b4 	lw	v0,436(sp)
9d00899c:	24420001 	addiu	v0,v0,1
9d0089a0:	afa201b4 	sw	v0,436(sp)
9d0089a4:	8fa201b0 	lw	v0,432(sp)
9d0089a8:	afa20018 	sw	v0,24(sp)
9d0089ac:	000217c3 	sra	v0,v0,0x1f
9d0089b0:	16200043 	bnez	s1,9d008ac0 <__scanf_core+0x504>
9d0089b4:	afa2001c 	sw	v0,28(sp)
9d0089b8:	02403825 	move	a3,s2
9d0089bc:	00003025 	move	a2,zero
9d0089c0:	02802825 	move	a1,s4
9d0089c4:	0f403016 	jal	9d00c058 <__push_int>
9d0089c8:	27a40018 	addiu	a0,sp,24
9d0089cc:	1000ff0b 	b	9d0085fc <__scanf_core+0x40>
9d0089d0:	02b1a821 	addu	s5,s5,s1
9d0089d4:	27a701b0 	addiu	a3,sp,432
9d0089d8:	27a6019c 	addiu	a2,sp,412
9d0089dc:	27a50018 	addiu	a1,sp,24
9d0089e0:	0f403d8b 	jal	9d00f62c <__scan_a>
9d0089e4:	02002025 	move	a0,s0
9d0089e8:	0442ff95 	bltzl	v0,9d008840 <__scanf_core+0x284>
9d0089ec:	00408825 	move	s1,v0
9d0089f0:	8fa201b4 	lw	v0,436(sp)
9d0089f4:	24420001 	addiu	v0,v0,1
9d0089f8:	16200031 	bnez	s1,9d008ac0 <__scanf_core+0x504>
9d0089fc:	afa201b4 	sw	v0,436(sp)
9d008a00:	02403025 	move	a2,s2
9d008a04:	02802825 	move	a1,s4
9d008a08:	0f4036ea 	jal	9d00dba8 <__push_float>
9d008a0c:	27a40018 	addiu	a0,sp,24
9d008a10:	1000ff89 	b	9d008838 <__scanf_core+0x27c>
9d008a14:	00000000 	nop
9d008a18:	24020080 	li	v0,128
9d008a1c:	1682ff3a 	bne	s4,v0,9d008708 <__scanf_core+0x14c>
9d008a20:	8fa201a4 	lw	v0,420(sp)
9d008a24:	54400004 	bnezl	v0,9d008a38 <__scanf_core+0x47c>
9d008a28:	8fa201b4 	lw	v0,436(sp)
9d008a2c:	24020001 	li	v0,1
9d008a30:	afa201a4 	sw	v0,420(sp)
9d008a34:	8fa201b4 	lw	v0,436(sp)
9d008a38:	24420001 	addiu	v0,v0,1
9d008a3c:	afa201b4 	sw	v0,436(sp)
9d008a40:	16200005 	bnez	s1,9d008a58 <__scanf_core+0x49c>
9d008a44:	00001025 	move	v0,zero
9d008a48:	8e420000 	lw	v0,0(s2)
9d008a4c:	24430004 	addiu	v1,v0,4
9d008a50:	ae430000 	sw	v1,0(s2)
9d008a54:	8c420000 	lw	v0,0(v0)
9d008a58:	afa20010 	sw	v0,16(sp)
9d008a5c:	27a701b0 	addiu	a3,sp,432
9d008a60:	00003025 	move	a2,zero
9d008a64:	27a5019c 	addiu	a1,sp,412
9d008a68:	0f403d8d 	jal	9d00f634 <__scan_s>
9d008a6c:	02002025 	move	a0,s0
9d008a70:	1000ff71 	b	9d008838 <__scanf_core+0x27c>
9d008a74:	00000000 	nop
9d008a78:	24020080 	li	v0,128
9d008a7c:	1682ff23 	bne	s4,v0,9d00870c <__scanf_core+0x150>
9d008a80:	8fa201b4 	lw	v0,436(sp)
9d008a84:	24630001 	addiu	v1,v1,1
9d008a88:	afa301b4 	sw	v1,436(sp)
9d008a8c:	8e02003c 	lw	v0,60(s0)
9d008a90:	8e03004c 	lw	v1,76(s0)
9d008a94:	0043182b 	sltu	v1,v0,v1
9d008a98:	1060000b 	beqz	v1,9d008ac8 <__scanf_core+0x50c>
9d008a9c:	00000000 	nop
9d008aa0:	24430001 	addiu	v1,v0,1
9d008aa4:	ae03003c 	sw	v1,60(s0)
9d008aa8:	90420000 	lbu	v0,0(v0)
9d008aac:	24030025 	li	v1,37
9d008ab0:	14430009 	bne	v0,v1,9d008ad8 <__scanf_core+0x51c>
9d008ab4:	8fa201b0 	lw	v0,432(sp)
9d008ab8:	24420001 	addiu	v0,v0,1
9d008abc:	afa201b0 	sw	v0,432(sp)
9d008ac0:	1000ffc2 	b	9d0089cc <__scanf_core+0x410>
9d008ac4:	00008825 	move	s1,zero
9d008ac8:	0f40363a 	jal	9d00d8e8 <__shgetc>
9d008acc:	02002025 	move	a0,s0
9d008ad0:	1000fff7 	b	9d008ab0 <__scanf_core+0x4f4>
9d008ad4:	24030025 	li	v1,37
9d008ad8:	8e02004c 	lw	v0,76(s0)
9d008adc:	5040ffbb 	beqzl	v0,9d0089cc <__scanf_core+0x410>
9d008ae0:	00008825 	move	s1,zero
9d008ae4:	8e02003c 	lw	v0,60(s0)
9d008ae8:	2442ffff 	addiu	v0,v0,-1
9d008aec:	1000fff4 	b	9d008ac0 <__scanf_core+0x504>
9d008af0:	ae02003c 	sw	v0,60(s0)
9d008af4:	1682ff05 	bne	s4,v0,9d00870c <__scanf_core+0x150>
9d008af8:	8fa201b4 	lw	v0,436(sp)
9d008afc:	16200005 	bnez	s1,9d008b14 <__scanf_core+0x558>
9d008b00:	0000a025 	move	s4,zero
9d008b04:	8e420000 	lw	v0,0(s2)
9d008b08:	24440004 	addiu	a0,v0,4
9d008b0c:	ae440000 	sw	a0,0(s2)
9d008b10:	8c540000 	lw	s4,0(v0)
9d008b14:	24620001 	addiu	v0,v1,1
9d008b18:	afa201b4 	sw	v0,436(sp)
9d008b1c:	80640001 	lb	a0,1(v1)
9d008b20:	2402005e 	li	v0,94
9d008b24:	14820004 	bne	a0,v0,9d008b38 <__scanf_core+0x57c>
9d008b28:	00008825 	move	s1,zero
9d008b2c:	24630002 	addiu	v1,v1,2
9d008b30:	afa301b4 	sw	v1,436(sp)
9d008b34:	24110001 	li	s1,1
9d008b38:	27a40018 	addiu	a0,sp,24
9d008b3c:	24060101 	li	a2,257
9d008b40:	0f403cbf 	jal	9d00f2fc <memset>
9d008b44:	02202825 	move	a1,s1
9d008b48:	8fa201b4 	lw	v0,436(sp)
9d008b4c:	a3a00018 	sb	zero,24(sp)
9d008b50:	2404002d 	li	a0,45
9d008b54:	80430000 	lb	v1,0(v0)
9d008b58:	1464001e 	bne	v1,a0,9d008bd4 <__scanf_core+0x618>
9d008b5c:	2404005d 	li	a0,93
9d008b60:	24420001 	addiu	v0,v0,1
9d008b64:	afa201b4 	sw	v0,436(sp)
9d008b68:	24020001 	li	v0,1
9d008b6c:	00511023 	subu	v0,v0,s1
9d008b70:	a3a20046 	sb	v0,70(sp)
9d008b74:	24020001 	li	v0,1
9d008b78:	2405005d 	li	a1,93
9d008b7c:	2406002d 	li	a2,45
9d008b80:	00518823 	subu	s1,v0,s1
9d008b84:	8fa301b4 	lw	v1,436(sp)
9d008b88:	80620000 	lb	v0,0(v1)
9d008b8c:	14450018 	bne	v0,a1,9d008bf0 <__scanf_core+0x634>
9d008b90:	00000000 	nop
9d008b94:	56800037 	bnezl	s4,9d008c74 <__scanf_core+0x6b8>
9d008b98:	00008825 	move	s1,zero
9d008b9c:	8e02003c 	lw	v0,60(s0)
9d008ba0:	8e03004c 	lw	v1,76(s0)
9d008ba4:	0043182b 	sltu	v1,v0,v1
9d008ba8:	10600056 	beqz	v1,9d008d04 <__scanf_core+0x748>
9d008bac:	24430001 	addiu	v1,v0,1
9d008bb0:	ae03003c 	sw	v1,60(s0)
9d008bb4:	90530000 	lbu	s3,0(v0)
9d008bb8:	27a20018 	addiu	v0,sp,24
9d008bbc:	00531021 	addu	v0,v0,s3
9d008bc0:	90420001 	lbu	v0,1(v0)
9d008bc4:	1440004b 	bnez	v0,9d008cf4 <__scanf_core+0x738>
9d008bc8:	0000b825 	move	s7,zero
9d008bcc:	10000037 	b	9d008cac <__scanf_core+0x6f0>
9d008bd0:	8e02004c 	lw	v0,76(s0)
9d008bd4:	1464ffe7 	bne	v1,a0,9d008b74 <__scanf_core+0x5b8>
9d008bd8:	24420001 	addiu	v0,v0,1
9d008bdc:	afa201b4 	sw	v0,436(sp)
9d008be0:	24020001 	li	v0,1
9d008be4:	00511023 	subu	v0,v0,s1
9d008be8:	1000ffe2 	b	9d008b74 <__scanf_core+0x5b8>
9d008bec:	a3a20076 	sb	v0,118(sp)
9d008bf0:	1040ffe8 	beqz	v0,9d008b94 <__scanf_core+0x5d8>
9d008bf4:	00000000 	nop
9d008bf8:	10460009 	beq	v0,a2,9d008c20 <__scanf_core+0x664>
9d008bfc:	8fa201b8 	lw	v0,440(sp)
9d008c00:	8fa201b4 	lw	v0,436(sp)
9d008c04:	27a40018 	addiu	a0,sp,24
9d008c08:	80430000 	lb	v1,0(v0)
9d008c0c:	24420001 	addiu	v0,v0,1
9d008c10:	afa201b4 	sw	v0,436(sp)
9d008c14:	00831821 	addu	v1,a0,v1
9d008c18:	1000ffda 	b	9d008b84 <__scanf_core+0x5c8>
9d008c1c:	a0710001 	sb	s1,1(v1)
9d008c20:	80420000 	lb	v0,0(v0)
9d008c24:	5040fff7 	beqzl	v0,9d008c04 <__scanf_core+0x648>
9d008c28:	8fa201b4 	lw	v0,436(sp)
9d008c2c:	1045fff4 	beq	v0,a1,9d008c00 <__scanf_core+0x644>
9d008c30:	24620001 	addiu	v0,v1,1
9d008c34:	afa201b4 	sw	v0,436(sp)
9d008c38:	8fa201b0 	lw	v0,432(sp)
9d008c3c:	80420000 	lb	v0,0(v0)
9d008c40:	80640001 	lb	a0,1(v1)
9d008c44:	0044202a 	slt	a0,v0,a0
9d008c48:	1080ffed 	beqz	a0,9d008c00 <__scanf_core+0x644>
9d008c4c:	24420001 	addiu	v0,v0,1
9d008c50:	27a40018 	addiu	a0,sp,24
9d008c54:	00822021 	addu	a0,a0,v0
9d008c58:	1000fff9 	b	9d008c40 <__scanf_core+0x684>
9d008c5c:	a0910000 	sb	s1,0(a0)
9d008c60:	a0530000 	sb	s3,0(v0)
9d008c64:	8fa201b0 	lw	v0,432(sp)
9d008c68:	26310001 	addiu	s1,s1,1
9d008c6c:	24420001 	addiu	v0,v0,1
9d008c70:	afa201b0 	sw	v0,432(sp)
9d008c74:	8e02003c 	lw	v0,60(s0)
9d008c78:	8e03004c 	lw	v1,76(s0)
9d008c7c:	0043182b 	sltu	v1,v0,v1
9d008c80:	10600018 	beqz	v1,9d008ce4 <__scanf_core+0x728>
9d008c84:	0220b825 	move	s7,s1
9d008c88:	24430001 	addiu	v1,v0,1
9d008c8c:	ae03003c 	sw	v1,60(s0)
9d008c90:	90530000 	lbu	s3,0(v0)
9d008c94:	27a20018 	addiu	v0,sp,24
9d008c98:	00531021 	addu	v0,v0,s3
9d008c9c:	90420001 	lbu	v0,1(v0)
9d008ca0:	1440ffef 	bnez	v0,9d008c60 <__scanf_core+0x6a4>
9d008ca4:	02911021 	addu	v0,s4,s1
9d008ca8:	8e02004c 	lw	v0,76(s0)
9d008cac:	10400005 	beqz	v0,9d008cc4 <__scanf_core+0x708>
9d008cb0:	8fa201b4 	lw	v0,436(sp)
9d008cb4:	8e02003c 	lw	v0,60(s0)
9d008cb8:	2442ffff 	addiu	v0,v0,-1
9d008cbc:	ae02003c 	sw	v0,60(s0)
9d008cc0:	8fa201b4 	lw	v0,436(sp)
9d008cc4:	24420001 	addiu	v0,v0,1
9d008cc8:	12e0fe8f 	beqz	s7,9d008708 <__scanf_core+0x14c>
9d008ccc:	afa201b4 	sw	v0,436(sp)
9d008cd0:	1280fe8d 	beqz	s4,9d008708 <__scanf_core+0x14c>
9d008cd4:	24110001 	li	s1,1
9d008cd8:	0297a021 	addu	s4,s4,s7
9d008cdc:	1000ff3b 	b	9d0089cc <__scanf_core+0x410>
9d008ce0:	a2800000 	sb	zero,0(s4)
9d008ce4:	0f40363a 	jal	9d00d8e8 <__shgetc>
9d008ce8:	02002025 	move	a0,s0
9d008cec:	1000ffe9 	b	9d008c94 <__scanf_core+0x6d8>
9d008cf0:	00409825 	move	s3,v0
9d008cf4:	8fa201b0 	lw	v0,432(sp)
9d008cf8:	24420001 	addiu	v0,v0,1
9d008cfc:	1000ffa7 	b	9d008b9c <__scanf_core+0x5e0>
9d008d00:	afa201b0 	sw	v0,432(sp)
9d008d04:	0f40363a 	jal	9d00d8e8 <__shgetc>
9d008d08:	02002025 	move	a0,s0
9d008d0c:	1000ffaa 	b	9d008bb8 <__scanf_core+0x5fc>
9d008d10:	00409825 	move	s3,v0

Disassembly of section .text.__intscan:

9d008d14 <__intscan>:
9d008d14:	27bdffb8 	addiu	sp,sp,-72
9d008d18:	8fa2005c 	lw	v0,92(sp)
9d008d1c:	afb20028 	sw	s2,40(sp)
9d008d20:	afbf0044 	sw	ra,68(sp)
9d008d24:	afa20010 	sw	v0,16(sp)
9d008d28:	2ca20025 	sltiu	v0,a1,37
9d008d2c:	afbe0040 	sw	s8,64(sp)
9d008d30:	afb7003c 	sw	s7,60(sp)
9d008d34:	afb60038 	sw	s6,56(sp)
9d008d38:	afb50034 	sw	s5,52(sp)
9d008d3c:	afb40030 	sw	s4,48(sp)
9d008d40:	afb3002c 	sw	s3,44(sp)
9d008d44:	afb10024 	sw	s1,36(sp)
9d008d48:	afb00020 	sw	s0,32(sp)
9d008d4c:	10400006 	beqz	v0,9d008d68 <__intscan+0x54>
9d008d50:	8fb20058 	lw	s2,88(sp)
9d008d54:	24020001 	li	v0,1
9d008d58:	00808025 	move	s0,a0
9d008d5c:	00a08825 	move	s1,a1
9d008d60:	14a20005 	bne	a1,v0,9d008d78 <__intscan+0x64>
9d008d64:	00c09825 	move	s3,a2
9d008d68:	3c02a000 	lui	v0,0xa000
9d008d6c:	24030016 	li	v1,22
9d008d70:	1000005a 	b	9d008edc <__intscan+0x1c8>
9d008d74:	ac430168 	sw	v1,360(v0)
9d008d78:	8e02003c 	lw	v0,60(s0)
9d008d7c:	8e03004c 	lw	v1,76(s0)
9d008d80:	0043182b 	sltu	v1,v0,v1
9d008d84:	1060002b 	beqz	v1,9d008e34 <__intscan+0x120>
9d008d88:	24430001 	addiu	v1,v0,1
9d008d8c:	ae03003c 	sw	v1,60(s0)
9d008d90:	90490000 	lbu	t1,0(v0)
9d008d94:	24020020 	li	v0,32
9d008d98:	1122fff7 	beq	t1,v0,9d008d78 <__intscan+0x64>
9d008d9c:	2522fff7 	addiu	v0,t1,-9
9d008da0:	2c420005 	sltiu	v0,v0,5
9d008da4:	1440fff4 	bnez	v0,9d008d78 <__intscan+0x64>
9d008da8:	2522ffd5 	addiu	v0,t1,-43
9d008dac:	7c020844 	ins	v0,zero,0x1,0x1
9d008db0:	1440000b 	bnez	v0,9d008de0 <__intscan+0xcc>
9d008db4:	0000a025 	move	s4,zero
9d008db8:	8e02003c 	lw	v0,60(s0)
9d008dbc:	8e03004c 	lw	v1,76(s0)
9d008dc0:	3934002d 	xori	s4,t1,0x2d
9d008dc4:	2e940001 	sltiu	s4,s4,1
9d008dc8:	0043182b 	sltu	v1,v0,v1
9d008dcc:	1060001d 	beqz	v1,9d008e44 <__intscan+0x130>
9d008dd0:	0014a023 	negu	s4,s4
9d008dd4:	24430001 	addiu	v1,v0,1
9d008dd8:	ae03003c 	sw	v1,60(s0)
9d008ddc:	90490000 	lbu	t1,0(v0)
9d008de0:	1220001c 	beqz	s1,9d008e54 <__intscan+0x140>
9d008de4:	8e03004c 	lw	v1,76(s0)
9d008de8:	24020010 	li	v0,16
9d008dec:	12220185 	beq	s1,v0,9d009404 <__intscan+0x6f0>
9d008df0:	24020030 	li	v0,48
9d008df4:	3c029d01 	lui	v0,0x9d01
9d008df8:	2442ce5d 	addiu	v0,v0,-12707
9d008dfc:	01221021 	addu	v0,t1,v0
9d008e00:	90420000 	lbu	v0,0(v0)
9d008e04:	0051102b 	sltu	v0,v0,s1
9d008e08:	14400055 	bnez	v0,9d008f60 <__intscan+0x24c>
9d008e0c:	2402000a 	li	v0,10
9d008e10:	10600004 	beqz	v1,9d008e24 <__intscan+0x110>
9d008e14:	00002825 	move	a1,zero
9d008e18:	8e02003c 	lw	v0,60(s0)
9d008e1c:	2442ffff 	addiu	v0,v0,-1
9d008e20:	ae02003c 	sw	v0,60(s0)
9d008e24:	0f403c6a 	jal	9d00f1a8 <__shlim>
9d008e28:	02002025 	move	a0,s0
9d008e2c:	1000ffcf 	b	9d008d6c <__intscan+0x58>
9d008e30:	3c02a000 	lui	v0,0xa000
9d008e34:	0f40363a 	jal	9d00d8e8 <__shgetc>
9d008e38:	02002025 	move	a0,s0
9d008e3c:	1000ffd5 	b	9d008d94 <__intscan+0x80>
9d008e40:	00404825 	move	t1,v0
9d008e44:	0f40363a 	jal	9d00d8e8 <__shgetc>
9d008e48:	02002025 	move	a0,s0
9d008e4c:	1000ffe4 	b	9d008de0 <__intscan+0xcc>
9d008e50:	00404825 	move	t1,v0
9d008e54:	24020030 	li	v0,48
9d008e58:	5522ffe6 	bnel	t1,v0,9d008df4 <__intscan+0xe0>
9d008e5c:	2411000a 	li	s1,10
9d008e60:	8e02003c 	lw	v0,60(s0)
9d008e64:	0043182b 	sltu	v1,v0,v1
9d008e68:	1060002c 	beqz	v1,9d008f1c <__intscan+0x208>
9d008e6c:	24430001 	addiu	v1,v0,1
9d008e70:	ae03003c 	sw	v1,60(s0)
9d008e74:	90490000 	lbu	t1,0(v0)
9d008e78:	35220020 	ori	v0,t1,0x20
9d008e7c:	24030078 	li	v1,120
9d008e80:	14430035 	bne	v0,v1,9d008f58 <__intscan+0x244>
9d008e84:	00000000 	nop
9d008e88:	8e02003c 	lw	v0,60(s0)
9d008e8c:	8e03004c 	lw	v1,76(s0)
9d008e90:	0043182b 	sltu	v1,v0,v1
9d008e94:	10600025 	beqz	v1,9d008f2c <__intscan+0x218>
9d008e98:	24430001 	addiu	v1,v0,1
9d008e9c:	ae03003c 	sw	v1,60(s0)
9d008ea0:	90490000 	lbu	t1,0(v0)
9d008ea4:	3c029d01 	lui	v0,0x9d01
9d008ea8:	2442ce5d 	addiu	v0,v0,-12707
9d008eac:	01221021 	addu	v0,t1,v0
9d008eb0:	90420000 	lbu	v0,0(v0)
9d008eb4:	2c420010 	sltiu	v0,v0,16
9d008eb8:	5440002b 	bnezl	v0,9d008f68 <__intscan+0x254>
9d008ebc:	24110010 	li	s1,16
9d008ec0:	8e02004c 	lw	v0,76(s0)
9d008ec4:	1040014b 	beqz	v0,9d0093f4 <__intscan+0x6e0>
9d008ec8:	00003825 	move	a3,zero
9d008ecc:	1260001b 	beqz	s3,9d008f3c <__intscan+0x228>
9d008ed0:	8e02003c 	lw	v0,60(s0)
9d008ed4:	2442fffe 	addiu	v0,v0,-2
9d008ed8:	ae02003c 	sw	v0,60(s0)
9d008edc:	00003825 	move	a3,zero
9d008ee0:	0000f025 	move	s8,zero
9d008ee4:	8fbf0044 	lw	ra,68(sp)
9d008ee8:	03c01825 	move	v1,s8
9d008eec:	00e01025 	move	v0,a3
9d008ef0:	8fbe0040 	lw	s8,64(sp)
9d008ef4:	8fb7003c 	lw	s7,60(sp)
9d008ef8:	8fb60038 	lw	s6,56(sp)
9d008efc:	8fb50034 	lw	s5,52(sp)
9d008f00:	8fb40030 	lw	s4,48(sp)
9d008f04:	8fb3002c 	lw	s3,44(sp)
9d008f08:	8fb20028 	lw	s2,40(sp)
9d008f0c:	8fb10024 	lw	s1,36(sp)
9d008f10:	8fb00020 	lw	s0,32(sp)
9d008f14:	03e00008 	jr	ra
9d008f18:	27bd0048 	addiu	sp,sp,72
9d008f1c:	0f40363a 	jal	9d00d8e8 <__shgetc>
9d008f20:	02002025 	move	a0,s0
9d008f24:	1000ffd4 	b	9d008e78 <__intscan+0x164>
9d008f28:	00404825 	move	t1,v0
9d008f2c:	0f40363a 	jal	9d00d8e8 <__shgetc>
9d008f30:	02002025 	move	a0,s0
9d008f34:	1000ffdb 	b	9d008ea4 <__intscan+0x190>
9d008f38:	00404825 	move	t1,v0
9d008f3c:	2442ffff 	addiu	v0,v0,-1
9d008f40:	ae02003c 	sw	v0,60(s0)
9d008f44:	00002825 	move	a1,zero
9d008f48:	0f403c6a 	jal	9d00f1a8 <__shlim>
9d008f4c:	02002025 	move	a0,s0
9d008f50:	1000ffe3 	b	9d008ee0 <__intscan+0x1cc>
9d008f54:	00003825 	move	a3,zero
9d008f58:	12200083 	beqz	s1,9d009168 <__intscan+0x454>
9d008f5c:	2402000a 	li	v0,10
9d008f60:	1222007a 	beq	s1,v0,9d00914c <__intscan+0x438>
9d008f64:	3c151999 	lui	s5,0x1999
9d008f68:	2627ffff 	addiu	a3,s1,-1
9d008f6c:	3c139d01 	lui	s3,0x9d01
9d008f70:	00f1a824 	and	s5,a3,s1
9d008f74:	16a000f5 	bnez	s5,9d00934c <__intscan+0x638>
9d008f78:	2673ce5d 	addiu	s3,s3,-12707
9d008f7c:	24020017 	li	v0,23
9d008f80:	72221002 	mul	v0,s1,v0
9d008f84:	3c039d01 	lui	v1,0x9d01
9d008f88:	2463ce50 	addiu	v1,v1,-12720
9d008f8c:	7c421140 	ext	v0,v0,0x5,0x3
9d008f90:	00431021 	addu	v0,v0,v1
9d008f94:	80560000 	lb	s6,0(v0)
9d008f98:	02691021 	addu	v0,s3,t1
9d008f9c:	90570000 	lbu	s7,0(v0)
9d008fa0:	02f1102b 	sltu	v0,s7,s1
9d008fa4:	10400004 	beqz	v0,9d008fb8 <__intscan+0x2a4>
9d008fa8:	3c020800 	lui	v0,0x800
9d008fac:	02a2102b 	sltu	v0,s5,v0
9d008fb0:	5440006f 	bnezl	v0,9d009170 <__intscan+0x45c>
9d008fb4:	8e02003c 	lw	v0,60(s0)
9d008fb8:	02c03025 	move	a2,s6
9d008fbc:	2404ffff 	li	a0,-1
9d008fc0:	2405ffff 	li	a1,-1
9d008fc4:	afa9001c 	sw	t1,28(sp)
9d008fc8:	0f403bea 	jal	9d00efa8 <__lshrdi3>
9d008fcc:	afb50018 	sw	s5,24(sp)
9d008fd0:	8fa70018 	lw	a3,24(sp)
9d008fd4:	8fa9001c 	lw	t1,28(sp)
9d008fd8:	0000f025 	move	s8,zero
9d008fdc:	afa20014 	sw	v0,20(sp)
9d008fe0:	0060a825 	move	s5,v1
9d008fe4:	02691021 	addu	v0,s3,t1
9d008fe8:	90570000 	lbu	s7,0(v0)
9d008fec:	02f1102b 	sltu	v0,s7,s1
9d008ff0:	1040009e 	beqz	v0,9d00926c <__intscan+0x558>
9d008ff4:	02be102b 	sltu	v0,s5,s8
9d008ff8:	5440009d 	bnezl	v0,9d009270 <__intscan+0x55c>
9d008ffc:	3c139d01 	lui	s3,0x9d01
9d009000:	17d50004 	bne	s8,s5,9d009014 <__intscan+0x300>
9d009004:	8fa20014 	lw	v0,20(sp)
9d009008:	0047102b 	sltu	v0,v0,a3
9d00900c:	54400098 	bnezl	v0,9d009270 <__intscan+0x55c>
9d009010:	3c139d01 	lui	s3,0x9d01
9d009014:	8e02003c 	lw	v0,60(s0)
9d009018:	8e03004c 	lw	v1,76(s0)
9d00901c:	0043182b 	sltu	v1,v0,v1
9d009020:	10600060 	beqz	v1,9d0091a4 <__intscan+0x490>
9d009024:	24430001 	addiu	v1,v0,1
9d009028:	ae03003c 	sw	v1,60(s0)
9d00902c:	90490000 	lbu	t1,0(v0)
9d009030:	00e02025 	move	a0,a3
9d009034:	03c02825 	move	a1,s8
9d009038:	02c03025 	move	a2,s6
9d00903c:	0f403bf9 	jal	9d00efe4 <__ashldi3>
9d009040:	afa90018 	sw	t1,24(sp)
9d009044:	02e23825 	or	a3,s7,v0
9d009048:	0060f025 	move	s8,v1
9d00904c:	1000ffe5 	b	9d008fe4 <__intscan+0x2d0>
9d009050:	8fa90018 	lw	t1,24(sp)
9d009054:	8e03004c 	lw	v1,76(s0)
9d009058:	0043182b 	sltu	v1,v0,v1
9d00905c:	10600036 	beqz	v1,9d009138 <__intscan+0x424>
9d009060:	24430001 	addiu	v1,v0,1
9d009064:	ae03003c 	sw	v1,60(s0)
9d009068:	90420000 	lbu	v0,0(v0)
9d00906c:	2407000a 	li	a3,10
9d009070:	72671802 	mul	v1,s3,a3
9d009074:	00693821 	addu	a3,v1,t1
9d009078:	24f3ffd0 	addiu	s3,a3,-48
9d00907c:	00404825 	move	t1,v0
9d009080:	2522ffd0 	addiu	v0,t1,-48
9d009084:	2c42000a 	sltiu	v0,v0,10
9d009088:	10400003 	beqz	v0,9d009098 <__intscan+0x384>
9d00908c:	0275102b 	sltu	v0,s3,s5
9d009090:	5440fff0 	bnezl	v0,9d009054 <__intscan+0x340>
9d009094:	8e02003c 	lw	v0,60(s0)
9d009098:	3c151999 	lui	s5,0x1999
9d00909c:	02603825 	move	a3,s3
9d0090a0:	0000f025 	move	s8,zero
9d0090a4:	36b5999a 	ori	s5,s5,0x999a
9d0090a8:	2533ffd0 	addiu	s3,t1,-48
9d0090ac:	2e62000a 	sltiu	v0,s3,10
9d0090b0:	10400087 	beqz	v0,9d0092d0 <__intscan+0x5bc>
9d0090b4:	03d5102b 	sltu	v0,s8,s5
9d0090b8:	1040006c 	beqz	v0,9d00926c <__intscan+0x558>
9d0090bc:	26a2ffff 	addiu	v0,s5,-1
9d0090c0:	17c20006 	bne	s8,v0,9d0090dc <__intscan+0x3c8>
9d0090c4:	2402000a 	li	v0,10
9d0090c8:	3c029999 	lui	v0,0x9999
9d0090cc:	3442999a 	ori	v0,v0,0x999a
9d0090d0:	00e2102b 	sltu	v0,a3,v0
9d0090d4:	10400065 	beqz	v0,9d00926c <__intscan+0x558>
9d0090d8:	2402000a 	li	v0,10
9d0090dc:	00470019 	multu	v0,a3
9d0090e0:	0000b810 	mfhi	s7
9d0090e4:	0000b012 	mflo	s6
9d0090e8:	705e1802 	mul	v1,v0,s8
9d0090ec:	0077b821 	addu	s7,v1,s7
9d0090f0:	2403ffff 	li	v1,-1
9d0090f4:	16e30004 	bne	s7,v1,9d009108 <__intscan+0x3f4>
9d0090f8:	00131027 	nor	v0,zero,s3
9d0090fc:	0056102b 	sltu	v0,v0,s6
9d009100:	5440005b 	bnezl	v0,9d009270 <__intscan+0x55c>
9d009104:	3c139d01 	lui	s3,0x9d01
9d009108:	8e02003c 	lw	v0,60(s0)
9d00910c:	8e03004c 	lw	v1,76(s0)
9d009110:	0043182b 	sltu	v1,v0,v1
9d009114:	10600010 	beqz	v1,9d009158 <__intscan+0x444>
9d009118:	00000000 	nop
9d00911c:	24430001 	addiu	v1,v0,1
9d009120:	ae03003c 	sw	v1,60(s0)
9d009124:	90490000 	lbu	t1,0(v0)
9d009128:	02763821 	addu	a3,s3,s6
9d00912c:	00f6402b 	sltu	t0,a3,s6
9d009130:	1000ffdd 	b	9d0090a8 <__intscan+0x394>
9d009134:	0117f021 	addu	s8,t0,s7
9d009138:	02002025 	move	a0,s0
9d00913c:	0f40363a 	jal	9d00d8e8 <__shgetc>
9d009140:	afa90014 	sw	t1,20(sp)
9d009144:	1000ffc9 	b	9d00906c <__intscan+0x358>
9d009148:	8fa90014 	lw	t1,20(sp)
9d00914c:	00009825 	move	s3,zero
9d009150:	1000ffcb 	b	9d009080 <__intscan+0x36c>
9d009154:	36b59999 	ori	s5,s5,0x9999
9d009158:	0f40363a 	jal	9d00d8e8 <__shgetc>
9d00915c:	02002025 	move	a0,s0
9d009160:	1000fff1 	b	9d009128 <__intscan+0x414>
9d009164:	00404825 	move	t1,v0
9d009168:	1000ff7f 	b	9d008f68 <__intscan+0x254>
9d00916c:	24110008 	li	s1,8
9d009170:	8e03004c 	lw	v1,76(s0)
9d009174:	0043182b 	sltu	v1,v0,v1
9d009178:	10600006 	beqz	v1,9d009194 <__intscan+0x480>
9d00917c:	24430001 	addiu	v1,v0,1
9d009180:	ae03003c 	sw	v1,60(s0)
9d009184:	90490000 	lbu	t1,0(v0)
9d009188:	02d53804 	sllv	a3,s5,s6
9d00918c:	1000ff82 	b	9d008f98 <__intscan+0x284>
9d009190:	00f7a825 	or	s5,a3,s7
9d009194:	0f40363a 	jal	9d00d8e8 <__shgetc>
9d009198:	02002025 	move	a0,s0
9d00919c:	1000fffa 	b	9d009188 <__intscan+0x474>
9d0091a0:	00404825 	move	t1,v0
9d0091a4:	02002025 	move	a0,s0
9d0091a8:	0f40363a 	jal	9d00d8e8 <__shgetc>
9d0091ac:	afa70018 	sw	a3,24(sp)
9d0091b0:	00404825 	move	t1,v0
9d0091b4:	1000ff9e 	b	9d009030 <__intscan+0x31c>
9d0091b8:	8fa70018 	lw	a3,24(sp)
9d0091bc:	8e03004c 	lw	v1,76(s0)
9d0091c0:	0043182b 	sltu	v1,v0,v1
9d0091c4:	1060005d 	beqz	v1,9d00933c <__intscan+0x628>
9d0091c8:	24430001 	addiu	v1,v0,1
9d0091cc:	ae03003c 	sw	v1,60(s0)
9d0091d0:	90490000 	lbu	t1,0(v0)
9d0091d4:	72351002 	mul	v0,s1,s5
9d0091d8:	0056a821 	addu	s5,v0,s6
9d0091dc:	02691021 	addu	v0,s3,t1
9d0091e0:	90560000 	lbu	s6,0(v0)
9d0091e4:	02d1102b 	sltu	v0,s6,s1
9d0091e8:	10400005 	beqz	v0,9d009200 <__intscan+0x4ec>
9d0091ec:	3c02071c 	lui	v0,0x71c
9d0091f0:	244271c7 	addiu	v0,v0,29127
9d0091f4:	02a2102b 	sltu	v0,s5,v0
9d0091f8:	5440fff0 	bnezl	v0,9d0091bc <__intscan+0x4a8>
9d0091fc:	8e02003c 	lw	v0,60(s0)
9d009200:	02a03825 	move	a3,s5
9d009204:	0000f025 	move	s8,zero
9d009208:	02691021 	addu	v0,s3,t1
9d00920c:	90550000 	lbu	s5,0(v0)
9d009210:	02b1102b 	sltu	v0,s5,s1
9d009214:	10400015 	beqz	v0,9d00926c <__intscan+0x558>
9d009218:	00f10019 	multu	a3,s1
9d00921c:	00002012 	mflo	a0
9d009220:	13c00009 	beqz	s8,9d009248 <__intscan+0x534>
9d009224:	00002810 	mfhi	a1
9d009228:	023e0019 	multu	s1,s8
9d00922c:	00006012 	mflo	t4
9d009230:	00ac1021 	addu	v0,a1,t4
9d009234:	004c102b 	sltu	v0,v0,t4
9d009238:	00006810 	mfhi	t5
9d00923c:	004d1021 	addu	v0,v0,t5
9d009240:	5440000b 	bnezl	v0,9d009270 <__intscan+0x55c>
9d009244:	3c139d01 	lui	s3,0x9d01
9d009248:	73d11002 	mul	v0,s8,s1
9d00924c:	2403ffff 	li	v1,-1
9d009250:	0080b025 	move	s6,a0
9d009254:	0045b821 	addu	s7,v0,a1
9d009258:	16e3003e 	bne	s7,v1,9d009354 <__intscan+0x640>
9d00925c:	00151027 	nor	v0,zero,s5
9d009260:	0044102b 	sltu	v0,v0,a0
9d009264:	5040003c 	beqzl	v0,9d009358 <__intscan+0x644>
9d009268:	8e02003c 	lw	v0,60(s0)
9d00926c:	3c139d01 	lui	s3,0x9d01
9d009270:	2673ce5d 	addiu	s3,s3,-12707
9d009274:	01334821 	addu	t1,t1,s3
9d009278:	91220000 	lbu	v0,0(t1)
9d00927c:	0051102b 	sltu	v0,v0,s1
9d009280:	50400014 	beqzl	v0,9d0092d4 <__intscan+0x5c0>
9d009284:	8e02004c 	lw	v0,76(s0)
9d009288:	8e02003c 	lw	v0,60(s0)
9d00928c:	8e03004c 	lw	v1,76(s0)
9d009290:	0043182b 	sltu	v1,v0,v1
9d009294:	1060003e 	beqz	v1,9d009390 <__intscan+0x67c>
9d009298:	24430001 	addiu	v1,v0,1
9d00929c:	ae03003c 	sw	v1,60(s0)
9d0092a0:	90420000 	lbu	v0,0(v0)
9d0092a4:	02621021 	addu	v0,s3,v0
9d0092a8:	90420000 	lbu	v0,0(v0)
9d0092ac:	0051102b 	sltu	v0,v0,s1
9d0092b0:	1440fff5 	bnez	v0,9d009288 <__intscan+0x574>
9d0092b4:	3c02a000 	lui	v0,0xa000
9d0092b8:	24030022 	li	v1,34
9d0092bc:	8fbe0010 	lw	s8,16(sp)
9d0092c0:	ac430168 	sw	v1,360(v0)
9d0092c4:	32420001 	andi	v0,s2,0x1
9d0092c8:	02403825 	move	a3,s2
9d0092cc:	0002a00b 	movn	s4,zero,v0
9d0092d0:	8e02004c 	lw	v0,76(s0)
9d0092d4:	10400005 	beqz	v0,9d0092ec <__intscan+0x5d8>
9d0092d8:	8fa20010 	lw	v0,16(sp)
9d0092dc:	8e02003c 	lw	v0,60(s0)
9d0092e0:	2442ffff 	addiu	v0,v0,-1
9d0092e4:	ae02003c 	sw	v0,60(s0)
9d0092e8:	8fa20010 	lw	v0,16(sp)
9d0092ec:	03c2102b 	sltu	v0,s8,v0
9d0092f0:	14400039 	bnez	v0,9d0093d8 <__intscan+0x6c4>
9d0092f4:	8fa20010 	lw	v0,16(sp)
9d0092f8:	145e0003 	bne	v0,s8,9d009308 <__intscan+0x5f4>
9d0092fc:	00f2102b 	sltu	v0,a3,s2
9d009300:	14400036 	bnez	v0,9d0093dc <__intscan+0x6c8>
9d009304:	2402ffff 	li	v0,-1
9d009308:	32420001 	andi	v0,s2,0x1
9d00930c:	14400025 	bnez	v0,9d0093a4 <__intscan+0x690>
9d009310:	8fa20010 	lw	v0,16(sp)
9d009314:	16800022 	bnez	s4,9d0093a0 <__intscan+0x68c>
9d009318:	3c02a000 	lui	v0,0xa000
9d00931c:	24030022 	li	v1,34
9d009320:	ac430168 	sw	v1,360(v0)
9d009324:	8fa20010 	lw	v0,16(sp)
9d009328:	2647ffff 	addiu	a3,s2,-1
9d00932c:	00f2902b 	sltu	s2,a3,s2
9d009330:	2451ffff 	addiu	s1,v0,-1
9d009334:	1000feeb 	b	9d008ee4 <__intscan+0x1d0>
9d009338:	0251f021 	addu	s8,s2,s1
9d00933c:	0f40363a 	jal	9d00d8e8 <__shgetc>
9d009340:	02002025 	move	a0,s0
9d009344:	1000ffa3 	b	9d0091d4 <__intscan+0x4c0>
9d009348:	00404825 	move	t1,v0
9d00934c:	1000ffa3 	b	9d0091dc <__intscan+0x4c8>
9d009350:	0000a825 	move	s5,zero
9d009354:	8e02003c 	lw	v0,60(s0)
9d009358:	8e03004c 	lw	v1,76(s0)
9d00935c:	0043182b 	sltu	v1,v0,v1
9d009360:	10600007 	beqz	v1,9d009380 <__intscan+0x66c>
9d009364:	24430001 	addiu	v1,v0,1
9d009368:	ae03003c 	sw	v1,60(s0)
9d00936c:	90490000 	lbu	t1,0(v0)
9d009370:	02b63821 	addu	a3,s5,s6
9d009374:	00f6402b 	sltu	t0,a3,s6
9d009378:	1000ffa3 	b	9d009208 <__intscan+0x4f4>
9d00937c:	0117f021 	addu	s8,t0,s7
9d009380:	0f40363a 	jal	9d00d8e8 <__shgetc>
9d009384:	02002025 	move	a0,s0
9d009388:	1000fff9 	b	9d009370 <__intscan+0x65c>
9d00938c:	00404825 	move	t1,v0
9d009390:	0f40363a 	jal	9d00d8e8 <__shgetc>
9d009394:	02002025 	move	a0,s0
9d009398:	1000ffc3 	b	9d0092a8 <__intscan+0x594>
9d00939c:	02621021 	addu	v0,s3,v0
9d0093a0:	8fa20010 	lw	v0,16(sp)
9d0093a4:	005e102b 	sltu	v0,v0,s8
9d0093a8:	14400005 	bnez	v0,9d0093c0 <__intscan+0x6ac>
9d0093ac:	8fa20010 	lw	v0,16(sp)
9d0093b0:	17c20009 	bne	s8,v0,9d0093d8 <__intscan+0x6c4>
9d0093b4:	0247102b 	sltu	v0,s2,a3
9d0093b8:	10400008 	beqz	v0,9d0093dc <__intscan+0x6c8>
9d0093bc:	2402ffff 	li	v0,-1
9d0093c0:	3c02a000 	lui	v0,0xa000
9d0093c4:	24030022 	li	v1,34
9d0093c8:	ac430168 	sw	v1,360(v0)
9d0093cc:	02403825 	move	a3,s2
9d0093d0:	1000fec4 	b	9d008ee4 <__intscan+0x1d0>
9d0093d4:	8fbe0010 	lw	s8,16(sp)
9d0093d8:	2402ffff 	li	v0,-1
9d0093dc:	1682fec1 	bne	s4,v0,9d008ee4 <__intscan+0x1d0>
9d0093e0:	001e4023 	negu	t0,s8
9d0093e4:	00073823 	negu	a3,a3
9d0093e8:	0007102b 	sltu	v0,zero,a3
9d0093ec:	1000febd 	b	9d008ee4 <__intscan+0x1d0>
9d0093f0:	0102f023 	subu	s8,t0,v0
9d0093f4:	1660febb 	bnez	s3,9d008ee4 <__intscan+0x1d0>
9d0093f8:	0000f025 	move	s8,zero
9d0093fc:	1000fed2 	b	9d008f48 <__intscan+0x234>
9d009400:	00002825 	move	a1,zero
9d009404:	1122fe96 	beq	t1,v0,9d008e60 <__intscan+0x14c>
9d009408:	3c029d01 	lui	v0,0x9d01
9d00940c:	1000fe7b 	b	9d008dfc <__intscan+0xe8>
9d009410:	2442ce5d 	addiu	v0,v0,-12707

Disassembly of section .text:

9d009414 <modeToString>:
#define INA219_REG_CURRENT 0x04

volatile int dutyCycle = 0;
const char *modeToString(enum mode_t mode)
{
	switch (mode)
9d009414:	2c820005 	sltiu	v0,a0,5
9d009418:	10400019 	beqz	v0,9d009480 <__jend_modeToString_4+0x30>
9d00941c:	3c029d00 	lui	v0,0x9d00
9d009420:	00041080 	sll	v0,a0,0x2
9d009424:	3c049d01 	lui	a0,0x9d01
9d009428:	2484943c 	addiu	a0,a0,-27588
9d00942c:	00822021 	addu	a0,a0,v0
9d009430:	8c820000 	lw	v0,0(a0)
9d009434:	00400008 	jr	v0
9d009438:	00000000 	nop

9d00943c <__jump_modeToString_4>:
9d00943c:	9d009488 9d009450 9d00945c 9d009468     ....P...\...h...
9d00944c:	9d009474                                t...

9d009450 <__jend_modeToString_4>:
	{
	case IDLE:
		return "IDLE";
	case PWM:
		return "PWM";
9d009450:	3c029d00 	lui	v0,0x9d00
9d009454:	03e00008 	jr	ra
9d009458:	244274f0 	addiu	v0,v0,29936
	case ITEST:
		return "ITEST";
9d00945c:	3c029d00 	lui	v0,0x9d00
9d009460:	03e00008 	jr	ra
9d009464:	244274d8 	addiu	v0,v0,29912
	case HOLD:
		return "HOLD";
9d009468:	3c029d00 	lui	v0,0x9d00
9d00946c:	03e00008 	jr	ra
9d009470:	244274e0 	addiu	v0,v0,29920
	case TRACK:
		return "TRACK";
9d009474:	3c029d00 	lui	v0,0x9d00
9d009478:	03e00008 	jr	ra
9d00947c:	244274e8 	addiu	v0,v0,29928
	default:
		return "UNKNOWN";
9d009480:	03e00008 	jr	ra
9d009484:	244274c8 	addiu	v0,v0,29896
		return "IDLE";
9d009488:	3c029d00 	lui	v0,0x9d00
	}
}
9d00948c:	03e00008 	jr	ra
9d009490:	244274d0 	addiu	v0,v0,29904

9d009494 <Controller>:

void __ISR(_TIMER_2_VECTOR, IPL5SOFT) Controller(void)
{
9d009494:	415de800 	rdpgpr	sp,sp
9d009498:	401a7000 	mfc0	k0,c0_epc
9d00949c:	401b6000 	mfc0	k1,c0_status
9d0094a0:	27bdff78 	addiu	sp,sp,-136
9d0094a4:	afba0084 	sw	k0,132(sp)
9d0094a8:	401a6002 	mfc0	k0,c0_srsctl
9d0094ac:	afbb0080 	sw	k1,128(sp)
9d0094b0:	afba007c 	sw	k0,124(sp)
9d0094b4:	7c1b7844 	ins	k1,zero,0x1,0xf
9d0094b8:	377b1400 	ori	k1,k1,0x1400
9d0094bc:	409b6000 	mtc0	k1,c0_status
9d0094c0:	afbf006c 	sw	ra,108(sp)
9d0094c4:	afbe0068 	sw	s8,104(sp)
9d0094c8:	afb90064 	sw	t9,100(sp)
9d0094cc:	afb80060 	sw	t8,96(sp)
9d0094d0:	afb2005c 	sw	s2,92(sp)
9d0094d4:	afb10058 	sw	s1,88(sp)
9d0094d8:	afb00054 	sw	s0,84(sp)
9d0094dc:	afaf0050 	sw	t7,80(sp)
9d0094e0:	afae004c 	sw	t6,76(sp)
9d0094e4:	afad0048 	sw	t5,72(sp)
9d0094e8:	afac0044 	sw	t4,68(sp)
9d0094ec:	afab0040 	sw	t3,64(sp)
9d0094f0:	afaa003c 	sw	t2,60(sp)
9d0094f4:	afa90038 	sw	t1,56(sp)
9d0094f8:	afa80034 	sw	t0,52(sp)
9d0094fc:	afa70030 	sw	a3,48(sp)
9d009500:	afa6002c 	sw	a2,44(sp)
9d009504:	afa50028 	sw	a1,40(sp)
9d009508:	afa40024 	sw	a0,36(sp)
9d00950c:	afa30020 	sw	v1,32(sp)
9d009510:	afa2001c 	sw	v0,28(sp)
9d009514:	afa10018 	sw	at,24(sp)
9d009518:	00001012 	mflo	v0
9d00951c:	afa20074 	sw	v0,116(sp)
9d009520:	00001810 	mfhi	v1
9d009524:	afa30070 	sw	v1,112(sp)
9d009528:	03a0f025 	move	s8,sp
	enum mode_t currentMode = get_mode();
9d00952c:	0f403d5e 	jal	9d00f578 <get_mode>
9d009530:	00000000 	nop
	switch (currentMode)
9d009534:	1040002d 	beqz	v0,9d0095ec <Controller+0x158>
9d009538:	24110001 	li	s1,1
9d00953c:	1051003b 	beq	v0,s1,9d00962c <Controller+0x198>
9d009540:	00000000 	nop
				break;
			}
	}

	// insert line to clear interrupt flag
	IFS0bits.T2IF = 0;
9d009544:	3c10bf88 	lui	s0,0xbf88
9d009548:	8e111030 	lw	s1,4144(s0)
9d00954c:	7c114a44 	ins	s1,zero,0x9,0x1
9d009550:	ae111030 	sw	s1,4144(s0)
}
9d009554:	03c0e825 	move	sp,s8
9d009558:	8fa20074 	lw	v0,116(sp)
9d00955c:	00400013 	mtlo	v0
9d009560:	8fa30070 	lw	v1,112(sp)
9d009564:	00600011 	mthi	v1
9d009568:	8fbf006c 	lw	ra,108(sp)
9d00956c:	8fbe0068 	lw	s8,104(sp)
9d009570:	8fb90064 	lw	t9,100(sp)
9d009574:	8fb80060 	lw	t8,96(sp)
9d009578:	8fb2005c 	lw	s2,92(sp)
9d00957c:	8fb10058 	lw	s1,88(sp)
9d009580:	8fb00054 	lw	s0,84(sp)
9d009584:	8faf0050 	lw	t7,80(sp)
9d009588:	8fae004c 	lw	t6,76(sp)
9d00958c:	8fad0048 	lw	t5,72(sp)
9d009590:	8fac0044 	lw	t4,68(sp)
9d009594:	8fab0040 	lw	t3,64(sp)
9d009598:	8faa003c 	lw	t2,60(sp)
9d00959c:	8fa90038 	lw	t1,56(sp)
9d0095a0:	8fa80034 	lw	t0,52(sp)
9d0095a4:	8fa70030 	lw	a3,48(sp)
9d0095a8:	8fa6002c 	lw	a2,44(sp)
9d0095ac:	8fa50028 	lw	a1,40(sp)
9d0095b0:	8fa40024 	lw	a0,36(sp)
9d0095b4:	8fa30020 	lw	v1,32(sp)
9d0095b8:	8fa2001c 	lw	v0,28(sp)
9d0095bc:	8fa10018 	lw	at,24(sp)
9d0095c0:	41606000 	di
9d0095c4:	000000c0 	ehb
9d0095c8:	8fba0084 	lw	k0,132(sp)
9d0095cc:	8fbb0080 	lw	k1,128(sp)
9d0095d0:	409a7000 	mtc0	k0,c0_epc
9d0095d4:	8fba007c 	lw	k0,124(sp)
9d0095d8:	27bd0088 	addiu	sp,sp,136
9d0095dc:	409a6002 	mtc0	k0,c0_srsctl
9d0095e0:	41dde800 	wrpgpr	sp,sp
9d0095e4:	409b6000 	mtc0	k1,c0_status
9d0095e8:	42000018 	eret
				dutyCycle = 0;
9d0095ec:	af808020 	sw	zero,-32736(gp)
				OC1RS = PR3 * dutyCycle / 100;
9d0095f0:	3c10bf80 	lui	s0,0xbf80
9d0095f4:	8e110a20 	lw	s1,2592(s0)
9d0095f8:	8f908020 	lw	s0,-32736(gp)
9d0095fc:	00009012 	mflo	s2
9d009600:	afd20010 	sw	s2,16(s8)
9d009604:	72118002 	mul	s0,s0,s1
9d009608:	3c1151eb 	lui	s1,0x51eb
9d00960c:	3631851f 	ori	s1,s1,0x851f
9d009610:	02110019 	multu	s0,s1
9d009614:	00008010 	mfhi	s0
9d009618:	00108142 	srl	s0,s0,0x5
9d00961c:	3c11bf80 	lui	s1,0xbf80
9d009620:	ae303020 	sw	s0,12320(s1)
				break;
9d009624:	1000ffc8 	b	9d009548 <Controller+0xb4>
9d009628:	3c10bf88 	lui	s0,0xbf88
				if (dutyCycle > 0)
9d00962c:	8f908020 	lw	s0,-32736(gp)
9d009630:	1a000014 	blez	s0,9d009684 <Controller+0x1f0>
9d009634:	3c10bf80 	lui	s0,0xbf80
					OC1RS = PR3 * dutyCycle / 100;
9d009638:	8e110a20 	lw	s1,2592(s0)
9d00963c:	8f908020 	lw	s0,-32736(gp)
9d009640:	00009012 	mflo	s2
9d009644:	afd20010 	sw	s2,16(s8)
9d009648:	72118002 	mul	s0,s0,s1
9d00964c:	3c1151eb 	lui	s1,0x51eb
9d009650:	3631851f 	ori	s1,s1,0x851f
9d009654:	02110019 	multu	s0,s1
9d009658:	00008010 	mfhi	s0
9d00965c:	00108142 	srl	s0,s0,0x5
9d009660:	3c11bf80 	lui	s1,0xbf80
9d009664:	ae303020 	sw	s0,12320(s1)
					LATAbits.LATA0 = 1;
9d009668:	3c10bf88 	lui	s0,0xbf88
9d00966c:	92116030 	lbu	s1,24624(s0)
9d009670:	24120001 	li	s2,1
9d009674:	7e510004 	ins	s1,s2,0x0,0x1
9d009678:	a2116030 	sb	s1,24624(s0)
9d00967c:	1000ffb2 	b	9d009548 <Controller+0xb4>
9d009680:	3c10bf88 	lui	s0,0xbf88
				else if (dutyCycle < 0)
9d009684:	8f908020 	lw	s0,-32736(gp)
9d009688:	0601ffae 	bgez	s0,9d009544 <Controller+0xb0>
9d00968c:	3c10bf80 	lui	s0,0xbf80
					OC1RS = -PR3 * dutyCycle / 100;
9d009690:	8e110a20 	lw	s1,2592(s0)
9d009694:	8f908020 	lw	s0,-32736(gp)
9d009698:	00009012 	mflo	s2
9d00969c:	afd20010 	sw	s2,16(s8)
9d0096a0:	72118002 	mul	s0,s0,s1
9d0096a4:	00108023 	negu	s0,s0
9d0096a8:	3c1151eb 	lui	s1,0x51eb
9d0096ac:	3631851f 	ori	s1,s1,0x851f
9d0096b0:	02110019 	multu	s0,s1
9d0096b4:	00008010 	mfhi	s0
9d0096b8:	00108142 	srl	s0,s0,0x5
9d0096bc:	3c11bf80 	lui	s1,0xbf80
9d0096c0:	ae303020 	sw	s0,12320(s1)
					LATAbits.LATA0 = 0;
9d0096c4:	3c10bf88 	lui	s0,0xbf88
9d0096c8:	92116030 	lbu	s1,24624(s0)
9d0096cc:	7c110004 	ins	s1,zero,0x0,0x1
9d0096d0:	a2116030 	sb	s1,24624(s0)
	IFS0bits.T2IF = 0;
9d0096d4:	1000ff9c 	b	9d009548 <Controller+0xb4>
9d0096d8:	3c10bf88 	lui	s0,0xbf88

9d0096dc <Setup_PWM>:

void Setup_PWM()
{
9d0096dc:	27bdfff8 	addiu	sp,sp,-8
9d0096e0:	afbf0004 	sw	ra,4(sp)
	
	PR3 = 2400 - 1;		  // 20kHz PWM Waveform
9d0096e4:	3c02bf80 	lui	v0,0xbf80
9d0096e8:	2403095f 	li	v1,2399
9d0096ec:	ac430a20 	sw	v1,2592(v0)
	__builtin_disable_interrupts();
9d0096f0:	41626000 	di	v0
9d0096f4:	000000c0 	ehb
	T2CONbits.TCKPS = 0;
9d0096f8:	3c04bf80 	lui	a0,0xbf80
9d0096fc:	94820800 	lhu	v0,2048(a0)
9d009700:	7c023104 	ins	v0,zero,0x4,0x3
9d009704:	a4820800 	sh	v0,2048(a0)
	PR2 = 9600 - 1; // 5kHz ISR
9d009708:	3c02bf80 	lui	v0,0xbf80
9d00970c:	2403257f 	li	v1,9599
9d009710:	ac430820 	sw	v1,2080(v0)
	TMR2 = 0;
9d009714:	3c02bf80 	lui	v0,0xbf80
9d009718:	ac400810 	sw	zero,2064(v0)
	IPC2bits.T2IP = 5;
9d00971c:	3c02bf88 	lui	v0,0xbf88
9d009720:	8c4310b0 	lw	v1,4272(v0)
9d009724:	24060005 	li	a2,5
9d009728:	7cc32084 	ins	v1,a2,0x2,0x3
9d00972c:	ac4310b0 	sw	v1,4272(v0)
	IPC2bits.T2IS = 0;
9d009730:	8c4310b0 	lw	v1,4272(v0)
9d009734:	7c030804 	ins	v1,zero,0x0,0x2
9d009738:	ac4310b0 	sw	v1,4272(v0)
	IFS0bits.T2IF = 0;
9d00973c:	3c02bf88 	lui	v0,0xbf88
9d009740:	8c431030 	lw	v1,4144(v0)
9d009744:	7c034a44 	ins	v1,zero,0x9,0x1
9d009748:	ac431030 	sw	v1,4144(v0)
	IEC0bits.T2IE = 1;
9d00974c:	3c02bf88 	lui	v0,0xbf88
9d009750:	8c451060 	lw	a1,4192(v0)
9d009754:	24030001 	li	v1,1
9d009758:	7c654a44 	ins	a1,v1,0x9,0x1
9d00975c:	ac451060 	sw	a1,4192(v0)
	RPB15Rbits.RPB15R = 0b0101;
9d009760:	3c02bf81 	lui	v0,0xbf81
9d009764:	9045fb68 	lbu	a1,-1176(v0)
9d009768:	7cc51804 	ins	a1,a2,0x0,0x4
9d00976c:	a045fb68 	sb	a1,-1176(v0)
	OC1CONbits.OCTSEL = 1;
9d009770:	3c02bf80 	lui	v0,0xbf80
9d009774:	94453000 	lhu	a1,12288(v0)
9d009778:	7c6518c4 	ins	a1,v1,0x3,0x1
9d00977c:	a4453000 	sh	a1,12288(v0)
	T3CONbits.TCKPS = 0;	// Timer3 prescaler N=1 (1:1)
9d009780:	3c05bf80 	lui	a1,0xbf80
9d009784:	94a60a00 	lhu	a2,2560(a1)
9d009788:	7c063104 	ins	a2,zero,0x4,0x3
9d00978c:	a4a60a00 	sh	a2,2560(a1)
	TMR3 = 0;				// initial TMR3 count is 0
9d009790:	3c06bf80 	lui	a2,0xbf80
9d009794:	acc00a10 	sw	zero,2576(a2)
	OC1CONbits.OCM = 0b110; // PWM mode without fault pin; other OC1CON bits are defaults
9d009798:	94463000 	lhu	a2,12288(v0)
9d00979c:	24070006 	li	a3,6
9d0097a0:	7ce61004 	ins	a2,a3,0x0,0x3
9d0097a4:	a4463000 	sh	a2,12288(v0)
	OC1RS = 0;             // duty cycle = OC1RS/(PR3+1)
9d0097a8:	3c06bf80 	lui	a2,0xbf80
9d0097ac:	acc03020 	sw	zero,12320(a2)
	OC1R = 0;              // initialize before turning OC1 on; afterward it is read-only
9d0097b0:	3c06bf80 	lui	a2,0xbf80
9d0097b4:	acc03010 	sw	zero,12304(a2)
	T3CONbits.ON = 1;		// turn on Timer3
9d0097b8:	94a60a00 	lhu	a2,2560(a1)
9d0097bc:	7c667bc4 	ins	a2,v1,0xf,0x1
9d0097c0:	a4a60a00 	sh	a2,2560(a1)
	OC1CONbits.ON = 1;		// turn on OC1
9d0097c4:	94453000 	lhu	a1,12288(v0)
9d0097c8:	7c657bc4 	ins	a1,v1,0xf,0x1
9d0097cc:	a4453000 	sh	a1,12288(v0)
	T2CONbits.ON = 1;
9d0097d0:	94820800 	lhu	v0,2048(a0)
9d0097d4:	7c627bc4 	ins	v0,v1,0xf,0x1
9d0097d8:	a4820800 	sh	v0,2048(a0)
	__builtin_enable_interrupts();
9d0097dc:	41626020 	ei	v0
}
9d0097e0:	8fbf0004 	lw	ra,4(sp)
9d0097e4:	03e00008 	jr	ra
9d0097e8:	27bd0008 	addiu	sp,sp,8

9d0097ec <main>:

int main()
{
9d0097ec:	27bdff00 	addiu	sp,sp,-256
9d0097f0:	afbf00fc 	sw	ra,252(sp)
9d0097f4:	afbe00f8 	sw	s8,248(sp)
9d0097f8:	afb700f4 	sw	s7,244(sp)
9d0097fc:	afb600f0 	sw	s6,240(sp)
9d009800:	afb500ec 	sw	s5,236(sp)
9d009804:	afb400e8 	sw	s4,232(sp)
9d009808:	afb300e4 	sw	s3,228(sp)
9d00980c:	afb200e0 	sw	s2,224(sp)
9d009810:	afb100dc 	sw	s1,220(sp)
	char buffer[BUF_SIZE];
	UART2_Startup();
9d009814:	0f402d8d 	jal	9d00b634 <UART2_Startup>
9d009818:	afb000d8 	sw	s0,216(sp)
	NU32DIP_Startup(); // cache on, min flash wait, interrupts on, LED/button init, UART init
9d00981c:	0f402e77 	jal	9d00b9dc <NU32DIP_Startup>
9d009820:	00000000 	nop
	INA219_Startup();
9d009824:	0f403088 	jal	9d00c220 <INA219_Startup>
9d009828:	00000000 	nop
	Setup_PWM();
9d00982c:	0f4025b7 	jal	9d0096dc <Setup_PWM>
9d009830:	00000000 	nop
	TRISAbits.TRISA0 = 0; // set pin A0 as output
9d009834:	3c02bf88 	lui	v0,0xbf88
9d009838:	90436010 	lbu	v1,24592(v0)
9d00983c:	7c030004 	ins	v1,zero,0x0,0x1
9d009840:	a0436010 	sb	v1,24592(v0)
	LATAbits.LATA0 = 1;
9d009844:	3c02bf88 	lui	v0,0xbf88
9d009848:	90446030 	lbu	a0,24624(v0)
9d00984c:	24030001 	li	v1,1
9d009850:	7c640004 	ins	a0,v1,0x0,0x1
9d009854:	a0446030 	sb	a0,24624(v0)
	NU32DIP_YELLOW = 1; // turn off the LEDs
9d009858:	3c02bf88 	lui	v0,0xbf88
9d00985c:	94446130 	lhu	a0,24880(v0)
9d009860:	7c642944 	ins	a0,v1,0x5,0x1
9d009864:	a4446130 	sh	a0,24880(v0)
	NU32DIP_GREEN = 1;
9d009868:	94446130 	lhu	a0,24880(v0)
9d00986c:	7c642104 	ins	a0,v1,0x4,0x1
9d009870:	a4446130 	sh	a0,24880(v0)
	set_mode(IDLE);
9d009874:	0f403d61 	jal	9d00f584 <set_mode>
9d009878:	00002025 	move	a0,zero
	__builtin_disable_interrupts();
9d00987c:	41626000 	di	v0
9d009880:	000000c0 	ehb
	// in future, initialize modules or peripherals here
	__builtin_enable_interrupts();
9d009884:	41626020 	ei	v0

	while (1)
	{
		NU32DIP_ReadUART1(buffer, BUF_SIZE); // we expect the next character to be a menu command
		NU32DIP_GREEN = 1;					 // clear the error LED
9d009888:	3c10bf88 	lui	s0,0xbf88
		switch (buffer[0])
9d00988c:	3c139d01 	lui	s3,0x9d01
9d009890:	26739900 	addiu	s3,s3,-26368
			break;
		}
		case 'r':
		{
			enum mode_t currentMode = get_mode();
			sprintf(buffer, "%s\r\n", modeToString(currentMode));
9d009894:	3c129d00 	lui	s2,0x9d00
9d009898:	26527510 	addiu	s2,s2,29968
			sscanf(buffer, "%d", &dutyCycle);
9d00989c:	3c1e9d00 	lui	s8,0x9d00
			WriteUART2("b");
9d0098a0:	3c179d00 	lui	s7,0x9d00
			WriteUART2("a");
9d0098a4:	3c149d00 	lui	s4,0x9d00
			float encoderAngle = cnt * degreesPerCount;
9d0098a8:	3c029d00 	lui	v0,0x9d00
9d0098ac:	8c567518 	lw	s6,29976(v0)
			sprintf(buffer, "%f\r\n", encoderAngle);
9d0098b0:	3c119d00 	lui	s1,0x9d00
			sprintf(buffer, "%d\r\n", get_encoder_count());
9d0098b4:	3c159d00 	lui	s5,0x9d00
		NU32DIP_ReadUART1(buffer, BUF_SIZE); // we expect the next character to be a menu command
9d0098b8:	240500c8 	li	a1,200
9d0098bc:	0f402ebf 	jal	9d00bafc <NU32DIP_ReadUART1>
9d0098c0:	27a40010 	addiu	a0,sp,16
		NU32DIP_GREEN = 1;					 // clear the error LED
9d0098c4:	96026130 	lhu	v0,24880(s0)
9d0098c8:	24030001 	li	v1,1
9d0098cc:	7c622104 	ins	v0,v1,0x4,0x1
9d0098d0:	a6026130 	sh	v0,24880(s0)
		switch (buffer[0])
9d0098d4:	93a20010 	lbu	v0,16(sp)
9d0098d8:	2442ff9f 	addiu	v0,v0,-97
9d0098dc:	304300ff 	andi	v1,v0,0xff
9d0098e0:	2c630012 	sltiu	v1,v1,18
9d0098e4:	10600083 	beqz	v1,9d009af4 <__jend_main_22+0x1ac>
9d0098e8:	304200ff 	andi	v0,v0,0xff
9d0098ec:	00021080 	sll	v0,v0,0x2
9d0098f0:	02621021 	addu	v0,s3,v0
9d0098f4:	8c420000 	lw	v0,0(v0)
9d0098f8:	00400008 	jr	v0
9d0098fc:	00000000 	nop

9d009900 <__jump_main_22>:
9d009900:	9d009948 9d009984 9d0099b8 9d009a00     H...............
9d009910:	9d009a68 9d009a78 9d009af4 9d009af4     h...x...........
9d009920:	9d009af4 9d009af4 9d009af4 9d009af4     ................
9d009930:	9d009af4 9d009af4 9d009af4 9d009aa4     ................
9d009940:	9d009ab4 9d009ac4                       ........

9d009948 <__jend_main_22>:
			float adcReading = readINA219(INA219_REG_CURRENT);
9d009948:	0f403098 	jal	9d00c260 <readINA219>
9d00994c:	24040004 	li	a0,4
9d009950:	0f403a80 	jal	9d00ea00 <__floatsisf>
9d009954:	00402025 	move	a0,v0
			sprintf(buffer, "%f\r\n", adcReading);
9d009958:	0f4036bf 	jal	9d00dafc <__extendsfdf2>
9d00995c:	00402025 	move	a0,v0
9d009960:	00403025 	move	a2,v0
9d009964:	00603825 	move	a3,v1
9d009968:	262574f4 	addiu	a1,s1,29940
9d00996c:	0f403ca1 	jal	9d00f284 <_dsprintf_cdeEfFgGns>
9d009970:	27a40010 	addiu	a0,sp,16
			NU32DIP_WriteUART1(buffer);
9d009974:	0f402ed8 	jal	9d00bb60 <NU32DIP_WriteUART1>
9d009978:	27a40010 	addiu	a0,sp,16
			break;
9d00997c:	1000ffcf 	b	9d0098bc <main+0xd0>
9d009980:	240500c8 	li	a1,200
			float currentReading = INA219_read_current();
9d009984:	0f4030ba 	jal	9d00c2e8 <INA219_read_current>
9d009988:	00000000 	nop
			sprintf(buffer, "%f\r\n", currentReading);
9d00998c:	0f4036bf 	jal	9d00dafc <__extendsfdf2>
9d009990:	00402025 	move	a0,v0
9d009994:	00403025 	move	a2,v0
9d009998:	00603825 	move	a3,v1
9d00999c:	262574f4 	addiu	a1,s1,29940
9d0099a0:	0f403ca1 	jal	9d00f284 <_dsprintf_cdeEfFgGns>
9d0099a4:	27a40010 	addiu	a0,sp,16
			NU32DIP_WriteUART1(buffer);
9d0099a8:	0f402ed8 	jal	9d00bb60 <NU32DIP_WriteUART1>
9d0099ac:	27a40010 	addiu	a0,sp,16
			break;
9d0099b0:	1000ffc2 	b	9d0098bc <main+0xd0>
9d0099b4:	240500c8 	li	a1,200
			WriteUART2("a");
9d0099b8:	0f402d7d 	jal	9d00b5f4 <WriteUART2>
9d0099bc:	268474fc 	addiu	a0,s4,29948
			while (!get_encoder_flag())
9d0099c0:	0f402d0d 	jal	9d00b434 <get_encoder_flag>
9d0099c4:	00000000 	nop
9d0099c8:	1040fffd 	beqz	v0,9d0099c0 <__jend_main_22+0x78>
9d0099cc:	00000000 	nop
			set_encoder_flag(0);
9d0099d0:	0f402d10 	jal	9d00b440 <set_encoder_flag>
9d0099d4:	00002025 	move	a0,zero
			sprintf(buffer, "%d\r\n", get_encoder_count());
9d0099d8:	0f402d13 	jal	9d00b44c <get_encoder_count>
9d0099dc:	00000000 	nop
9d0099e0:	00403025 	move	a2,v0
9d0099e4:	26a57500 	addiu	a1,s5,29952
9d0099e8:	0f403ca1 	jal	9d00f284 <_dsprintf_cdeEfFgGns>
9d0099ec:	27a40010 	addiu	a0,sp,16
			NU32DIP_WriteUART1(buffer);
9d0099f0:	0f402ed8 	jal	9d00bb60 <NU32DIP_WriteUART1>
9d0099f4:	27a40010 	addiu	a0,sp,16
			break;
9d0099f8:	1000ffb0 	b	9d0098bc <main+0xd0>
9d0099fc:	240500c8 	li	a1,200
			WriteUART2("a");
9d009a00:	0f402d7d 	jal	9d00b5f4 <WriteUART2>
9d009a04:	268474fc 	addiu	a0,s4,29948
			while (!get_encoder_flag())
9d009a08:	0f402d0d 	jal	9d00b434 <get_encoder_flag>
9d009a0c:	00000000 	nop
9d009a10:	1040fffd 	beqz	v0,9d009a08 <__jend_main_22+0xc0>
9d009a14:	00000000 	nop
			set_encoder_flag(0);
9d009a18:	0f402d10 	jal	9d00b440 <set_encoder_flag>
9d009a1c:	00002025 	move	a0,zero
			int cnt = get_encoder_count();
9d009a20:	0f402d13 	jal	9d00b44c <get_encoder_count>
9d009a24:	00000000 	nop
			float encoderAngle = cnt * degreesPerCount;
9d009a28:	0f403a80 	jal	9d00ea00 <__floatsisf>
9d009a2c:	00402025 	move	a0,v0
9d009a30:	02c02825 	move	a1,s6
9d009a34:	0f402ee7 	jal	9d00bb9c <__mulsf3>
9d009a38:	00402025 	move	a0,v0
			sprintf(buffer, "%f\r\n", encoderAngle);
9d009a3c:	0f4036bf 	jal	9d00dafc <__extendsfdf2>
9d009a40:	00402025 	move	a0,v0
9d009a44:	00403025 	move	a2,v0
9d009a48:	00603825 	move	a3,v1
9d009a4c:	262574f4 	addiu	a1,s1,29940
9d009a50:	0f403ca1 	jal	9d00f284 <_dsprintf_cdeEfFgGns>
9d009a54:	27a40010 	addiu	a0,sp,16
			NU32DIP_WriteUART1(buffer);
9d009a58:	0f402ed8 	jal	9d00bb60 <NU32DIP_WriteUART1>
9d009a5c:	27a40010 	addiu	a0,sp,16
			break;
9d009a60:	1000ff96 	b	9d0098bc <main+0xd0>
9d009a64:	240500c8 	li	a1,200
			WriteUART2("b");
9d009a68:	0f402d7d 	jal	9d00b5f4 <WriteUART2>
9d009a6c:	26e47508 	addiu	a0,s7,29960
			break;
9d009a70:	1000ff92 	b	9d0098bc <main+0xd0>
9d009a74:	240500c8 	li	a1,200
			NU32DIP_ReadUART1(buffer, BUF_SIZE);
9d009a78:	240500c8 	li	a1,200
9d009a7c:	0f402ebf 	jal	9d00bafc <NU32DIP_ReadUART1>
9d009a80:	27a40010 	addiu	a0,sp,16
			sscanf(buffer, "%d", &dutyCycle);
9d009a84:	27868020 	addiu	a2,gp,-32736
9d009a88:	27c5750c 	addiu	a1,s8,29964
9d009a8c:	0f403cab 	jal	9d00f2ac <_dsscanf_dn>
9d009a90:	27a40010 	addiu	a0,sp,16
			set_mode(PWM);
9d009a94:	0f403d61 	jal	9d00f584 <set_mode>
9d009a98:	24040001 	li	a0,1
			break;
9d009a9c:	1000ff87 	b	9d0098bc <main+0xd0>
9d009aa0:	240500c8 	li	a1,200
			set_mode(IDLE);
9d009aa4:	0f403d61 	jal	9d00f584 <set_mode>
9d009aa8:	00002025 	move	a0,zero
			break;
9d009aac:	1000ff83 	b	9d0098bc <main+0xd0>
9d009ab0:	240500c8 	li	a1,200
			set_mode(currentMode);
9d009ab4:	0f403d61 	jal	9d00f584 <set_mode>
9d009ab8:	00002025 	move	a0,zero
			break;
9d009abc:	1000ff7f 	b	9d0098bc <main+0xd0>
9d009ac0:	240500c8 	li	a1,200
			enum mode_t currentMode = get_mode();
9d009ac4:	0f403d5e 	jal	9d00f578 <get_mode>
9d009ac8:	00000000 	nop
			sprintf(buffer, "%s\r\n", modeToString(currentMode));
9d009acc:	0f402505 	jal	9d009414 <modeToString>
9d009ad0:	00402025 	move	a0,v0
9d009ad4:	00403025 	move	a2,v0
9d009ad8:	02402825 	move	a1,s2
9d009adc:	0f403ca1 	jal	9d00f284 <_dsprintf_cdeEfFgGns>
9d009ae0:	27a40010 	addiu	a0,sp,16
			NU32DIP_WriteUART1(buffer);
9d009ae4:	0f402ed8 	jal	9d00bb60 <NU32DIP_WriteUART1>
9d009ae8:	27a40010 	addiu	a0,sp,16
			break;
9d009aec:	1000ff73 	b	9d0098bc <main+0xd0>
9d009af0:	240500c8 	li	a1,200
		}

		default:
		{
			NU32DIP_GREEN = 0; // turn on LED2 to indicate an error
9d009af4:	96026130 	lhu	v0,24880(s0)
9d009af8:	7c022104 	ins	v0,zero,0x4,0x1
9d009afc:	a6026130 	sh	v0,24880(s0)
			break;
9d009b00:	1000ff6e 	b	9d0098bc <main+0xd0>
9d009b04:	240500c8 	li	a1,200

Disassembly of section .text.__printf_core:

9d009b08 <__printf_core>:
9d009b08:	27bdff18 	addiu	sp,sp,-232
9d009b0c:	afb400dc 	sw	s4,220(sp)
9d009b10:	afb300d8 	sw	s3,216(sp)
9d009b14:	afb200d4 	sw	s2,212(sp)
9d009b18:	afb100d0 	sw	s1,208(sp)
9d009b1c:	afbf00e4 	sw	ra,228(sp)
9d009b20:	afb500e0 	sw	s5,224(sp)
9d009b24:	afb000cc 	sw	s0,204(sp)
9d009b28:	00809025 	move	s2,a0
9d009b2c:	00c08825 	move	s1,a2
9d009b30:	afa500b8 	sw	a1,184(sp)
9d009b34:	00009825 	move	s3,zero
9d009b38:	3c149d00 	lui	s4,0x9d00
9d009b3c:	8fa500b8 	lw	a1,184(sp)
9d009b40:	80a20000 	lb	v0,0(a1)
9d009b44:	104000e4 	beqz	v0,9d009ed8 <__printf_core+0x3d0>
9d009b48:	2402ffff 	li	v0,-1
9d009b4c:	afa2009c 	sw	v0,156(sp)
9d009b50:	27a20018 	addiu	v0,sp,24
9d009b54:	afa200a4 	sw	v0,164(sp)
9d009b58:	24020080 	li	v0,128
9d009b5c:	afa00098 	sw	zero,152(sp)
9d009b60:	afa000a0 	sw	zero,160(sp)
9d009b64:	afa200a8 	sw	v0,168(sp)
9d009b68:	00008025 	move	s0,zero
9d009b6c:	24030025 	li	v1,37
9d009b70:	00b01021 	addu	v0,a1,s0
9d009b74:	80420000 	lb	v0,0(v0)
9d009b78:	10400003 	beqz	v0,9d009b88 <__printf_core+0x80>
9d009b7c:	00000000 	nop
9d009b80:	5443fffb 	bnel	v0,v1,9d009b70 <__printf_core+0x68>
9d009b84:	26100001 	addiu	s0,s0,1
9d009b88:	12000006 	beqz	s0,9d009ba4 <__printf_core+0x9c>
9d009b8c:	02003025 	move	a2,s0
9d009b90:	0f40384e 	jal	9d00e138 <__out>
9d009b94:	02402025 	move	a0,s2
9d009b98:	8fa200b8 	lw	v0,184(sp)
9d009b9c:	00501021 	addu	v0,v0,s0
9d009ba0:	afa200b8 	sw	v0,184(sp)
9d009ba4:	8fb500b8 	lw	s5,184(sp)
9d009ba8:	24020025 	li	v0,37
9d009bac:	82a30000 	lb	v1,0(s5)
9d009bb0:	146200c2 	bne	v1,v0,9d009ebc <__printf_core+0x3b4>
9d009bb4:	26b50001 	addiu	s5,s5,1
9d009bb8:	afb500b8 	sw	s5,184(sp)
9d009bbc:	2405002b 	li	a1,43
9d009bc0:	2406002d 	li	a2,45
9d009bc4:	24030030 	li	v1,48
9d009bc8:	24070020 	li	a3,32
9d009bcc:	24080023 	li	t0,35
9d009bd0:	8fa400b8 	lw	a0,184(sp)
9d009bd4:	80820000 	lb	v0,0(a0)
9d009bd8:	5045001b 	beql	v0,a1,9d009c48 <__printf_core+0x140>
9d009bdc:	8fa20098 	lw	v0,152(sp)
9d009be0:	2849002c 	slti	t1,v0,44
9d009be4:	1120001e 	beqz	t1,9d009c60 <__printf_core+0x158>
9d009be8:	00000000 	nop
9d009bec:	50470018 	beql	v0,a3,9d009c50 <__printf_core+0x148>
9d009bf0:	8fa20098 	lw	v0,152(sp)
9d009bf4:	50480018 	beql	v0,t0,9d009c58 <__printf_core+0x150>
9d009bf8:	8fa20098 	lw	v0,152(sp)
9d009bfc:	2403002a 	li	v1,42
9d009c00:	5043001e 	beql	v0,v1,9d009c7c <__printf_core+0x174>
9d009c04:	8e220000 	lw	v0,0(s1)
9d009c08:	0f403919 	jal	9d00e464 <atoi>
9d009c0c:	00000000 	nop
9d009c10:	afa200a0 	sw	v0,160(sp)
9d009c14:	8fa300b8 	lw	v1,184(sp)
9d009c18:	80620000 	lb	v0,0(v1)
9d009c1c:	2442ffd0 	addiu	v0,v0,-48
9d009c20:	2c42000a 	sltiu	v0,v0,10
9d009c24:	10400021 	beqz	v0,9d009cac <__printf_core+0x1a4>
9d009c28:	24630001 	addiu	v1,v1,1
9d009c2c:	1000fff9 	b	9d009c14 <__printf_core+0x10c>
9d009c30:	afa300b8 	sw	v1,184(sp)
9d009c34:	34420001 	ori	v0,v0,0x1
9d009c38:	24840001 	addiu	a0,a0,1
9d009c3c:	afa20098 	sw	v0,152(sp)
9d009c40:	1000ffe3 	b	9d009bd0 <__printf_core+0xc8>
9d009c44:	afa400b8 	sw	a0,184(sp)
9d009c48:	1000fffb 	b	9d009c38 <__printf_core+0x130>
9d009c4c:	34420004 	ori	v0,v0,0x4
9d009c50:	1000fff9 	b	9d009c38 <__printf_core+0x130>
9d009c54:	34420008 	ori	v0,v0,0x8
9d009c58:	1000fff7 	b	9d009c38 <__printf_core+0x130>
9d009c5c:	34420010 	ori	v0,v0,0x10
9d009c60:	5046fff4 	beql	v0,a2,9d009c34 <__printf_core+0x12c>
9d009c64:	8fa20098 	lw	v0,152(sp)
9d009c68:	5443ffe5 	bnel	v0,v1,9d009c00 <__printf_core+0xf8>
9d009c6c:	2403002a 	li	v1,42
9d009c70:	8fa20098 	lw	v0,152(sp)
9d009c74:	1000fff0 	b	9d009c38 <__printf_core+0x130>
9d009c78:	34420002 	ori	v0,v0,0x2
9d009c7c:	24840001 	addiu	a0,a0,1
9d009c80:	afa400b8 	sw	a0,184(sp)
9d009c84:	24430004 	addiu	v1,v0,4
9d009c88:	8c420000 	lw	v0,0(v0)
9d009c8c:	ae230000 	sw	v1,0(s1)
9d009c90:	04410006 	bgez	v0,9d009cac <__printf_core+0x1a4>
9d009c94:	afa200a0 	sw	v0,160(sp)
9d009c98:	8fa30098 	lw	v1,152(sp)
9d009c9c:	00021023 	negu	v0,v0
9d009ca0:	afa200a0 	sw	v0,160(sp)
9d009ca4:	38630001 	xori	v1,v1,0x1
9d009ca8:	afa30098 	sw	v1,152(sp)
9d009cac:	8fa20098 	lw	v0,152(sp)
9d009cb0:	30430001 	andi	v1,v0,0x1
9d009cb4:	10600002 	beqz	v1,9d009cc0 <__printf_core+0x1b8>
9d009cb8:	7c020844 	ins	v0,zero,0x1,0x1
9d009cbc:	afa20098 	sw	v0,152(sp)
9d009cc0:	8fa200b8 	lw	v0,184(sp)
9d009cc4:	2403002e 	li	v1,46
9d009cc8:	80440000 	lb	a0,0(v0)
9d009ccc:	1483000d 	bne	a0,v1,9d009d04 <__printf_core+0x1fc>
9d009cd0:	24440001 	addiu	a0,v0,1
9d009cd4:	afa0009c 	sw	zero,156(sp)
9d009cd8:	afa400b8 	sw	a0,184(sp)
9d009cdc:	80450001 	lb	a1,1(v0)
9d009ce0:	2403002a 	li	v1,42
9d009ce4:	14a30023 	bne	a1,v1,9d009d74 <__printf_core+0x26c>
9d009ce8:	24420002 	addiu	v0,v0,2
9d009cec:	afa200b8 	sw	v0,184(sp)
9d009cf0:	8e220000 	lw	v0,0(s1)
9d009cf4:	24430004 	addiu	v1,v0,4
9d009cf8:	8c420000 	lw	v0,0(v0)
9d009cfc:	ae230000 	sw	v1,0(s1)
9d009d00:	afa2009c 	sw	v0,156(sp)
9d009d04:	0f403a98 	jal	9d00ea60 <__fmt_state>
9d009d08:	27a400b8 	addiu	a0,sp,184
9d009d0c:	afa200c0 	sw	v0,192(sp)
9d009d10:	8fa200b8 	lw	v0,184(sp)
9d009d14:	0f403d26 	jal	9d00f498 <tolower>
9d009d18:	80440000 	lb	a0,0(v0)
9d009d1c:	24030069 	li	v1,105
9d009d20:	10430077 	beq	v0,v1,9d009f00 <__printf_core+0x3f8>
9d009d24:	8fa500c0 	lw	a1,192(sp)
9d009d28:	2843006a 	slti	v1,v0,106
9d009d2c:	1060002f 	beqz	v1,9d009dec <__printf_core+0x2e4>
9d009d30:	24030063 	li	v1,99
9d009d34:	104300be 	beq	v0,v1,9d00a030 <__printf_core+0x528>
9d009d38:	28430064 	slti	v1,v0,100
9d009d3c:	10600018 	beqz	v1,9d009da0 <__printf_core+0x298>
9d009d40:	24030025 	li	v1,37
9d009d44:	104300cb 	beq	v0,v1,9d00a074 <__printf_core+0x56c>
9d009d48:	24030061 	li	v1,97
9d009d4c:	5043004f 	beql	v0,v1,9d009e8c <__printf_core+0x384>
9d009d50:	02203025 	move	a2,s1
9d009d54:	2402ffff 	li	v0,-1
9d009d58:	afb500b8 	sw	s5,184(sp)
9d009d5c:	afa00098 	sw	zero,152(sp)
9d009d60:	afa000a0 	sw	zero,160(sp)
9d009d64:	afa2009c 	sw	v0,156(sp)
9d009d68:	afa00010 	sw	zero,16(sp)
9d009d6c:	100000c9 	b	9d00a094 <__printf_core+0x58c>
9d009d70:	00003825 	move	a3,zero
9d009d74:	0f403919 	jal	9d00e464 <atoi>
9d009d78:	00000000 	nop
9d009d7c:	afa2009c 	sw	v0,156(sp)
9d009d80:	8fa300b8 	lw	v1,184(sp)
9d009d84:	80620000 	lb	v0,0(v1)
9d009d88:	2442ffd0 	addiu	v0,v0,-48
9d009d8c:	2c42000a 	sltiu	v0,v0,10
9d009d90:	1040ffdc 	beqz	v0,9d009d04 <__printf_core+0x1fc>
9d009d94:	24630001 	addiu	v1,v1,1
9d009d98:	1000fff9 	b	9d009d80 <__printf_core+0x278>
9d009d9c:	afa300b8 	sw	v1,184(sp)
9d009da0:	24030064 	li	v1,100
9d009da4:	10430056 	beq	v0,v1,9d009f00 <__printf_core+0x3f8>
9d009da8:	28420068 	slti	v0,v0,104
9d009dac:	1040ffea 	beqz	v0,9d009d58 <__printf_core+0x250>
9d009db0:	2402ffff 	li	v0,-1
9d009db4:	02203025 	move	a2,s1
9d009db8:	0f403ad8 	jal	9d00eb60 <__pop_float>
9d009dbc:	27a400b0 	addiu	a0,sp,176
9d009dc0:	10400097 	beqz	v0,9d00a020 <__printf_core+0x518>
9d009dc4:	8fa200b8 	lw	v0,184(sp)
9d009dc8:	27a600b0 	addiu	a2,sp,176
9d009dcc:	27a50098 	addiu	a1,sp,152
9d009dd0:	24430001 	addiu	v1,v0,1
9d009dd4:	afa300b8 	sw	v1,184(sp)
9d009dd8:	80470000 	lb	a3,0(v0)
9d009ddc:	0f401d68 	jal	9d0075a0 <__fmt_fp>
9d009de0:	02402025 	move	a0,s2
9d009de4:	10000035 	b	9d009ebc <__printf_core+0x3b4>
9d009de8:	02028021 	addu	s0,s0,v0
9d009dec:	24030070 	li	v1,112
9d009df0:	1043006e 	beq	v0,v1,9d009fac <__printf_core+0x4a4>
9d009df4:	28430071 	slti	v1,v0,113
9d009df8:	10600013 	beqz	v1,9d009e48 <__printf_core+0x340>
9d009dfc:	2403006e 	li	v1,110
9d009e00:	10430083 	beq	v0,v1,9d00a010 <__printf_core+0x508>
9d009e04:	2403006f 	li	v1,111
9d009e08:	1443ffd3 	bne	v0,v1,9d009d58 <__printf_core+0x250>
9d009e0c:	2402ffff 	li	v0,-1
9d009e10:	02203825 	move	a3,s1
9d009e14:	00003025 	move	a2,zero
9d009e18:	0f402f56 	jal	9d00bd58 <__pop_int>
9d009e1c:	27a400b0 	addiu	a0,sp,176
9d009e20:	1040007f 	beqz	v0,9d00a020 <__printf_core+0x518>
9d009e24:	8fa200b8 	lw	v0,184(sp)
9d009e28:	27a600b0 	addiu	a2,sp,176
9d009e2c:	27a50098 	addiu	a1,sp,152
9d009e30:	24420001 	addiu	v0,v0,1
9d009e34:	02402025 	move	a0,s2
9d009e38:	0f403d85 	jal	9d00f614 <__fmt_o>
9d009e3c:	afa200b8 	sw	v0,184(sp)
9d009e40:	1000001e 	b	9d009ebc <__printf_core+0x3b4>
9d009e44:	02028021 	addu	s0,s0,v0
9d009e48:	24030075 	li	v1,117
9d009e4c:	1043003a 	beq	v0,v1,9d009f38 <__printf_core+0x430>
9d009e50:	24030078 	li	v1,120
9d009e54:	10430046 	beq	v0,v1,9d009f70 <__printf_core+0x468>
9d009e58:	24030073 	li	v1,115
9d009e5c:	1443ffbd 	bne	v0,v1,9d009d54 <__printf_core+0x24c>
9d009e60:	24020080 	li	v0,128
9d009e64:	14a2006e 	bne	a1,v0,9d00a020 <__printf_core+0x518>
9d009e68:	8fa200b8 	lw	v0,184(sp)
9d009e6c:	00003825 	move	a3,zero
9d009e70:	24420001 	addiu	v0,v0,1
9d009e74:	afa200b8 	sw	v0,184(sp)
9d009e78:	8e220000 	lw	v0,0(s1)
9d009e7c:	24430004 	addiu	v1,v0,4
9d009e80:	ae230000 	sw	v1,0(s1)
9d009e84:	10000076 	b	9d00a060 <__printf_core+0x558>
9d009e88:	8c460000 	lw	a2,0(v0)
9d009e8c:	0f403ad8 	jal	9d00eb60 <__pop_float>
9d009e90:	27a400b0 	addiu	a0,sp,176
9d009e94:	10400062 	beqz	v0,9d00a020 <__printf_core+0x518>
9d009e98:	8fa200b8 	lw	v0,184(sp)
9d009e9c:	27a600b0 	addiu	a2,sp,176
9d009ea0:	27a50098 	addiu	a1,sp,152
9d009ea4:	24430001 	addiu	v1,v0,1
9d009ea8:	afa300b8 	sw	v1,184(sp)
9d009eac:	80470000 	lb	a3,0(v0)
9d009eb0:	0f403d87 	jal	9d00f61c <__fmt_a>
9d009eb4:	02402025 	move	a0,s2
9d009eb8:	02028021 	addu	s0,s0,v0
9d009ebc:	02708021 	addu	s0,s3,s0
9d009ec0:	0213982a 	slt	s3,s0,s3
9d009ec4:	12600077 	beqz	s3,9d00a0a4 <__printf_core+0x59c>
9d009ec8:	3c02a000 	lui	v0,0xa000
9d009ecc:	2403004f 	li	v1,79
9d009ed0:	ac430168 	sw	v1,360(v0)
9d009ed4:	2413ffff 	li	s3,-1
9d009ed8:	8fbf00e4 	lw	ra,228(sp)
9d009edc:	02601025 	move	v0,s3
9d009ee0:	8fb500e0 	lw	s5,224(sp)
9d009ee4:	8fb400dc 	lw	s4,220(sp)
9d009ee8:	8fb300d8 	lw	s3,216(sp)
9d009eec:	8fb200d4 	lw	s2,212(sp)
9d009ef0:	8fb100d0 	lw	s1,208(sp)
9d009ef4:	8fb000cc 	lw	s0,204(sp)
9d009ef8:	03e00008 	jr	ra
9d009efc:	27bd00e8 	addiu	sp,sp,232
9d009f00:	02203825 	move	a3,s1
9d009f04:	24060001 	li	a2,1
9d009f08:	0f402f56 	jal	9d00bd58 <__pop_int>
9d009f0c:	27a400b0 	addiu	a0,sp,176
9d009f10:	10400043 	beqz	v0,9d00a020 <__printf_core+0x518>
9d009f14:	8fa200b8 	lw	v0,184(sp)
9d009f18:	27a600b0 	addiu	a2,sp,176
9d009f1c:	27a50098 	addiu	a1,sp,152
9d009f20:	24420001 	addiu	v0,v0,1
9d009f24:	02402025 	move	a0,s2
9d009f28:	0f403121 	jal	9d00c484 <__fmt_d>
9d009f2c:	afa200b8 	sw	v0,184(sp)
9d009f30:	1000ffe2 	b	9d009ebc <__printf_core+0x3b4>
9d009f34:	02028021 	addu	s0,s0,v0
9d009f38:	02203825 	move	a3,s1
9d009f3c:	00003025 	move	a2,zero
9d009f40:	0f402f56 	jal	9d00bd58 <__pop_int>
9d009f44:	27a400b0 	addiu	a0,sp,176
9d009f48:	10400035 	beqz	v0,9d00a020 <__printf_core+0x518>
9d009f4c:	8fa200b8 	lw	v0,184(sp)
9d009f50:	27a600b0 	addiu	a2,sp,176
9d009f54:	27a50098 	addiu	a1,sp,152
9d009f58:	24420001 	addiu	v0,v0,1
9d009f5c:	02402025 	move	a0,s2
9d009f60:	0f403d85 	jal	9d00f614 <__fmt_o>
9d009f64:	afa200b8 	sw	v0,184(sp)
9d009f68:	1000ffd4 	b	9d009ebc <__printf_core+0x3b4>
9d009f6c:	02028021 	addu	s0,s0,v0
9d009f70:	02203825 	move	a3,s1
9d009f74:	00003025 	move	a2,zero
9d009f78:	0f402f56 	jal	9d00bd58 <__pop_int>
9d009f7c:	27a400b0 	addiu	a0,sp,176
9d009f80:	10400027 	beqz	v0,9d00a020 <__printf_core+0x518>
9d009f84:	8fa200b8 	lw	v0,184(sp)
9d009f88:	24430001 	addiu	v1,v0,1
9d009f8c:	afa300b8 	sw	v1,184(sp)
9d009f90:	80470000 	lb	a3,0(v0)
9d009f94:	27a600b0 	addiu	a2,sp,176
9d009f98:	27a50098 	addiu	a1,sp,152
9d009f9c:	0f403d87 	jal	9d00f61c <__fmt_a>
9d009fa0:	02402025 	move	a0,s2
9d009fa4:	1000ffc5 	b	9d009ebc <__printf_core+0x3b4>
9d009fa8:	02028021 	addu	s0,s0,v0
9d009fac:	02203825 	move	a3,s1
9d009fb0:	00003025 	move	a2,zero
9d009fb4:	240500f0 	li	a1,240
9d009fb8:	0f402f56 	jal	9d00bd58 <__pop_int>
9d009fbc:	27a400b0 	addiu	a0,sp,176
9d009fc0:	10400017 	beqz	v0,9d00a020 <__printf_core+0x518>
9d009fc4:	8fa200b8 	lw	v0,184(sp)
9d009fc8:	8fa300b4 	lw	v1,180(sp)
9d009fcc:	24420001 	addiu	v0,v0,1
9d009fd0:	afa200b8 	sw	v0,184(sp)
9d009fd4:	8fa200b0 	lw	v0,176(sp)
9d009fd8:	00431025 	or	v0,v0,v1
9d009fdc:	1440ffed 	bnez	v0,9d009f94 <__printf_core+0x48c>
9d009fe0:	24070078 	li	a3,120
9d009fe4:	0f403c32 	jal	9d00f0c8 <strlen>
9d009fe8:	26847550 	addiu	a0,s4,30032
9d009fec:	8fa30098 	lw	v1,152(sp)
9d009ff0:	8fa700a0 	lw	a3,160(sp)
9d009ff4:	00403025 	move	a2,v0
9d009ff8:	afa30010 	sw	v1,16(sp)
9d009ffc:	26857550 	addiu	a1,s4,30032
9d00a000:	0f40341a 	jal	9d00d068 <__pad>
9d00a004:	02402025 	move	a0,s2
9d00a008:	1000ffac 	b	9d009ebc <__printf_core+0x3b4>
9d00a00c:	02028021 	addu	s0,s0,v0
9d00a010:	02203825 	move	a3,s1
9d00a014:	02703021 	addu	a2,s3,s0
9d00a018:	0f4034d6 	jal	9d00d358 <__pop_ptr>
9d00a01c:	27a400b0 	addiu	a0,sp,176
9d00a020:	8fa200b8 	lw	v0,184(sp)
9d00a024:	24420001 	addiu	v0,v0,1
9d00a028:	1000ffa4 	b	9d009ebc <__printf_core+0x3b4>
9d00a02c:	afa200b8 	sw	v0,184(sp)
9d00a030:	24020080 	li	v0,128
9d00a034:	14a2fffa 	bne	a1,v0,9d00a020 <__printf_core+0x518>
9d00a038:	8fa200b8 	lw	v0,184(sp)
9d00a03c:	24070001 	li	a3,1
9d00a040:	27a600b0 	addiu	a2,sp,176
9d00a044:	24420001 	addiu	v0,v0,1
9d00a048:	afa200b8 	sw	v0,184(sp)
9d00a04c:	8e220000 	lw	v0,0(s1)
9d00a050:	24430004 	addiu	v1,v0,4
9d00a054:	8c420000 	lw	v0,0(v0)
9d00a058:	ae230000 	sw	v1,0(s1)
9d00a05c:	a3a200b0 	sb	v0,176(sp)
9d00a060:	27a50098 	addiu	a1,sp,152
9d00a064:	0f40373e 	jal	9d00dcf8 <__fmt_s>
9d00a068:	02402025 	move	a0,s2
9d00a06c:	1000ff93 	b	9d009ebc <__printf_core+0x3b4>
9d00a070:	02028021 	addu	s0,s0,v0
9d00a074:	24020080 	li	v0,128
9d00a078:	14a2ffe9 	bne	a1,v0,9d00a020 <__printf_core+0x518>
9d00a07c:	8fa200b8 	lw	v0,184(sp)
9d00a080:	8fa700a0 	lw	a3,160(sp)
9d00a084:	24420001 	addiu	v0,v0,1
9d00a088:	afa200b8 	sw	v0,184(sp)
9d00a08c:	8fa20098 	lw	v0,152(sp)
9d00a090:	afa20010 	sw	v0,16(sp)
9d00a094:	3c059d00 	lui	a1,0x9d00
9d00a098:	24060001 	li	a2,1
9d00a09c:	1000ffd8 	b	9d00a000 <__printf_core+0x4f8>
9d00a0a0:	24a57558 	addiu	a1,a1,30040
9d00a0a4:	1000fea5 	b	9d009b3c <__printf_core+0x34>
9d00a0a8:	02009825 	move	s3,s0

Disassembly of section .text.dp32mul:

9d00a0ac <__divdf3>:
9d00a0ac:	00055040 000a5542 00054ac0 00047d42     @P..BU...J..B}..
9d00a0bc:	012f4825 000442c0 3c0e8000 012e4825     %H/..B.....<%H..
9d00a0cc:	00076840 000d6d42 000762c0 00067d42     @h..Bm...b..B}..
9d00a0dc:	018f6025 00065ac0 018e6025 00a72826     %`...Z..%`..&(..
9d00a0ec:	00ae2824 254fffff 2de107fe 102000cb     $(....O%...-.. .
9d00a0fc:	00000000                                ....

9d00a100 <Dlab1>:
9d00a100:	25afffff 	addiu	t7,t5,-1
9d00a104:	2de107fe 	sltiu	at,t7,2046
9d00a108:	102000f4 	beqz	at,9d00a4dc <DspecB>
9d00a10c:	00000000 	nop

9d00a110 <Dlab2>:
9d00a110:	014d5023 	subu	t2,t2,t5
9d00a114:	254a03ff 	addiu	t2,t2,1023
9d00a118:	00084042 	srl	t0,t0,0x1
9d00a11c:	00097fc0 	sll	t7,t1,0x1f
9d00a120:	010f4025 	or	t0,t0,t7
9d00a124:	00094842 	srl	t1,t1,0x1
9d00a128:	000c3c02 	srl	a3,t4,0x10
9d00a12c:	00e001f4 	teq	a3,zero,0x7
9d00a130:	0127001b 	divu	zero,t1,a3
9d00a134:	00007012 	mflo	t6
9d00a138:	00004810 	mfhi	t1
9d00a13c:	3186ffff 	andi	a2,t4,0xffff
9d00a140:	00ce0019 	multu	a2,t6
9d00a144:	00002012 	mflo	a0
9d00a148:	00094c00 	sll	t1,t1,0x10
9d00a14c:	00087c02 	srl	t7,t0,0x10
9d00a150:	012f4825 	or	t1,t1,t7
9d00a154:	0124782b 	sltu	t7,t1,a0
9d00a158:	11e00006 	beqz	t7,9d00a174 <i20>
9d00a15c:	01244823 	subu	t1,t1,a0

9d00a160 <b21>:
9d00a160:	25ceffff 	addiu	t6,t6,-1
9d00a164:	012c4821 	addu	t1,t1,t4
9d00a168:	012c082b 	sltu	at,t1,t4
9d00a16c:	1020fffc 	beqz	at,9d00a160 <b21>
9d00a170:	00000000 	nop

9d00a174 <i20>:
9d00a174:	00e001f4 	teq	a3,zero,0x7
9d00a178:	0127001b 	divu	zero,t1,a3
9d00a17c:	00003812 	mflo	a3
9d00a180:	00004810 	mfhi	t1
9d00a184:	00c70019 	multu	a2,a3
9d00a188:	00002012 	mflo	a0
9d00a18c:	00094c00 	sll	t1,t1,0x10
9d00a190:	310fffff 	andi	t7,t0,0xffff
9d00a194:	012f4825 	or	t1,t1,t7
9d00a198:	0124782b 	sltu	t7,t1,a0
9d00a19c:	11e00006 	beqz	t7,9d00a1b8 <i22>
9d00a1a0:	01244823 	subu	t1,t1,a0

9d00a1a4 <b23>:
9d00a1a4:	24e7ffff 	addiu	a3,a3,-1
9d00a1a8:	012c4821 	addu	t1,t1,t4
9d00a1ac:	012c082b 	sltu	at,t1,t4
9d00a1b0:	1020fffc 	beqz	at,9d00a1a4 <b23>
9d00a1b4:	00000000 	nop

9d00a1b8 <i22>:
9d00a1b8:	000e7400 	sll	t6,t6,0x10
9d00a1bc:	01c77021 	addu	t6,t6,a3
9d00a1c0:	01cb0019 	multu	t6,t3
9d00a1c4:	00003812 	mflo	a3
9d00a1c8:	00002010 	mfhi	a0
9d00a1cc:	24080000 	li	t0,0
9d00a1d0:	0107782b 	sltu	t7,t0,a3
9d00a1d4:	01074023 	subu	t0,t0,a3
9d00a1d8:	012f102b 	sltu	v0,t1,t7
9d00a1dc:	012f4823 	subu	t1,t1,t7
9d00a1e0:	0124782b 	sltu	t7,t1,a0
9d00a1e4:	01e27825 	or	t7,t7,v0
9d00a1e8:	11e0000b 	beqz	t7,9d00a218 <i24>
9d00a1ec:	01244823 	subu	t1,t1,a0

9d00a1f0 <Dlab3>:
9d00a1f0:	25ceffff 	addiu	t6,t6,-1
9d00a1f4:	010b4021 	addu	t0,t0,t3
9d00a1f8:	010b782b 	sltu	t7,t0,t3
9d00a1fc:	012c4821 	addu	t1,t1,t4
9d00a200:	012f4821 	addu	t1,t1,t7
9d00a204:	112c0002 	beq	t1,t4,9d00a210 <L31>
9d00a208:	00000000 	nop
9d00a20c:	012c782b 	sltu	t7,t1,t4

9d00a210 <L31>:
9d00a210:	11e0fff7 	beqz	t7,9d00a1f0 <Dlab3>
9d00a214:	00000000 	nop

9d00a218 <i24>:
9d00a218:	152c0006 	bne	t1,t4,9d00a234 <i25>
9d00a21c:	00000000 	nop
9d00a220:	000b2025 	or	a0,zero,t3
9d00a224:	00084825 	or	t1,zero,t0
9d00a228:	240d0000 	li	t5,0
9d00a22c:	1000002a 	b	9d00a2d8 <e25>
9d00a230:	000d3825 	or	a3,zero,t5

9d00a234 <i25>:
9d00a234:	000c3c02 	srl	a3,t4,0x10
9d00a238:	00e001f4 	teq	a3,zero,0x7
9d00a23c:	0127001b 	divu	zero,t1,a3
9d00a240:	00006812 	mflo	t5
9d00a244:	00004810 	mfhi	t1
9d00a248:	3186ffff 	andi	a2,t4,0xffff
9d00a24c:	00cd0019 	multu	a2,t5
9d00a250:	00002012 	mflo	a0
9d00a254:	00094c00 	sll	t1,t1,0x10
9d00a258:	00087c02 	srl	t7,t0,0x10
9d00a25c:	012f4825 	or	t1,t1,t7
9d00a260:	0124782b 	sltu	t7,t1,a0
9d00a264:	11e00006 	beqz	t7,9d00a280 <i26>
9d00a268:	01244823 	subu	t1,t1,a0

9d00a26c <b27>:
9d00a26c:	25adffff 	addiu	t5,t5,-1
9d00a270:	012c4821 	addu	t1,t1,t4
9d00a274:	012c082b 	sltu	at,t1,t4
9d00a278:	1020fffc 	beqz	at,9d00a26c <b27>
9d00a27c:	00000000 	nop

9d00a280 <i26>:
9d00a280:	00e001f4 	teq	a3,zero,0x7
9d00a284:	0127001b 	divu	zero,t1,a3
9d00a288:	00003812 	mflo	a3
9d00a28c:	00004810 	mfhi	t1
9d00a290:	00c70019 	multu	a2,a3
9d00a294:	00002012 	mflo	a0
9d00a298:	00094c00 	sll	t1,t1,0x10
9d00a29c:	310fffff 	andi	t7,t0,0xffff
9d00a2a0:	012f4825 	or	t1,t1,t7
9d00a2a4:	0124782b 	sltu	t7,t1,a0
9d00a2a8:	11e00006 	beqz	t7,9d00a2c4 <i28>
9d00a2ac:	01244823 	subu	t1,t1,a0

9d00a2b0 <b29>:
9d00a2b0:	24e7ffff 	addiu	a3,a3,-1
9d00a2b4:	012c4821 	addu	t1,t1,t4
9d00a2b8:	012c082b 	sltu	at,t1,t4
9d00a2bc:	1020fffc 	beqz	at,9d00a2b0 <b29>
9d00a2c0:	00000000 	nop

9d00a2c4 <i28>:
9d00a2c4:	000d6c00 	sll	t5,t5,0x10
9d00a2c8:	01a76821 	addu	t5,t5,a3
9d00a2cc:	01ab0019 	multu	t5,t3
9d00a2d0:	00003812 	mflo	a3
9d00a2d4:	00002010 	mfhi	a0

9d00a2d8 <e25>:
9d00a2d8:	24080000 	li	t0,0
9d00a2dc:	0107782b 	sltu	t7,t0,a3
9d00a2e0:	01074023 	subu	t0,t0,a3
9d00a2e4:	012f102b 	sltu	v0,t1,t7
9d00a2e8:	012f4823 	subu	t1,t1,t7
9d00a2ec:	0124782b 	sltu	t7,t1,a0
9d00a2f0:	01e27825 	or	t7,t7,v0
9d00a2f4:	11e0000b 	beqz	t7,9d00a324 <i30>
9d00a2f8:	01244823 	subu	t1,t1,a0

9d00a2fc <Dlab4>:
9d00a2fc:	25adffff 	addiu	t5,t5,-1
9d00a300:	010b4021 	addu	t0,t0,t3
9d00a304:	010b782b 	sltu	t7,t0,t3
9d00a308:	012c4821 	addu	t1,t1,t4
9d00a30c:	012f4821 	addu	t1,t1,t7
9d00a310:	112c0002 	beq	t1,t4,9d00a31c <L32>
9d00a314:	00000000 	nop
9d00a318:	012c782b 	sltu	t7,t1,t4

9d00a31c <L32>:
9d00a31c:	11e0fff7 	beqz	t7,9d00a2fc <Dlab4>
9d00a320:	00000000 	nop

9d00a324 <i30>:
9d00a324:	05c00006 	bltz	t6,9d00a340 <i31>
9d00a328:	00000000 	nop
9d00a32c:	01a0782a 	slt	t7,t5,zero
9d00a330:	01ad6821 	addu	t5,t5,t5
9d00a334:	01ce7021 	addu	t6,t6,t6
9d00a338:	01cf7021 	addu	t6,t6,t7
9d00a33c:	254affff 	addiu	t2,t2,-1

9d00a340 <i31>:
9d00a340:	01287825 	or	t7,t1,t0
9d00a344:	11e00002 	beqz	t7,9d00a350 <i32>
9d00a348:	00000000 	nop
9d00a34c:	35ad0001 	ori	t5,t5,0x1

9d00a350 <i32>:
9d00a350:	000e4825 	or	t1,zero,t6
9d00a354:	000d4025 	or	t0,zero,t5
9d00a358:	254fffff 	addiu	t7,t2,-1
9d00a35c:	2de107fe 	sltiu	at,t7,2046
9d00a360:	10200015 	beqz	at,9d00a3b8 <Doveund>
9d00a364:	00000000 	nop
9d00a368:	25080400 	addiu	t0,t0,1024
9d00a36c:	2d0f0400 	sltiu	t7,t0,1024
9d00a370:	012f4821 	addu	t1,t1,t7
9d00a374:	012f782b 	sltu	t7,t1,t7
9d00a378:	014f5021 	addu	t2,t2,t7

9d00a37c <Dlab8>:
9d00a37c:	00087ac2 	srl	t7,t0,0xb
9d00a380:	31ef0001 	andi	t7,t7,0x1
9d00a384:	010f4023 	subu	t0,t0,t7
9d00a388:	000822c2 	srl	a0,t0,0xb
9d00a38c:	00097d40 	sll	t7,t1,0x15
9d00a390:	008f2025 	or	a0,a0,t7
9d00a394:	00097840 	sll	t7,t1,0x1
9d00a398:	000f7b02 	srl	t7,t7,0xc
9d00a39c:	00af2825 	or	a1,a1,t7
9d00a3a0:	000a7d00 	sll	t7,t2,0x14
9d00a3a4:	00af2825 	or	a1,a1,t7

9d00a3a8 <Dret>:
9d00a3a8:	00041025 	or	v0,zero,a0
9d00a3ac:	00051825 	or	v1,zero,a1

9d00a3b0 <D999>:
9d00a3b0:	03e00008 	jr	ra
9d00a3b4:	00000000 	nop

9d00a3b8 <Doveund>:
9d00a3b8:	1d400044 	bgtz	t2,9d00a4cc <Dinf>
9d00a3bc:	00000000 	nop
9d00a3c0:	240e0001 	li	t6,1
9d00a3c4:	01ca7023 	subu	t6,t6,t2

9d00a3c8 <L33>:
9d00a3c8:	2dc10020 	sltiu	at,t6,32
9d00a3cc:	14200007 	bnez	at,9d00a3ec <L34>
9d00a3d0:	00000000 	nop
9d00a3d4:	21ceffe0 	addi	t6,t6,-32
9d00a3d8:	0008202b 	sltu	a0,zero,t0
9d00a3dc:	1009000d 	beq	zero,t1,9d00a414 <L35>
9d00a3e0:	01244025 	or	t0,t1,a0
9d00a3e4:	1000fff8 	b	9d00a3c8 <L33>
9d00a3e8:	34090000 	li	t1,0x0

9d00a3ec <L34>:
9d00a3ec:	11c00009 	beqz	t6,9d00a414 <L35>
9d00a3f0:	00000000 	nop
9d00a3f4:	000e3022 	neg	a2,t6
9d00a3f8:	00c82004 	sllv	a0,t0,a2
9d00a3fc:	00c93004 	sllv	a2,t1,a2
9d00a400:	01c84006 	srlv	t0,t0,t6
9d00a404:	01c94806 	srlv	t1,t1,t6
9d00a408:	10800002 	beqz	a0,9d00a414 <L35>
9d00a40c:	00c84025 	or	t0,a2,t0
9d00a410:	35080002 	ori	t0,t0,0x2

9d00a414 <L35>:
9d00a414:	25080400 	addiu	t0,t0,1024
9d00a418:	2d0f0400 	sltiu	t7,t0,1024
9d00a41c:	012f4821 	addu	t1,t1,t7
9d00a420:	1000ffd6 	b	9d00a37c <Dlab8>
9d00a424:	000957c2 	srl	t2,t1,0x1f

9d00a428 <DspecA>:
9d00a428:	0100782a 	slt	t7,t0,zero
9d00a42c:	01084021 	addu	t0,t0,t0
9d00a430:	01294821 	addu	t1,t1,t1
9d00a434:	15400017 	bnez	t2,9d00a494 <i33>
9d00a438:	012f4821 	addu	t1,t1,t7
9d00a43c:	01287825 	or	t7,t1,t0
9d00a440:	11e00014 	beqz	t7,9d00a494 <i33>
9d00a444:	00000000 	nop
9d00a448:	15200008 	bnez	t1,9d00a46c <L36>
9d00a44c:	00000000 	nop
9d00a450:	15000003 	bnez	t0,9d00a460 <L37>
9d00a454:	00000000 	nop
9d00a458:	1000ff29 	b	9d00a100 <Dlab1>
9d00a45c:	240a0000 	li	t2,0

9d00a460 <L37>:
9d00a460:	01004825 	move	t1,t0
9d00a464:	24080000 	li	t0,0
9d00a468:	254affe0 	addiu	t2,t2,-32

9d00a46c <L36>:
9d00a46c:	712e7020 	clz	t6,t1
9d00a470:	11c0ff23 	beqz	t6,9d00a100 <Dlab1>
9d00a474:	00000000 	nop
9d00a478:	014e5023 	subu	t2,t2,t6
9d00a47c:	000e3022 	neg	a2,t6
9d00a480:	00c83006 	srlv	a2,t0,a2
9d00a484:	01c84004 	sllv	t0,t0,t6
9d00a488:	01c94804 	sllv	t1,t1,t6
9d00a48c:	1000ff1c 	b	9d00a100 <Dlab1>
9d00a490:	01264825 	or	t1,t1,a2

9d00a494 <i33>:
9d00a494:	154d0005 	bne	t2,t5,9d00a4ac <i35>
9d00a498:	00000000 	nop
9d00a49c:	000c7840 	sll	t7,t4,0x1
9d00a4a0:	01eb7825 	or	t7,t7,t3
9d00a4a4:	11e0002b 	beqz	t7,9d00a554 <Dnan>
9d00a4a8:	00000000 	nop

9d00a4ac <i35>:
9d00a4ac:	240107ff 	li	at,2047
9d00a4b0:	11a1000a 	beq	t5,at,9d00a4dc <DspecB>
9d00a4b4:	00000000 	nop
9d00a4b8:	1140ffbb 	beqz	t2,9d00a3a8 <Dret>
9d00a4bc:	00000000 	nop
9d00a4c0:	01287825 	or	t7,t1,t0
9d00a4c4:	15e00023 	bnez	t7,9d00a554 <Dnan>
9d00a4c8:	00000000 	nop

9d00a4cc <Dinf>:
9d00a4cc:	3c017ff0 	lui	at,0x7ff0
9d00a4d0:	00a12825 	or	a1,a1,at
9d00a4d4:	1000ffb4 	b	9d00a3a8 <Dret>
9d00a4d8:	24040000 	li	a0,0

9d00a4dc <DspecB>:
9d00a4dc:	0160782a 	slt	t7,t3,zero
9d00a4e0:	016b5821 	addu	t3,t3,t3
9d00a4e4:	018c6021 	addu	t4,t4,t4
9d00a4e8:	15a00017 	bnez	t5,9d00a548 <i36>
9d00a4ec:	018f6021 	addu	t4,t4,t7
9d00a4f0:	018b7825 	or	t7,t4,t3
9d00a4f4:	11e0fff5 	beqz	t7,9d00a4cc <Dinf>
9d00a4f8:	00000000 	nop
9d00a4fc:	15800008 	bnez	t4,9d00a520 <L39>
9d00a500:	00000000 	nop
9d00a504:	15600003 	bnez	t3,9d00a514 <L40>
9d00a508:	00000000 	nop
9d00a50c:	1000ff00 	b	9d00a110 <Dlab2>
9d00a510:	240d0000 	li	t5,0

9d00a514 <L40>:
9d00a514:	01606025 	move	t4,t3
9d00a518:	240b0000 	li	t3,0
9d00a51c:	25adffe0 	addiu	t5,t5,-32

9d00a520 <L39>:
9d00a520:	718e7020 	clz	t6,t4
9d00a524:	11c0fefa 	beqz	t6,9d00a110 <Dlab2>
9d00a528:	00000000 	nop
9d00a52c:	01ae6823 	subu	t5,t5,t6
9d00a530:	000e3022 	neg	a2,t6
9d00a534:	00cb3006 	srlv	a2,t3,a2
9d00a538:	01cb5804 	sllv	t3,t3,t6
9d00a53c:	01cc6004 	sllv	t4,t4,t6
9d00a540:	1000fef3 	b	9d00a110 <Dlab2>
9d00a544:	01866025 	or	t4,t4,a2

9d00a548 <i36>:
9d00a548:	018b7825 	or	t7,t4,t3
9d00a54c:	11e00002 	beqz	t7,9d00a558 <i38>
9d00a550:	00000000 	nop

9d00a554 <Dnan>:
9d00a554:	3c05fff8 	lui	a1,0xfff8

9d00a558 <i38>:
9d00a558:	1000ff93 	b	9d00a3a8 <Dret>
9d00a55c:	24040000 	li	a0,0
9d00a560:	00000000 	nop

Disassembly of section .text.dp32subadd:

9d00a564 <__subdf3>:
9d00a564:	3c018000 00e13826                       ...<&8..

9d00a56c <__adddf3>:
9d00a56c:	00055840 000b5d42 000552c0 00047d42     @X..B]...R..B}..
9d00a57c:	014f5025 00044ac0 3c088000 01485025     %PO..J.....<%PH.
9d00a58c:	00077040 000e7542 00076ac0 00067d42     @p..Bu...j..B}..
9d00a59c:	01af6825 000662c0 01a86825 256fffff     %h...b..%h....o%
9d00a5ac:	2de107fe 1020008d 00000000              ...-.. .....

9d00a5b8 <Blab1>:
9d00a5b8:	25cfffff 	addiu	t7,t6,-1
9d00a5bc:	2de107fe 	sltiu	at,t7,2046
9d00a5c0:	102000bb 	beqz	at,9d00a8b0 <BspecB>
9d00a5c4:	00000000 	nop

9d00a5c8 <Blab2>:
9d00a5c8:	3c018000 	lui	at,0x8000
9d00a5cc:	00a12824 	and	a1,a1,at
9d00a5d0:	016e4023 	subu	t0,t3,t6
9d00a5d4:	1100002c 	beqz	t0,9d00a688 <Badd3>
9d00a5d8:	00000000 	nop
9d00a5dc:	19000015 	blez	t0,9d00a634 <i1>
9d00a5e0:	00000000 	nop

9d00a5e4 <L1>:
9d00a5e4:	2d010020 	sltiu	at,t0,32
9d00a5e8:	14200007 	bnez	at,9d00a608 <L2>
9d00a5ec:	00000000 	nop
9d00a5f0:	2108ffe0 	addi	t0,t0,-32
9d00a5f4:	000c302b 	sltu	a2,zero,t4
9d00a5f8:	100d0023 	beq	zero,t5,9d00a688 <Badd3>
9d00a5fc:	01a66025 	or	t4,t5,a2
9d00a600:	1000fff8 	b	9d00a5e4 <L1>
9d00a604:	340d0000 	li	t5,0x0

9d00a608 <L2>:
9d00a608:	1100001f 	beqz	t0,9d00a688 <Badd3>
9d00a60c:	00000000 	nop
9d00a610:	00082022 	neg	a0,t0
9d00a614:	008c3004 	sllv	a2,t4,a0
9d00a618:	008d2004 	sllv	a0,t5,a0
9d00a61c:	010c6006 	srlv	t4,t4,t0
9d00a620:	010d6806 	srlv	t5,t5,t0
9d00a624:	10c00018 	beqz	a2,9d00a688 <Badd3>
9d00a628:	008c6025 	or	t4,a0,t4
9d00a62c:	10000016 	b	9d00a688 <Badd3>
9d00a630:	358c0002 	ori	t4,t4,0x2

9d00a634 <i1>:
9d00a634:	000e5825 	or	t3,zero,t6
9d00a638:	00084023 	negu	t0,t0

9d00a63c <L4>:
9d00a63c:	2d010020 	sltiu	at,t0,32
9d00a640:	14200007 	bnez	at,9d00a660 <L5>
9d00a644:	00000000 	nop
9d00a648:	2108ffe0 	addi	t0,t0,-32
9d00a64c:	0009302b 	sltu	a2,zero,t1
9d00a650:	100a000d 	beq	zero,t2,9d00a688 <Badd3>
9d00a654:	01464825 	or	t1,t2,a2
9d00a658:	1000fff8 	b	9d00a63c <L4>
9d00a65c:	340a0000 	li	t2,0x0

9d00a660 <L5>:
9d00a660:	11000009 	beqz	t0,9d00a688 <Badd3>
9d00a664:	00000000 	nop
9d00a668:	00082022 	neg	a0,t0
9d00a66c:	00893004 	sllv	a2,t1,a0
9d00a670:	008a2004 	sllv	a0,t2,a0
9d00a674:	01094806 	srlv	t1,t1,t0
9d00a678:	010a5006 	srlv	t2,t2,t0
9d00a67c:	10c00002 	beqz	a2,9d00a688 <Badd3>
9d00a680:	00894825 	or	t1,a0,t1
9d00a684:	35290002 	ori	t1,t1,0x2

9d00a688 <Badd3>:
9d00a688:	00a77826 	xor	t7,a1,a3
9d00a68c:	05e0001c 	bltz	t7,9d00a700 <Bsub1>
9d00a690:	00000000 	nop
9d00a694:	012c4821 	addu	t1,t1,t4
9d00a698:	012c782b 	sltu	t7,t1,t4
9d00a69c:	014d5021 	addu	t2,t2,t5
9d00a6a0:	014f5021 	addu	t2,t2,t7
9d00a6a4:	114d0002 	beq	t2,t5,9d00a6b0 <L7>
9d00a6a8:	00000000 	nop
9d00a6ac:	014d782b 	sltu	t7,t2,t5

9d00a6b0 <L7>:
9d00a6b0:	11e00037 	beqz	t7,9d00a790 <Bres>
9d00a6b4:	00000000 	nop
9d00a6b8:	312f0001 	andi	t7,t1,0x1
9d00a6bc:	11e00002 	beqz	t7,9d00a6c8 <i3>
9d00a6c0:	00000000 	nop
9d00a6c4:	35290002 	ori	t1,t1,0x2

9d00a6c8 <i3>:
9d00a6c8:	00094842 	srl	t1,t1,0x1
9d00a6cc:	000a7fc0 	sll	t7,t2,0x1f
9d00a6d0:	012f4825 	or	t1,t1,t7
9d00a6d4:	000a5042 	srl	t2,t2,0x1
9d00a6d8:	3c018000 	lui	at,0x8000
9d00a6dc:	01415025 	or	t2,t2,at
9d00a6e0:	256b0001 	addiu	t3,t3,1
9d00a6e4:	240107ff 	li	at,2047
9d00a6e8:	15610029 	bne	t3,at,9d00a790 <Bres>
9d00a6ec:	00000000 	nop
9d00a6f0:	3c017ff0 	lui	at,0x7ff0
9d00a6f4:	00a12825 	or	a1,a1,at
9d00a6f8:	10000037 	b	9d00a7d8 <BretA>
9d00a6fc:	24040000 	li	a0,0

9d00a700 <Bsub1>:
9d00a700:	012c782b 	sltu	t7,t1,t4
9d00a704:	012c4823 	subu	t1,t1,t4
9d00a708:	014f102b 	sltu	v0,t2,t7
9d00a70c:	014f5023 	subu	t2,t2,t7
9d00a710:	014d782b 	sltu	t7,t2,t5
9d00a714:	01e27825 	or	t7,t7,v0
9d00a718:	11e00007 	beqz	t7,9d00a738 <i5>
9d00a71c:	014d5023 	subu	t2,t2,t5
9d00a720:	3c018000 	lui	at,0x8000
9d00a724:	00a12826 	xor	a1,a1,at
9d00a728:	0009782b 	sltu	t7,zero,t1
9d00a72c:	00094823 	negu	t1,t1
9d00a730:	000a5023 	negu	t2,t2
9d00a734:	014f5023 	subu	t2,t2,t7

9d00a738 <i5>:
9d00a738:	15400008 	bnez	t2,9d00a75c <L8>
9d00a73c:	00000000 	nop
9d00a740:	15200003 	bnez	t1,9d00a750 <L9>
9d00a744:	00000000 	nop
9d00a748:	1000000d 	b	9d00a780 <L10>
9d00a74c:	240b0000 	li	t3,0

9d00a750 <L9>:
9d00a750:	01205025 	move	t2,t1
9d00a754:	24090000 	li	t1,0
9d00a758:	256bffe0 	addiu	t3,t3,-32

9d00a75c <L8>:
9d00a75c:	71484020 	clz	t0,t2
9d00a760:	11000007 	beqz	t0,9d00a780 <L10>
9d00a764:	00000000 	nop
9d00a768:	01685823 	subu	t3,t3,t0
9d00a76c:	00082022 	neg	a0,t0
9d00a770:	00892006 	srlv	a0,t1,a0
9d00a774:	01094804 	sllv	t1,t1,t0
9d00a778:	010a5004 	sllv	t2,t2,t0
9d00a77c:	01445025 	or	t2,t2,a0

9d00a780 <L10>:
9d00a780:	01497825 	or	t7,t2,t1
9d00a784:	15e00002 	bnez	t7,9d00a790 <Bres>
9d00a788:	00000000 	nop
9d00a78c:	24050000 	li	a1,0

9d00a790 <Bres>:
9d00a790:	19600068 	blez	t3,9d00a934 <Bund>
9d00a794:	00000000 	nop

9d00a798 <Blab8>:
9d00a798:	25290400 	addiu	t1,t1,1024
9d00a79c:	2d2f0400 	sltiu	t7,t1,1024
9d00a7a0:	014f5021 	addu	t2,t2,t7
9d00a7a4:	014f782b 	sltu	t7,t2,t7
9d00a7a8:	016f5821 	addu	t3,t3,t7
9d00a7ac:	00097ac2 	srl	t7,t1,0xb
9d00a7b0:	31ef0001 	andi	t7,t7,0x1
9d00a7b4:	012f4823 	subu	t1,t1,t7
9d00a7b8:	000922c2 	srl	a0,t1,0xb
9d00a7bc:	000a7d40 	sll	t7,t2,0x15
9d00a7c0:	008f2025 	or	a0,a0,t7
9d00a7c4:	000a7840 	sll	t7,t2,0x1
9d00a7c8:	000f7b02 	srl	t7,t7,0xc
9d00a7cc:	00af2825 	or	a1,a1,t7
9d00a7d0:	000b7d00 	sll	t7,t3,0x14
9d00a7d4:	00af2825 	or	a1,a1,t7

9d00a7d8 <BretA>:
9d00a7d8:	00041025 	or	v0,zero,a0
9d00a7dc:	00051825 	or	v1,zero,a1

9d00a7e0 <B999>:
9d00a7e0:	03e00008 	jr	ra
9d00a7e4:	00000000 	nop

9d00a7e8 <BspecA>:
9d00a7e8:	0120782a 	slt	t7,t1,zero
9d00a7ec:	01294821 	addu	t1,t1,t1
9d00a7f0:	014a5021 	addu	t2,t2,t2
9d00a7f4:	15600023 	bnez	t3,9d00a884 <i7>
9d00a7f8:	014f5021 	addu	t2,t2,t7
9d00a7fc:	01497825 	or	t7,t2,t1
9d00a800:	11e00014 	beqz	t7,9d00a854 <i8>
9d00a804:	00000000 	nop
9d00a808:	15400008 	bnez	t2,9d00a82c <L11>
9d00a80c:	00000000 	nop
9d00a810:	15200003 	bnez	t1,9d00a820 <L12>
9d00a814:	00000000 	nop
9d00a818:	1000ff67 	b	9d00a5b8 <Blab1>
9d00a81c:	240b0000 	li	t3,0

9d00a820 <L12>:
9d00a820:	01205025 	move	t2,t1
9d00a824:	24090000 	li	t1,0
9d00a828:	256bffe0 	addiu	t3,t3,-32

9d00a82c <L11>:
9d00a82c:	71484020 	clz	t0,t2
9d00a830:	1100ff61 	beqz	t0,9d00a5b8 <Blab1>
9d00a834:	00000000 	nop
9d00a838:	01685823 	subu	t3,t3,t0
9d00a83c:	00082022 	neg	a0,t0
9d00a840:	00892006 	srlv	a0,t1,a0
9d00a844:	01094804 	sllv	t1,t1,t0
9d00a848:	010a5004 	sllv	t2,t2,t0
9d00a84c:	1000ff5a 	b	9d00a5b8 <Blab1>
9d00a850:	01445025 	or	t2,t2,a0

9d00a854 <i8>:
9d00a854:	240107ff 	li	at,2047
9d00a858:	11c10015 	beq	t6,at,9d00a8b0 <BspecB>
9d00a85c:	00000000 	nop
9d00a860:	00e74021 	addu	t0,a3,a3
9d00a864:	01067825 	or	t7,t0,a2
9d00a868:	15e00003 	bnez	t7,9d00a878 <BretB>
9d00a86c:	00000000 	nop
9d00a870:	04e0ffd9 	bltz	a3,9d00a7d8 <BretA>
9d00a874:	00000000 	nop

9d00a878 <BretB>:
9d00a878:	00061025 	or	v0,zero,a2
9d00a87c:	1000ffd8 	b	9d00a7e0 <B999>
9d00a880:	00071825 	or	v1,zero,a3

9d00a884 <i7>:
9d00a884:	01497825 	or	t7,t2,t1
9d00a888:	15e00027 	bnez	t7,9d00a928 <Bnan>
9d00a88c:	00000000 	nop
9d00a890:	240107ff 	li	at,2047
9d00a894:	15c1ffd0 	bne	t6,at,9d00a7d8 <BretA>
9d00a898:	00000000 	nop
9d00a89c:	00a77826 	xor	t7,a1,a3
9d00a8a0:	05e00021 	bltz	t7,9d00a928 <Bnan>
9d00a8a4:	00000000 	nop
9d00a8a8:	1000fff3 	b	9d00a878 <BretB>
9d00a8ac:	00000000 	nop

9d00a8b0 <BspecB>:
9d00a8b0:	0180782a 	slt	t7,t4,zero
9d00a8b4:	018c6021 	addu	t4,t4,t4
9d00a8b8:	01ad6821 	addu	t5,t5,t5
9d00a8bc:	15c00017 	bnez	t6,9d00a91c <i11>
9d00a8c0:	01af6821 	addu	t5,t5,t7
9d00a8c4:	01ac7825 	or	t7,t5,t4
9d00a8c8:	11e0ffc3 	beqz	t7,9d00a7d8 <BretA>
9d00a8cc:	00000000 	nop
9d00a8d0:	15a00008 	bnez	t5,9d00a8f4 <L14>
9d00a8d4:	00000000 	nop
9d00a8d8:	15800003 	bnez	t4,9d00a8e8 <L15>
9d00a8dc:	00000000 	nop
9d00a8e0:	1000ff39 	b	9d00a5c8 <Blab2>
9d00a8e4:	240e0000 	li	t6,0

9d00a8e8 <L15>:
9d00a8e8:	01806825 	move	t5,t4
9d00a8ec:	240c0000 	li	t4,0
9d00a8f0:	25ceffe0 	addiu	t6,t6,-32

9d00a8f4 <L14>:
9d00a8f4:	71a84020 	clz	t0,t5
9d00a8f8:	1100ff33 	beqz	t0,9d00a5c8 <Blab2>
9d00a8fc:	00000000 	nop
9d00a900:	01c87023 	subu	t6,t6,t0
9d00a904:	00082022 	neg	a0,t0
9d00a908:	008c2006 	srlv	a0,t4,a0
9d00a90c:	010c6004 	sllv	t4,t4,t0
9d00a910:	010d6804 	sllv	t5,t5,t0
9d00a914:	1000ff2c 	b	9d00a5c8 <Blab2>
9d00a918:	01a46825 	or	t5,t5,a0

9d00a91c <i11>:
9d00a91c:	01ac7825 	or	t7,t5,t4
9d00a920:	11e0ffd5 	beqz	t7,9d00a878 <BretB>
9d00a924:	00000000 	nop

9d00a928 <Bnan>:
9d00a928:	3c05fff8 	lui	a1,0xfff8
9d00a92c:	1000ffaa 	b	9d00a7d8 <BretA>
9d00a930:	24040000 	li	a0,0

9d00a934 <Bund>:
9d00a934:	24080001 	li	t0,1
9d00a938:	010b4023 	subu	t0,t0,t3

9d00a93c <L17>:
9d00a93c:	2d010020 	sltiu	at,t0,32
9d00a940:	14200007 	bnez	at,9d00a960 <L18>
9d00a944:	00000000 	nop
9d00a948:	2108ffe0 	addi	t0,t0,-32
9d00a94c:	0009302b 	sltu	a2,zero,t1
9d00a950:	100a000d 	beq	zero,t2,9d00a988 <L19>
9d00a954:	01464825 	or	t1,t2,a2
9d00a958:	1000fff8 	b	9d00a93c <L17>
9d00a95c:	340a0000 	li	t2,0x0

9d00a960 <L18>:
9d00a960:	11000009 	beqz	t0,9d00a988 <L19>
9d00a964:	00000000 	nop
9d00a968:	00082022 	neg	a0,t0
9d00a96c:	00893004 	sllv	a2,t1,a0
9d00a970:	008a2004 	sllv	a0,t2,a0
9d00a974:	01094806 	srlv	t1,t1,t0
9d00a978:	010a5006 	srlv	t2,t2,t0
9d00a97c:	10c00002 	beqz	a2,9d00a988 <L19>
9d00a980:	00894825 	or	t1,a0,t1
9d00a984:	35290002 	ori	t1,t1,0x2

9d00a988 <L19>:
9d00a988:	1000ff83 	b	9d00a798 <Blab8>
9d00a98c:	240b0000 	li	t3,0
9d00a990:	00000000 	nop

Disassembly of section .text:

9d00a994 <__udivdi3>:
9d00a994:	00c04025 	move	t0,a2
9d00a998:	00e01825 	move	v1,a3
9d00a99c:	00805025 	move	t2,a0
9d00a9a0:	14e00098 	bnez	a3,9d00ac04 <__udivdi3+0x270>
9d00a9a4:	00a01025 	move	v0,a1
9d00a9a8:	00a6302b 	sltu	a2,a1,a2
9d00a9ac:	10c00035 	beqz	a2,9d00aa84 <__udivdi3+0xf0>
9d00a9b0:	00000000 	nop
9d00a9b4:	71052820 	clz	a1,t0
9d00a9b8:	10a00006 	beqz	a1,9d00a9d4 <__udivdi3+0x40>
9d00a9bc:	00052023 	negu	a0,a1
9d00a9c0:	008a2006 	srlv	a0,t2,a0
9d00a9c4:	00a21004 	sllv	v0,v0,a1
9d00a9c8:	00a84004 	sllv	t0,t0,a1
9d00a9cc:	00821025 	or	v0,a0,v0
9d00a9d0:	00aa5004 	sllv	t2,t2,a1
9d00a9d4:	00083402 	srl	a2,t0,0x10
9d00a9d8:	0046001b 	divu	zero,v0,a2
9d00a9dc:	00c001f4 	teq	a2,zero,0x7
9d00a9e0:	3105ffff 	andi	a1,t0,0xffff
9d00a9e4:	000a2402 	srl	a0,t2,0x10
9d00a9e8:	00003812 	mflo	a3
9d00a9ec:	00001010 	mfhi	v0
9d00a9f0:	00021400 	sll	v0,v0,0x10
9d00a9f4:	00442025 	or	a0,v0,a0
9d00a9f8:	70a74802 	mul	t1,a1,a3
9d00a9fc:	0089582b 	sltu	t3,a0,t1
9d00aa00:	1160000a 	beqz	t3,9d00aa2c <__udivdi3+0x98>
9d00aa04:	00e01025 	move	v0,a3
9d00aa08:	00882021 	addu	a0,a0,t0
9d00aa0c:	0088582b 	sltu	t3,a0,t0
9d00aa10:	15600006 	bnez	t3,9d00aa2c <__udivdi3+0x98>
9d00aa14:	24e2ffff 	addiu	v0,a3,-1
9d00aa18:	0089582b 	sltu	t3,a0,t1
9d00aa1c:	51600004 	beqzl	t3,9d00aa30 <__udivdi3+0x9c>
9d00aa20:	00892023 	subu	a0,a0,t1
9d00aa24:	24e2fffe 	addiu	v0,a3,-2
9d00aa28:	00882021 	addu	a0,a0,t0
9d00aa2c:	00892023 	subu	a0,a0,t1
9d00aa30:	0086001b 	divu	zero,a0,a2
9d00aa34:	00c001f4 	teq	a2,zero,0x7
9d00aa38:	00003010 	mfhi	a2
9d00aa3c:	00063400 	sll	a2,a2,0x10
9d00aa40:	00002012 	mflo	a0
9d00aa44:	70a43802 	mul	a3,a1,a0
9d00aa48:	3145ffff 	andi	a1,t2,0xffff
9d00aa4c:	00c52825 	or	a1,a2,a1
9d00aa50:	00a7482b 	sltu	t1,a1,a3
9d00aa54:	11200008 	beqz	t1,9d00aa78 <__udivdi3+0xe4>
9d00aa58:	00803025 	move	a2,a0
9d00aa5c:	01052821 	addu	a1,t0,a1
9d00aa60:	00a8402b 	sltu	t0,a1,t0
9d00aa64:	15000004 	bnez	t0,9d00aa78 <__udivdi3+0xe4>
9d00aa68:	2486ffff 	addiu	a2,a0,-1
9d00aa6c:	00a7282b 	sltu	a1,a1,a3
9d00aa70:	54a00001 	bnezl	a1,9d00aa78 <__udivdi3+0xe4>
9d00aa74:	2486fffe 	addiu	a2,a0,-2
9d00aa78:	00021400 	sll	v0,v0,0x10
9d00aa7c:	03e00008 	jr	ra
9d00aa80:	00461025 	or	v0,v0,a2
9d00aa84:	15000004 	bnez	t0,9d00aa98 <__udivdi3+0x104>
9d00aa88:	24020001 	li	v0,1
9d00aa8c:	0048001b 	divu	zero,v0,t0
9d00aa90:	010001f4 	teq	t0,zero,0x7
9d00aa94:	00004012 	mflo	t0
9d00aa98:	710b5820 	clz	t3,t0
9d00aa9c:	15600023 	bnez	t3,9d00ab2c <__udivdi3+0x198>
9d00aaa0:	24070020 	li	a3,32
9d00aaa4:	00a82823 	subu	a1,a1,t0
9d00aaa8:	24030001 	li	v1,1
9d00aaac:	00083402 	srl	a2,t0,0x10
9d00aab0:	00a6001b 	divu	zero,a1,a2
9d00aab4:	00c001f4 	teq	a2,zero,0x7
9d00aab8:	3107ffff 	andi	a3,t0,0xffff
9d00aabc:	000a2402 	srl	a0,t2,0x10
9d00aac0:	00002812 	mflo	a1
9d00aac4:	00001010 	mfhi	v0
9d00aac8:	00021400 	sll	v0,v0,0x10
9d00aacc:	00442025 	or	a0,v0,a0
9d00aad0:	70e54802 	mul	t1,a3,a1
9d00aad4:	0089582b 	sltu	t3,a0,t1
9d00aad8:	1160000a 	beqz	t3,9d00ab04 <__udivdi3+0x170>
9d00aadc:	00a01025 	move	v0,a1
9d00aae0:	00882021 	addu	a0,a0,t0
9d00aae4:	0088582b 	sltu	t3,a0,t0
9d00aae8:	15600006 	bnez	t3,9d00ab04 <__udivdi3+0x170>
9d00aaec:	24a2ffff 	addiu	v0,a1,-1
9d00aaf0:	0089582b 	sltu	t3,a0,t1
9d00aaf4:	51600004 	beqzl	t3,9d00ab08 <__udivdi3+0x174>
9d00aaf8:	00892023 	subu	a0,a0,t1
9d00aafc:	24a2fffe 	addiu	v0,a1,-2
9d00ab00:	00882021 	addu	a0,a0,t0
9d00ab04:	00892023 	subu	a0,a0,t1
9d00ab08:	0086001b 	divu	zero,a0,a2
9d00ab0c:	00c001f4 	teq	a2,zero,0x7
9d00ab10:	314affff 	andi	t2,t2,0xffff
9d00ab14:	00002810 	mfhi	a1
9d00ab18:	00052c00 	sll	a1,a1,0x10
9d00ab1c:	00aa2825 	or	a1,a1,t2
9d00ab20:	00002012 	mflo	a0
9d00ab24:	1000ffca 	b	9d00aa50 <__udivdi3+0xbc>
9d00ab28:	70e43802 	mul	a3,a3,a0
9d00ab2c:	00eb3823 	subu	a3,a3,t3
9d00ab30:	01684004 	sllv	t0,t0,t3
9d00ab34:	00e44806 	srlv	t1,a0,a3
9d00ab38:	00083402 	srl	a2,t0,0x10
9d00ab3c:	00e53806 	srlv	a3,a1,a3
9d00ab40:	00e6001b 	divu	zero,a3,a2
9d00ab44:	00c001f4 	teq	a2,zero,0x7
9d00ab48:	01651004 	sllv	v0,a1,t3
9d00ab4c:	01224825 	or	t1,t1,v0
9d00ab50:	3102ffff 	andi	v0,t0,0xffff
9d00ab54:	00091c02 	srl	v1,t1,0x10
9d00ab58:	00002812 	mflo	a1
9d00ab5c:	00003810 	mfhi	a3
9d00ab60:	00073c00 	sll	a3,a3,0x10
9d00ab64:	00e33825 	or	a3,a3,v1
9d00ab68:	70455002 	mul	t2,v0,a1
9d00ab6c:	00ea602b 	sltu	t4,a3,t2
9d00ab70:	1180000a 	beqz	t4,9d00ab9c <__udivdi3+0x208>
9d00ab74:	00a01825 	move	v1,a1
9d00ab78:	00e83821 	addu	a3,a3,t0
9d00ab7c:	00e8602b 	sltu	t4,a3,t0
9d00ab80:	15800006 	bnez	t4,9d00ab9c <__udivdi3+0x208>
9d00ab84:	24a3ffff 	addiu	v1,a1,-1
9d00ab88:	00ea602b 	sltu	t4,a3,t2
9d00ab8c:	51800004 	beqzl	t4,9d00aba0 <__udivdi3+0x20c>
9d00ab90:	00ea3823 	subu	a3,a3,t2
9d00ab94:	24a3fffe 	addiu	v1,a1,-2
9d00ab98:	00e83821 	addu	a3,a3,t0
9d00ab9c:	00ea3823 	subu	a3,a3,t2
9d00aba0:	00e6001b 	divu	zero,a3,a2
9d00aba4:	00c001f4 	teq	a2,zero,0x7
9d00aba8:	3125ffff 	andi	a1,t1,0xffff
9d00abac:	00003012 	mflo	a2
9d00abb0:	00003810 	mfhi	a3
9d00abb4:	00073c00 	sll	a3,a3,0x10
9d00abb8:	00e52825 	or	a1,a3,a1
9d00abbc:	70461002 	mul	v0,v0,a2
9d00abc0:	00a2482b 	sltu	t1,a1,v0
9d00abc4:	1120000a 	beqz	t1,9d00abf0 <__udivdi3+0x25c>
9d00abc8:	00c03825 	move	a3,a2
9d00abcc:	00a82821 	addu	a1,a1,t0
9d00abd0:	00a8482b 	sltu	t1,a1,t0
9d00abd4:	15200006 	bnez	t1,9d00abf0 <__udivdi3+0x25c>
9d00abd8:	24c7ffff 	addiu	a3,a2,-1
9d00abdc:	00a2482b 	sltu	t1,a1,v0
9d00abe0:	51200004 	beqzl	t1,9d00abf4 <__udivdi3+0x260>
9d00abe4:	00031c00 	sll	v1,v1,0x10
9d00abe8:	24c7fffe 	addiu	a3,a2,-2
9d00abec:	00a82821 	addu	a1,a1,t0
9d00abf0:	00031c00 	sll	v1,v1,0x10
9d00abf4:	01645004 	sllv	t2,a0,t3
9d00abf8:	00a22823 	subu	a1,a1,v0
9d00abfc:	1000ffab 	b	9d00aaac <__udivdi3+0x118>
9d00ac00:	00671825 	or	v1,v1,a3
9d00ac04:	00a7402b 	sltu	t0,a1,a3
9d00ac08:	00001825 	move	v1,zero
9d00ac0c:	1500004e 	bnez	t0,9d00ad48 <__udivdi3+0x3b4>
9d00ac10:	00001025 	move	v0,zero
9d00ac14:	70ea5020 	clz	t2,a3
9d00ac18:	15400007 	bnez	t2,9d00ac38 <__udivdi3+0x2a4>
9d00ac1c:	24090020 	li	t1,32
9d00ac20:	00e5282b 	sltu	a1,a3,a1
9d00ac24:	14a00048 	bnez	a1,9d00ad48 <__udivdi3+0x3b4>
9d00ac28:	24020001 	li	v0,1
9d00ac2c:	0086102b 	sltu	v0,a0,a2
9d00ac30:	03e00008 	jr	ra
9d00ac34:	38420001 	xori	v0,v0,0x1
9d00ac38:	012a4823 	subu	t1,t1,t2
9d00ac3c:	01261006 	srlv	v0,a2,t1
9d00ac40:	01473804 	sllv	a3,a3,t2
9d00ac44:	00473825 	or	a3,v0,a3
9d00ac48:	01451804 	sllv	v1,a1,t2
9d00ac4c:	00074402 	srl	t0,a3,0x10
9d00ac50:	01252806 	srlv	a1,a1,t1
9d00ac54:	00a8001b 	divu	zero,a1,t0
9d00ac58:	010001f4 	teq	t0,zero,0x7
9d00ac5c:	30ebffff 	andi	t3,a3,0xffff
9d00ac60:	01241006 	srlv	v0,a0,t1
9d00ac64:	00431025 	or	v0,v0,v1
9d00ac68:	00021c02 	srl	v1,v0,0x10
9d00ac6c:	00002812 	mflo	a1
9d00ac70:	00004810 	mfhi	t1
9d00ac74:	00094c00 	sll	t1,t1,0x10
9d00ac78:	01234825 	or	t1,t1,v1
9d00ac7c:	71656002 	mul	t4,t3,a1
9d00ac80:	012c682b 	sltu	t5,t1,t4
9d00ac84:	11a0000a 	beqz	t5,9d00acb0 <__udivdi3+0x31c>
9d00ac88:	00a01825 	move	v1,a1
9d00ac8c:	01274821 	addu	t1,t1,a3
9d00ac90:	0127682b 	sltu	t5,t1,a3
9d00ac94:	15a00006 	bnez	t5,9d00acb0 <__udivdi3+0x31c>
9d00ac98:	24a3ffff 	addiu	v1,a1,-1
9d00ac9c:	012c682b 	sltu	t5,t1,t4
9d00aca0:	51a00004 	beqzl	t5,9d00acb4 <__udivdi3+0x320>
9d00aca4:	012c4823 	subu	t1,t1,t4
9d00aca8:	24a3fffe 	addiu	v1,a1,-2
9d00acac:	01274821 	addu	t1,t1,a3
9d00acb0:	012c4823 	subu	t1,t1,t4
9d00acb4:	0128001b 	divu	zero,t1,t0
9d00acb8:	010001f4 	teq	t0,zero,0x7
9d00acbc:	3045ffff 	andi	a1,v0,0xffff
9d00acc0:	00004012 	mflo	t0
9d00acc4:	00004810 	mfhi	t1
9d00acc8:	00094c00 	sll	t1,t1,0x10
9d00accc:	01252825 	or	a1,t1,a1
9d00acd0:	71685802 	mul	t3,t3,t0
9d00acd4:	00ab102b 	sltu	v0,a1,t3
9d00acd8:	1040000a 	beqz	v0,9d00ad04 <__udivdi3+0x370>
9d00acdc:	01004825 	move	t1,t0
9d00ace0:	00a72821 	addu	a1,a1,a3
9d00ace4:	00a7102b 	sltu	v0,a1,a3
9d00ace8:	14400006 	bnez	v0,9d00ad04 <__udivdi3+0x370>
9d00acec:	2509ffff 	addiu	t1,t0,-1
9d00acf0:	00ab102b 	sltu	v0,a1,t3
9d00acf4:	10400004 	beqz	v0,9d00ad08 <__udivdi3+0x374>
9d00acf8:	00031400 	sll	v0,v1,0x10
9d00acfc:	2509fffe 	addiu	t1,t0,-2
9d00ad00:	00a72821 	addu	a1,a1,a3
9d00ad04:	00031400 	sll	v0,v1,0x10
9d00ad08:	01463004 	sllv	a2,a2,t2
9d00ad0c:	00491025 	or	v0,v0,t1
9d00ad10:	00c20019 	multu	a2,v0
9d00ad14:	00ab2823 	subu	a1,a1,t3
9d00ad18:	00003810 	mfhi	a3
9d00ad1c:	00a7182b 	sltu	v1,a1,a3
9d00ad20:	14600007 	bnez	v1,9d00ad40 <__udivdi3+0x3ac>
9d00ad24:	00003012 	mflo	a2
9d00ad28:	14a70007 	bne	a1,a3,9d00ad48 <__udivdi3+0x3b4>
9d00ad2c:	00001825 	move	v1,zero
9d00ad30:	01442004 	sllv	a0,a0,t2
9d00ad34:	0086202b 	sltu	a0,a0,a2
9d00ad38:	10800003 	beqz	a0,9d00ad48 <__udivdi3+0x3b4>
9d00ad3c:	00000000 	nop
9d00ad40:	2442ffff 	addiu	v0,v0,-1
9d00ad44:	00001825 	move	v1,zero
9d00ad48:	03e00008 	jr	ra
9d00ad4c:	00000000 	nop

9d00ad50 <__umoddi3>:
9d00ad50:	00c04825 	move	t1,a2
9d00ad54:	00801025 	move	v0,a0
9d00ad58:	14e0008b 	bnez	a3,9d00af88 <__umoddi3+0x238>
9d00ad5c:	00a01825 	move	v1,a1
9d00ad60:	00a6302b 	sltu	a2,a1,a2
9d00ad64:	10c00033 	beqz	a2,9d00ae34 <__umoddi3+0xe4>
9d00ad68:	712a5020 	clz	t2,t1
9d00ad6c:	11400008 	beqz	t2,9d00ad90 <__umoddi3+0x40>
9d00ad70:	00095c02 	srl	t3,t1,0x10
9d00ad74:	01451804 	sllv	v1,a1,t2
9d00ad78:	000a2823 	negu	a1,t2
9d00ad7c:	00a42806 	srlv	a1,a0,a1
9d00ad80:	01494804 	sllv	t1,t1,t2
9d00ad84:	00a31825 	or	v1,a1,v1
9d00ad88:	01441004 	sllv	v0,a0,t2
9d00ad8c:	00095c02 	srl	t3,t1,0x10
9d00ad90:	006b001b 	divu	zero,v1,t3
9d00ad94:	016001f4 	teq	t3,zero,0x7
9d00ad98:	3124ffff 	andi	a0,t1,0xffff
9d00ad9c:	00001812 	mflo	v1
9d00ada0:	00002810 	mfhi	a1
9d00ada4:	70643002 	mul	a2,v1,a0
9d00ada8:	00051c00 	sll	v1,a1,0x10
9d00adac:	00022c02 	srl	a1,v0,0x10
9d00adb0:	00651825 	or	v1,v1,a1
9d00adb4:	0066282b 	sltu	a1,v1,a2
9d00adb8:	50a00008 	beqzl	a1,9d00addc <__umoddi3+0x8c>
9d00adbc:	00661823 	subu	v1,v1,a2
9d00adc0:	00691821 	addu	v1,v1,t1
9d00adc4:	0069282b 	sltu	a1,v1,t1
9d00adc8:	14a00003 	bnez	a1,9d00add8 <__umoddi3+0x88>
9d00adcc:	0066282b 	sltu	a1,v1,a2
9d00add0:	54a00001 	bnezl	a1,9d00add8 <__umoddi3+0x88>
9d00add4:	00691821 	addu	v1,v1,t1
9d00add8:	00661823 	subu	v1,v1,a2
9d00addc:	006b001b 	divu	zero,v1,t3
9d00ade0:	016001f4 	teq	t3,zero,0x7
9d00ade4:	3042ffff 	andi	v0,v0,0xffff
9d00ade8:	00003010 	mfhi	a2
9d00adec:	00001812 	mflo	v1
9d00adf0:	70645802 	mul	t3,v1,a0
9d00adf4:	00061c00 	sll	v1,a2,0x10
9d00adf8:	00621025 	or	v0,v1,v0
9d00adfc:	004b182b 	sltu	v1,v0,t3
9d00ae00:	50600009 	beqzl	v1,9d00ae28 <__umoddi3+0xd8>
9d00ae04:	004b1023 	subu	v0,v0,t3
9d00ae08:	00491021 	addu	v0,v0,t1
9d00ae0c:	0049182b 	sltu	v1,v0,t1
9d00ae10:	54600005 	bnezl	v1,9d00ae28 <__umoddi3+0xd8>
9d00ae14:	004b1023 	subu	v0,v0,t3
9d00ae18:	004b182b 	sltu	v1,v0,t3
9d00ae1c:	54600001 	bnezl	v1,9d00ae24 <__umoddi3+0xd4>
9d00ae20:	00491021 	addu	v0,v0,t1
9d00ae24:	004b1023 	subu	v0,v0,t3
9d00ae28:	01421006 	srlv	v0,v0,t2
9d00ae2c:	03e00008 	jr	ra
9d00ae30:	00001825 	move	v1,zero
9d00ae34:	15200004 	bnez	t1,9d00ae48 <__umoddi3+0xf8>
9d00ae38:	24030001 	li	v1,1
9d00ae3c:	0069001b 	divu	zero,v1,t1
9d00ae40:	012001f4 	teq	t1,zero,0x7
9d00ae44:	00004812 	mflo	t1
9d00ae48:	712a5020 	clz	t2,t1
9d00ae4c:	1540001f 	bnez	t2,9d00aecc <__umoddi3+0x17c>
9d00ae50:	24070020 	li	a3,32
9d00ae54:	00a92823 	subu	a1,a1,t1
9d00ae58:	00095c02 	srl	t3,t1,0x10
9d00ae5c:	00ab001b 	divu	zero,a1,t3
9d00ae60:	016001f4 	teq	t3,zero,0x7
9d00ae64:	3124ffff 	andi	a0,t1,0xffff
9d00ae68:	00002812 	mflo	a1
9d00ae6c:	00001810 	mfhi	v1
9d00ae70:	70a43002 	mul	a2,a1,a0
9d00ae74:	00032c00 	sll	a1,v1,0x10
9d00ae78:	00021c02 	srl	v1,v0,0x10
9d00ae7c:	00a32825 	or	a1,a1,v1
9d00ae80:	00a6182b 	sltu	v1,a1,a2
9d00ae84:	50600008 	beqzl	v1,9d00aea8 <__umoddi3+0x158>
9d00ae88:	00a63023 	subu	a2,a1,a2
9d00ae8c:	00a92821 	addu	a1,a1,t1
9d00ae90:	00a9182b 	sltu	v1,a1,t1
9d00ae94:	14600003 	bnez	v1,9d00aea4 <__umoddi3+0x154>
9d00ae98:	00a6182b 	sltu	v1,a1,a2
9d00ae9c:	54600001 	bnezl	v1,9d00aea4 <__umoddi3+0x154>
9d00aea0:	00a92821 	addu	a1,a1,t1
9d00aea4:	00a63023 	subu	a2,a1,a2
9d00aea8:	00cb001b 	divu	zero,a2,t3
9d00aeac:	016001f4 	teq	t3,zero,0x7
9d00aeb0:	3042ffff 	andi	v0,v0,0xffff
9d00aeb4:	00002810 	mfhi	a1
9d00aeb8:	00003012 	mflo	a2
9d00aebc:	70c45802 	mul	t3,a2,a0
9d00aec0:	00053400 	sll	a2,a1,0x10
9d00aec4:	1000ffcd 	b	9d00adfc <__umoddi3+0xac>
9d00aec8:	00c21025 	or	v0,a2,v0
9d00aecc:	00ea3823 	subu	a3,a3,t2
9d00aed0:	01494804 	sllv	t1,t1,t2
9d00aed4:	00e41806 	srlv	v1,a0,a3
9d00aed8:	00093402 	srl	a2,t1,0x10
9d00aedc:	00e53806 	srlv	a3,a1,a3
9d00aee0:	00e6001b 	divu	zero,a3,a2
9d00aee4:	00c001f4 	teq	a2,zero,0x7
9d00aee8:	01451004 	sllv	v0,a1,t2
9d00aeec:	3128ffff 	andi	t0,t1,0xffff
9d00aef0:	00621825 	or	v1,v1,v0
9d00aef4:	00032c02 	srl	a1,v1,0x10
9d00aef8:	00003812 	mflo	a3
9d00aefc:	00006010 	mfhi	t4
9d00af00:	70e81002 	mul	v0,a3,t0
9d00af04:	000c3c00 	sll	a3,t4,0x10
9d00af08:	00e53825 	or	a3,a3,a1
9d00af0c:	00e2282b 	sltu	a1,a3,v0
9d00af10:	50a00008 	beqzl	a1,9d00af34 <__umoddi3+0x1e4>
9d00af14:	00e23823 	subu	a3,a3,v0
9d00af18:	00e93821 	addu	a3,a3,t1
9d00af1c:	00e9282b 	sltu	a1,a3,t1
9d00af20:	14a00003 	bnez	a1,9d00af30 <__umoddi3+0x1e0>
9d00af24:	00e2282b 	sltu	a1,a3,v0
9d00af28:	54a00001 	bnezl	a1,9d00af30 <__umoddi3+0x1e0>
9d00af2c:	00e93821 	addu	a3,a3,t1
9d00af30:	00e23823 	subu	a3,a3,v0
9d00af34:	00e6001b 	divu	zero,a3,a2
9d00af38:	00c001f4 	teq	a2,zero,0x7
9d00af3c:	3065ffff 	andi	a1,v1,0xffff
9d00af40:	00003012 	mflo	a2
9d00af44:	00003810 	mfhi	a3
9d00af48:	00073c00 	sll	a3,a3,0x10
9d00af4c:	00e52825 	or	a1,a3,a1
9d00af50:	70c83002 	mul	a2,a2,t0
9d00af54:	00a6102b 	sltu	v0,a1,a2
9d00af58:	10400009 	beqz	v0,9d00af80 <__umoddi3+0x230>
9d00af5c:	01441004 	sllv	v0,a0,t2
9d00af60:	00a92821 	addu	a1,a1,t1
9d00af64:	00a9102b 	sltu	v0,a1,t1
9d00af68:	14400005 	bnez	v0,9d00af80 <__umoddi3+0x230>
9d00af6c:	01441004 	sllv	v0,a0,t2
9d00af70:	00a6102b 	sltu	v0,a1,a2
9d00af74:	54400001 	bnezl	v0,9d00af7c <__umoddi3+0x22c>
9d00af78:	00a92821 	addu	a1,a1,t1
9d00af7c:	01441004 	sllv	v0,a0,t2
9d00af80:	1000ffb5 	b	9d00ae58 <__umoddi3+0x108>
9d00af84:	00a62823 	subu	a1,a1,a2
9d00af88:	00a7402b 	sltu	t0,a1,a3
9d00af8c:	1500005c 	bnez	t0,9d00b100 <__umoddi3+0x3b0>
9d00af90:	70ee7020 	clz	t6,a3
9d00af94:	15c0000a 	bnez	t6,9d00afc0 <__umoddi3+0x270>
9d00af98:	00e5402b 	sltu	t0,a3,a1
9d00af9c:	15000003 	bnez	t0,9d00afac <__umoddi3+0x25c>
9d00afa0:	0086402b 	sltu	t0,a0,a2
9d00afa4:	15000056 	bnez	t0,9d00b100 <__umoddi3+0x3b0>
9d00afa8:	00000000 	nop
9d00afac:	00861023 	subu	v0,a0,a2
9d00afb0:	00a72823 	subu	a1,a1,a3
9d00afb4:	0082182b 	sltu	v1,a0,v0
9d00afb8:	03e00008 	jr	ra
9d00afbc:	00a31823 	subu	v1,a1,v1
9d00afc0:	240b0020 	li	t3,32
9d00afc4:	016e5823 	subu	t3,t3,t6
9d00afc8:	01666006 	srlv	t4,a2,t3
9d00afcc:	01c73804 	sllv	a3,a3,t6
9d00afd0:	01873825 	or	a3,t4,a3
9d00afd4:	01c54004 	sllv	t0,a1,t6
9d00afd8:	00074c02 	srl	t1,a3,0x10
9d00afdc:	01652806 	srlv	a1,a1,t3
9d00afe0:	00a9001b 	divu	zero,a1,t1
9d00afe4:	012001f4 	teq	t1,zero,0x7
9d00afe8:	01641006 	srlv	v0,a0,t3
9d00afec:	00481025 	or	v0,v0,t0
9d00aff0:	30e8ffff 	andi	t0,a3,0xffff
9d00aff4:	00026402 	srl	t4,v0,0x10
9d00aff8:	00002812 	mflo	a1
9d00affc:	00005010 	mfhi	t2
9d00b000:	000a5400 	sll	t2,t2,0x10
9d00b004:	014c5025 	or	t2,t2,t4
9d00b008:	71051802 	mul	v1,t0,a1
9d00b00c:	0143602b 	sltu	t4,t2,v1
9d00b010:	1180000a 	beqz	t4,9d00b03c <__umoddi3+0x2ec>
9d00b014:	00a06825 	move	t5,a1
9d00b018:	01475021 	addu	t2,t2,a3
9d00b01c:	0147602b 	sltu	t4,t2,a3
9d00b020:	15800006 	bnez	t4,9d00b03c <__umoddi3+0x2ec>
9d00b024:	24adffff 	addiu	t5,a1,-1
9d00b028:	0143602b 	sltu	t4,t2,v1
9d00b02c:	51800004 	beqzl	t4,9d00b040 <__umoddi3+0x2f0>
9d00b030:	01435023 	subu	t2,t2,v1
9d00b034:	24adfffe 	addiu	t5,a1,-2
9d00b038:	01475021 	addu	t2,t2,a3
9d00b03c:	01435023 	subu	t2,t2,v1
9d00b040:	0149001b 	divu	zero,t2,t1
9d00b044:	012001f4 	teq	t1,zero,0x7
9d00b048:	00004812 	mflo	t1
9d00b04c:	00005010 	mfhi	t2
9d00b050:	000a5400 	sll	t2,t2,0x10
9d00b054:	71092802 	mul	a1,t0,t1
9d00b058:	3048ffff 	andi	t0,v0,0xffff
9d00b05c:	01484025 	or	t0,t2,t0
9d00b060:	0105102b 	sltu	v0,t0,a1
9d00b064:	1040000a 	beqz	v0,9d00b090 <__umoddi3+0x340>
9d00b068:	01205025 	move	t2,t1
9d00b06c:	01074021 	addu	t0,t0,a3
9d00b070:	0107102b 	sltu	v0,t0,a3
9d00b074:	14400006 	bnez	v0,9d00b090 <__umoddi3+0x340>
9d00b078:	252affff 	addiu	t2,t1,-1
9d00b07c:	0105102b 	sltu	v0,t0,a1
9d00b080:	10400004 	beqz	v0,9d00b094 <__umoddi3+0x344>
9d00b084:	000d6400 	sll	t4,t5,0x10
9d00b088:	252afffe 	addiu	t2,t1,-2
9d00b08c:	01074021 	addu	t0,t0,a3
9d00b090:	000d6400 	sll	t4,t5,0x10
9d00b094:	01c61004 	sllv	v0,a2,t6
9d00b098:	018a6025 	or	t4,t4,t2
9d00b09c:	01820019 	multu	t4,v0
9d00b0a0:	01054023 	subu	t0,t0,a1
9d00b0a4:	01c41804 	sllv	v1,a0,t6
9d00b0a8:	00006810 	mfhi	t5
9d00b0ac:	010d202b 	sltu	a0,t0,t5
9d00b0b0:	01a02825 	move	a1,t5
9d00b0b4:	00006012 	mflo	t4
9d00b0b8:	14800005 	bnez	a0,9d00b0d0 <__umoddi3+0x380>
9d00b0bc:	00003012 	mflo	a2
9d00b0c0:	150d0007 	bne	t0,t5,9d00b0e0 <__umoddi3+0x390>
9d00b0c4:	006c202b 	sltu	a0,v1,t4
9d00b0c8:	10800006 	beqz	a0,9d00b0e4 <__umoddi3+0x394>
9d00b0cc:	00663023 	subu	a2,v1,a2
9d00b0d0:	01823023 	subu	a2,t4,v0
9d00b0d4:	01a73823 	subu	a3,t5,a3
9d00b0d8:	0186602b 	sltu	t4,t4,a2
9d00b0dc:	00ec2823 	subu	a1,a3,t4
9d00b0e0:	00663023 	subu	a2,v1,a2
9d00b0e4:	0066182b 	sltu	v1,v1,a2
9d00b0e8:	01054023 	subu	t0,t0,a1
9d00b0ec:	01031823 	subu	v1,t0,v1
9d00b0f0:	01631004 	sllv	v0,v1,t3
9d00b0f4:	01c63006 	srlv	a2,a2,t6
9d00b0f8:	00461025 	or	v0,v0,a2
9d00b0fc:	01c31806 	srlv	v1,v1,t6
9d00b100:	03e00008 	jr	ra
9d00b104:	00000000 	nop

Disassembly of section .text.dp32mul:

9d00b108 <__muldf3>:
9d00b108:	00055040 000a5542 00054ac0 00047d42     @P..BU...J..B}..
9d00b118:	012f4825 000442c0 3c0e8000 012e4825     %H/..B.....<%H..
9d00b128:	00076840 000d6d42 000762c0 00067d42     @h..Bm...b..B}..
9d00b138:	018f6025 00065ac0 018e6025 00a72826     %`...Z..%`..&(..
9d00b148:	00ae2824 254fffff 2de107fe 10200047     $(....O%...-G. .
9d00b158:	00000000                                ....

9d00b15c <Clab1>:
9d00b15c:	25afffff 	addiu	t7,t5,-1
9d00b160:	2de107fe 	sltiu	at,t7,2046
9d00b164:	1020006f 	beqz	at,9d00b324 <CspecB>
9d00b168:	00000000 	nop

9d00b16c <Clab2>:
9d00b16c:	25affc02 	addiu	t7,t5,-1022
9d00b170:	014f5021 	addu	t2,t2,t7
9d00b174:	012c0019 	multu	t1,t4
9d00b178:	00003812 	mflo	a3
9d00b17c:	00007010 	mfhi	t6
9d00b180:	010b0019 	multu	t0,t3
9d00b184:	00002012 	mflo	a0
9d00b188:	00003010 	mfhi	a2
9d00b18c:	012b0019 	multu	t1,t3
9d00b190:	00005812 	mflo	t3
9d00b194:	00006810 	mfhi	t5
9d00b198:	00cb3021 	addu	a2,a2,t3
9d00b19c:	00cb782b 	sltu	t7,a2,t3
9d00b1a0:	00ed3821 	addu	a3,a3,t5
9d00b1a4:	00ef3821 	addu	a3,a3,t7
9d00b1a8:	10ed0002 	beq	a3,t5,9d00b1b4 <L20>
9d00b1ac:	00000000 	nop
9d00b1b0:	00ed782b 	sltu	t7,a3,t5

9d00b1b4 <L20>:
9d00b1b4:	01cf7021 	addu	t6,t6,t7
9d00b1b8:	010c0019 	multu	t0,t4
9d00b1bc:	00004012 	mflo	t0
9d00b1c0:	00004810 	mfhi	t1
9d00b1c4:	00c83021 	addu	a2,a2,t0
9d00b1c8:	00c8782b 	sltu	t7,a2,t0
9d00b1cc:	00e93821 	addu	a3,a3,t1
9d00b1d0:	00ef3821 	addu	a3,a3,t7
9d00b1d4:	10e90002 	beq	a3,t1,9d00b1e0 <L21>
9d00b1d8:	00000000 	nop
9d00b1dc:	00e9782b 	sltu	t7,a3,t1

9d00b1e0 <L21>:
9d00b1e0:	01cf7021 	addu	t6,t6,t7
9d00b1e4:	00867825 	or	t7,a0,a2
9d00b1e8:	11e00002 	beqz	t7,9d00b1f4 <i13>
9d00b1ec:	00000000 	nop
9d00b1f0:	34e70001 	ori	a3,a3,0x1

9d00b1f4 <i13>:
9d00b1f4:	000e4825 	or	t1,zero,t6
9d00b1f8:	05200006 	bltz	t1,9d00b214 <i14>
9d00b1fc:	00074025 	or	t0,zero,a3
9d00b200:	0100782a 	slt	t7,t0,zero
9d00b204:	01084021 	addu	t0,t0,t0
9d00b208:	01294821 	addu	t1,t1,t1
9d00b20c:	012f4821 	addu	t1,t1,t7
9d00b210:	254affff 	addiu	t2,t2,-1

9d00b214 <i14>:
9d00b214:	254fffff 	addiu	t7,t2,-1
9d00b218:	2de107fe 	sltiu	at,t7,2046
9d00b21c:	10200068 	beqz	at,9d00b3c0 <Coveund>
9d00b220:	00000000 	nop
9d00b224:	25080400 	addiu	t0,t0,1024
9d00b228:	2d0f0400 	sltiu	t7,t0,1024
9d00b22c:	012f4821 	addu	t1,t1,t7
9d00b230:	012f782b 	sltu	t7,t1,t7
9d00b234:	014f5021 	addu	t2,t2,t7

9d00b238 <Clab8>:
9d00b238:	00087ac2 	srl	t7,t0,0xb
9d00b23c:	31ef0001 	andi	t7,t7,0x1
9d00b240:	010f4023 	subu	t0,t0,t7
9d00b244:	000822c2 	srl	a0,t0,0xb
9d00b248:	00097d40 	sll	t7,t1,0x15
9d00b24c:	008f2025 	or	a0,a0,t7
9d00b250:	00097840 	sll	t7,t1,0x1
9d00b254:	000f7b02 	srl	t7,t7,0xc
9d00b258:	00af2825 	or	a1,a1,t7
9d00b25c:	000a7d00 	sll	t7,t2,0x14
9d00b260:	00af2825 	or	a1,a1,t7

9d00b264 <Cret>:
9d00b264:	00041025 	or	v0,zero,a0
9d00b268:	00051825 	or	v1,zero,a1

9d00b26c <C999>:
9d00b26c:	03e00008 	jr	ra
9d00b270:	00000000 	nop

9d00b274 <CspecA>:
9d00b274:	0100782a 	slt	t7,t0,zero
9d00b278:	01084021 	addu	t0,t0,t0
9d00b27c:	01294821 	addu	t1,t1,t1
9d00b280:	1540001c 	bnez	t2,9d00b2f4 <i15>
9d00b284:	012f4821 	addu	t1,t1,t7
9d00b288:	01287825 	or	t7,t1,t0
9d00b28c:	11e00014 	beqz	t7,9d00b2e0 <i16>
9d00b290:	00000000 	nop
9d00b294:	15200008 	bnez	t1,9d00b2b8 <L22>
9d00b298:	00000000 	nop
9d00b29c:	15000003 	bnez	t0,9d00b2ac <L23>
9d00b2a0:	00000000 	nop
9d00b2a4:	1000ffad 	b	9d00b15c <Clab1>
9d00b2a8:	240a0000 	li	t2,0

9d00b2ac <L23>:
9d00b2ac:	01004825 	move	t1,t0
9d00b2b0:	24080000 	li	t0,0
9d00b2b4:	254affe0 	addiu	t2,t2,-32

9d00b2b8 <L22>:
9d00b2b8:	712e7020 	clz	t6,t1
9d00b2bc:	11c0ffa7 	beqz	t6,9d00b15c <Clab1>
9d00b2c0:	00000000 	nop
9d00b2c4:	014e5023 	subu	t2,t2,t6
9d00b2c8:	000e3822 	neg	a3,t6
9d00b2cc:	00e83806 	srlv	a3,t0,a3
9d00b2d0:	01c84004 	sllv	t0,t0,t6
9d00b2d4:	01c94804 	sllv	t1,t1,t6
9d00b2d8:	1000ffa0 	b	9d00b15c <Clab1>
9d00b2dc:	01274825 	or	t1,t1,a3

9d00b2e0 <i16>:
9d00b2e0:	240107ff 	li	at,2047
9d00b2e4:	11a10033 	beq	t5,at,9d00b3b4 <Cnan>
9d00b2e8:	00000000 	nop
9d00b2ec:	1000ffdd 	b	9d00b264 <Cret>
9d00b2f0:	00000000 	nop

9d00b2f4 <i15>:
9d00b2f4:	01287825 	or	t7,t1,t0
9d00b2f8:	15e0002e 	bnez	t7,9d00b3b4 <Cnan>
9d00b2fc:	00000000 	nop
9d00b300:	15a00005 	bnez	t5,9d00b318 <i17>
9d00b304:	00000000 	nop
9d00b308:	000c7840 	sll	t7,t4,0x1
9d00b30c:	01eb7825 	or	t7,t7,t3
9d00b310:	11e00028 	beqz	t7,9d00b3b4 <Cnan>
9d00b314:	00000000 	nop

9d00b318 <i17>:
9d00b318:	240107ff 	li	at,2047
9d00b31c:	15a10021 	bne	t5,at,9d00b3a4 <Cinf>
9d00b320:	00000000 	nop

9d00b324 <CspecB>:
9d00b324:	0160782a 	slt	t7,t3,zero
9d00b328:	016b5821 	addu	t3,t3,t3
9d00b32c:	018c6021 	addu	t4,t4,t4
9d00b330:	15a00019 	bnez	t5,9d00b398 <i18>
9d00b334:	018f6021 	addu	t4,t4,t7
9d00b338:	018b7825 	or	t7,t4,t3
9d00b33c:	11e00014 	beqz	t7,9d00b390 <i19>
9d00b340:	00000000 	nop
9d00b344:	15800008 	bnez	t4,9d00b368 <L25>
9d00b348:	00000000 	nop
9d00b34c:	15600003 	bnez	t3,9d00b35c <L26>
9d00b350:	00000000 	nop
9d00b354:	1000ff85 	b	9d00b16c <Clab2>
9d00b358:	240d0000 	li	t5,0

9d00b35c <L26>:
9d00b35c:	01606025 	move	t4,t3
9d00b360:	240b0000 	li	t3,0
9d00b364:	25adffe0 	addiu	t5,t5,-32

9d00b368 <L25>:
9d00b368:	71863020 	clz	a2,t4
9d00b36c:	10c0ff7f 	beqz	a2,9d00b16c <Clab2>
9d00b370:	00000000 	nop
9d00b374:	01a66823 	subu	t5,t5,a2
9d00b378:	00067022 	neg	t6,a2
9d00b37c:	01cb7006 	srlv	t6,t3,t6
9d00b380:	00cb5804 	sllv	t3,t3,a2
9d00b384:	00cc6004 	sllv	t4,t4,a2
9d00b388:	1000ff78 	b	9d00b16c <Clab2>
9d00b38c:	018e6025 	or	t4,t4,t6

9d00b390 <i19>:
9d00b390:	1000ffb4 	b	9d00b264 <Cret>
9d00b394:	24040000 	li	a0,0

9d00b398 <i18>:
9d00b398:	018b7825 	or	t7,t4,t3
9d00b39c:	15e00005 	bnez	t7,9d00b3b4 <Cnan>
9d00b3a0:	00000000 	nop

9d00b3a4 <Cinf>:
9d00b3a4:	3c017ff0 	lui	at,0x7ff0
9d00b3a8:	00a12825 	or	a1,a1,at
9d00b3ac:	1000ffad 	b	9d00b264 <Cret>
9d00b3b0:	24040000 	li	a0,0

9d00b3b4 <Cnan>:
9d00b3b4:	3c05fff8 	lui	a1,0xfff8
9d00b3b8:	1000ffaa 	b	9d00b264 <Cret>
9d00b3bc:	24040000 	li	a0,0

9d00b3c0 <Coveund>:
9d00b3c0:	1d40fff8 	bgtz	t2,9d00b3a4 <Cinf>
9d00b3c4:	00000000 	nop
9d00b3c8:	240e0001 	li	t6,1
9d00b3cc:	01ca7023 	subu	t6,t6,t2

9d00b3d0 <L28>:
9d00b3d0:	2dc10020 	sltiu	at,t6,32
9d00b3d4:	14200007 	bnez	at,9d00b3f4 <L29>
9d00b3d8:	00000000 	nop
9d00b3dc:	21ceffe0 	addi	t6,t6,-32
9d00b3e0:	0008302b 	sltu	a2,zero,t0
9d00b3e4:	1009000d 	beq	zero,t1,9d00b41c <L30>
9d00b3e8:	01264025 	or	t0,t1,a2
9d00b3ec:	1000fff8 	b	9d00b3d0 <L28>
9d00b3f0:	34090000 	li	t1,0x0

9d00b3f4 <L29>:
9d00b3f4:	11c00009 	beqz	t6,9d00b41c <L30>
9d00b3f8:	00000000 	nop
9d00b3fc:	000e3822 	neg	a3,t6
9d00b400:	00e83004 	sllv	a2,t0,a3
9d00b404:	00e93804 	sllv	a3,t1,a3
9d00b408:	01c84006 	srlv	t0,t0,t6
9d00b40c:	01c94806 	srlv	t1,t1,t6
9d00b410:	10c00002 	beqz	a2,9d00b41c <L30>
9d00b414:	00e84025 	or	t0,a3,t0
9d00b418:	35080002 	ori	t0,t0,0x2

9d00b41c <L30>:
9d00b41c:	25080400 	addiu	t0,t0,1024
9d00b420:	2d0f0400 	sltiu	t7,t0,1024
9d00b424:	012f4821 	addu	t1,t1,t7
9d00b428:	1000ff83 	b	9d00b238 <Clab8>
9d00b42c:	000957c2 	srl	t2,t1,0x1f
9d00b430:	00000000 	nop

Disassembly of section .text:

9d00b434 <get_encoder_flag>:
char rx_message[MAX_RX_MESSAGE];
volatile int pos = 0;
volatile int newPosFlag = 0;

int get_encoder_flag(){
    return newPosFlag;
9d00b434:	8f828014 	lw	v0,-32748(gp)
}
9d00b438:	03e00008 	jr	ra
9d00b43c:	00000000 	nop

9d00b440 <set_encoder_flag>:

void set_encoder_flag(int f){
    newPosFlag = f;
9d00b440:	af848014 	sw	a0,-32748(gp)
}
9d00b444:	03e00008 	jr	ra
9d00b448:	00000000 	nop

9d00b44c <get_encoder_count>:

int get_encoder_count(){
    return pos;
9d00b44c:	8f828018 	lw	v0,-32744(gp)
}
9d00b450:	03e00008 	jr	ra
9d00b454:	00000000 	nop

9d00b458 <U2ISR>:

void __ISR(_UART_2_VECTOR, IPL7SOFT) U2ISR(void) { 
9d00b458:	415de800 	rdpgpr	sp,sp
9d00b45c:	401a7000 	mfc0	k0,c0_epc
9d00b460:	401b6000 	mfc0	k1,c0_status
9d00b464:	27bdff80 	addiu	sp,sp,-128
9d00b468:	afbb007c 	sw	k1,124(sp)
9d00b46c:	7c1b7844 	ins	k1,zero,0x1,0xf
9d00b470:	377b1c00 	ori	k1,k1,0x1c00
9d00b474:	409b6000 	mtc0	k1,c0_status
9d00b478:	afbf0064 	sw	ra,100(sp)
9d00b47c:	afbe0060 	sw	s8,96(sp)
9d00b480:	afb9005c 	sw	t9,92(sp)
9d00b484:	afb80058 	sw	t8,88(sp)
9d00b488:	afb20054 	sw	s2,84(sp)
9d00b48c:	afb10050 	sw	s1,80(sp)
9d00b490:	afb0004c 	sw	s0,76(sp)
9d00b494:	afaf0048 	sw	t7,72(sp)
9d00b498:	afae0044 	sw	t6,68(sp)
9d00b49c:	afad0040 	sw	t5,64(sp)
9d00b4a0:	afac003c 	sw	t4,60(sp)
9d00b4a4:	afab0038 	sw	t3,56(sp)
9d00b4a8:	afaa0034 	sw	t2,52(sp)
9d00b4ac:	afa90030 	sw	t1,48(sp)
9d00b4b0:	afa8002c 	sw	t0,44(sp)
9d00b4b4:	afa70028 	sw	a3,40(sp)
9d00b4b8:	afa60024 	sw	a2,36(sp)
9d00b4bc:	afa50020 	sw	a1,32(sp)
9d00b4c0:	afa4001c 	sw	a0,28(sp)
9d00b4c4:	afa30018 	sw	v1,24(sp)
9d00b4c8:	afa20014 	sw	v0,20(sp)
9d00b4cc:	afa10010 	sw	at,16(sp)
9d00b4d0:	00001012 	mflo	v0
9d00b4d4:	afa2006c 	sw	v0,108(sp)
9d00b4d8:	00001810 	mfhi	v1
9d00b4dc:	afa30068 	sw	v1,104(sp)
9d00b4e0:	03a0f025 	move	s8,sp
  char data = U2RXREG; // read the data
9d00b4e4:	3c10bf80 	lui	s0,0xbf80
9d00b4e8:	8e106230 	lw	s0,25136(s0)
9d00b4ec:	7c108420 	seb	s0,s0
  if (data == '\n') {
9d00b4f0:	2411000a 	li	s1,10
9d00b4f4:	16110031 	bne	s0,s1,9d00b5bc <U2ISR+0x164>
9d00b4f8:	00000000 	nop
    rx_message[rx_num_bytes] = '\0';
9d00b4fc:	8f82801c 	lw	v0,-32740(gp)
9d00b500:	3c04a000 	lui	a0,0xa000
9d00b504:	24840018 	addiu	a0,a0,24
9d00b508:	00441021 	addu	v0,v0,a0
9d00b50c:	a0400000 	sb	zero,0(v0)
    sscanf(rx_message,"%d",&pos);
9d00b510:	27868018 	addiu	a2,gp,-32744
9d00b514:	3c059d00 	lui	a1,0x9d00
9d00b518:	0f403cab 	jal	9d00f2ac <_dsscanf_dn>
9d00b51c:	24a57490 	addiu	a1,a1,29840
    newPosFlag = 1;
9d00b520:	24100001 	li	s0,1
9d00b524:	af908014 	sw	s0,-32748(gp)
    rx_num_bytes = 0;
9d00b528:	af80801c 	sw	zero,-32740(gp)
    // roll over if got more bytes than the size of the array
    if (rx_num_bytes >= MAX_RX_MESSAGE) {
      rx_num_bytes = 0;
    }
  }
  IFS1bits.U2RXIF = 0;
9d00b52c:	3c10bf88 	lui	s0,0xbf88
9d00b530:	8e111040 	lw	s1,4160(s0)
9d00b534:	7c11b584 	ins	s1,zero,0x16,0x1
9d00b538:	ae111040 	sw	s1,4160(s0)
}
9d00b53c:	03c0e825 	move	sp,s8
9d00b540:	8fa2006c 	lw	v0,108(sp)
9d00b544:	00400013 	mtlo	v0
9d00b548:	8fa30068 	lw	v1,104(sp)
9d00b54c:	00600011 	mthi	v1
9d00b550:	8fbf0064 	lw	ra,100(sp)
9d00b554:	8fbe0060 	lw	s8,96(sp)
9d00b558:	8fb9005c 	lw	t9,92(sp)
9d00b55c:	8fb80058 	lw	t8,88(sp)
9d00b560:	8fb20054 	lw	s2,84(sp)
9d00b564:	8fb10050 	lw	s1,80(sp)
9d00b568:	8fb0004c 	lw	s0,76(sp)
9d00b56c:	8faf0048 	lw	t7,72(sp)
9d00b570:	8fae0044 	lw	t6,68(sp)
9d00b574:	8fad0040 	lw	t5,64(sp)
9d00b578:	8fac003c 	lw	t4,60(sp)
9d00b57c:	8fab0038 	lw	t3,56(sp)
9d00b580:	8faa0034 	lw	t2,52(sp)
9d00b584:	8fa90030 	lw	t1,48(sp)
9d00b588:	8fa8002c 	lw	t0,44(sp)
9d00b58c:	8fa70028 	lw	a3,40(sp)
9d00b590:	8fa60024 	lw	a2,36(sp)
9d00b594:	8fa50020 	lw	a1,32(sp)
9d00b598:	8fa4001c 	lw	a0,28(sp)
9d00b59c:	8fa30018 	lw	v1,24(sp)
9d00b5a0:	8fa20014 	lw	v0,20(sp)
9d00b5a4:	8fa10010 	lw	at,16(sp)
9d00b5a8:	8fbb007c 	lw	k1,124(sp)
9d00b5ac:	27bd0080 	addiu	sp,sp,128
9d00b5b0:	41dde800 	wrpgpr	sp,sp
9d00b5b4:	409b6000 	mtc0	k1,c0_status
9d00b5b8:	42000018 	eret
    rx_message[rx_num_bytes] = data;
9d00b5bc:	8f91801c 	lw	s1,-32740(gp)
9d00b5c0:	3c12a000 	lui	s2,0xa000
9d00b5c4:	26520018 	addiu	s2,s2,24
9d00b5c8:	02328821 	addu	s1,s1,s2
9d00b5cc:	a2300000 	sb	s0,0(s1)
    ++rx_num_bytes;
9d00b5d0:	8f90801c 	lw	s0,-32740(gp)
9d00b5d4:	26100001 	addiu	s0,s0,1
9d00b5d8:	af90801c 	sw	s0,-32740(gp)
    if (rx_num_bytes >= MAX_RX_MESSAGE) {
9d00b5dc:	8f90801c 	lw	s0,-32740(gp)
9d00b5e0:	2a100064 	slti	s0,s0,100
9d00b5e4:	5200ffd1 	beqzl	s0,9d00b52c <U2ISR+0xd4>
9d00b5e8:	af80801c 	sw	zero,-32740(gp)
  IFS1bits.U2RXIF = 0;
9d00b5ec:	1000ffd0 	b	9d00b530 <U2ISR+0xd8>
9d00b5f0:	3c10bf88 	lui	s0,0xbf88

9d00b5f4 <WriteUART2>:

// Write a character array using UART2
void WriteUART2(const char * string) {
  while (*string != '\0') {
9d00b5f4:	80820000 	lb	v0,0(a0)
9d00b5f8:	1040000c 	beqz	v0,9d00b62c <WriteUART2+0x38>
9d00b5fc:	00000000 	nop
    while (U2STAbits.UTXBF) {
9d00b600:	3c06bf80 	lui	a2,0xbf80
      ; // wait until tx buffer isn't full
    }
    U2TXREG = *string;
9d00b604:	3c05bf80 	lui	a1,0xbf80
    while (U2STAbits.UTXBF) {
9d00b608:	8cc36210 	lw	v1,25104(a2)
9d00b60c:	7c630240 	ext	v1,v1,0x9,0x1
9d00b610:	1460fffd 	bnez	v1,9d00b608 <WriteUART2+0x14>
9d00b614:	00000000 	nop
    U2TXREG = *string;
9d00b618:	aca26220 	sw	v0,25120(a1)
    ++string;
9d00b61c:	24840001 	addiu	a0,a0,1
  while (*string != '\0') {
9d00b620:	80820000 	lb	v0,0(a0)
9d00b624:	1440fff8 	bnez	v0,9d00b608 <WriteUART2+0x14>
9d00b628:	00000000 	nop
  }
}
9d00b62c:	03e00008 	jr	ra
9d00b630:	00000000 	nop

9d00b634 <UART2_Startup>:

//  Initialize the serial port - UART2 
void UART2_Startup() {
9d00b634:	27bdfff8 	addiu	sp,sp,-8
9d00b638:	afbf0004 	sw	ra,4(sp)
  // disable interrupts
  __builtin_disable_interrupts();
9d00b63c:	41626000 	di	v0
9d00b640:	000000c0 	ehb

  // set UART2 TX and RX pins
  ANSELBCLR = 0b11;
9d00b644:	3c02bf88 	lui	v0,0xbf88
9d00b648:	24030003 	li	v1,3
9d00b64c:	ac436104 	sw	v1,24836(v0)
  U2RXRbits.U2RXR = 0b0010; // U2RX on B1, pin 5
9d00b650:	3c02bf81 	lui	v0,0xbf81
9d00b654:	9043fa58 	lbu	v1,-1448(v0)
9d00b658:	24040002 	li	a0,2
9d00b65c:	7c831804 	ins	v1,a0,0x0,0x4
9d00b660:	a043fa58 	sb	v1,-1448(v0)
  RPB0Rbits.RPB0R = 0b0010; // U2TX on B0, pin 4
9d00b664:	3c02bf81 	lui	v0,0xbf81
9d00b668:	9043fb2c 	lbu	v1,-1236(v0)
9d00b66c:	7c831804 	ins	v1,a0,0x0,0x4
9d00b670:	a043fb2c 	sb	v1,-1236(v0)

  // turn on UART2 with interrupt on RX
  U2MODEbits.BRGH = 0; // set baud to NU32_DESIRED_BAUD
9d00b674:	3c02bf80 	lui	v0,0xbf80
9d00b678:	94436200 	lhu	v1,25088(v0)
9d00b67c:	7c0318c4 	ins	v1,zero,0x3,0x1
9d00b680:	a4436200 	sh	v1,25088(v0)
  U2BRG = ((NU32DIP_SYS_FREQ / UART2_DESIRED_BAUD) / 16) - 1;
9d00b684:	3c03bf80 	lui	v1,0xbf80
9d00b688:	2404000c 	li	a0,12
9d00b68c:	ac646240 	sw	a0,25152(v1)

  // 8 bit, no parity bit, and 1 stop bit (8N1 setup)
  U2MODEbits.PDSEL = 0;
9d00b690:	94436200 	lhu	v1,25088(v0)
9d00b694:	7c031044 	ins	v1,zero,0x1,0x2
9d00b698:	a4436200 	sh	v1,25088(v0)
  U2MODEbits.STSEL = 0;
9d00b69c:	94436200 	lhu	v1,25088(v0)
9d00b6a0:	7c030004 	ins	v1,zero,0x0,0x1
9d00b6a4:	a4436200 	sh	v1,25088(v0)

  // configure TX & RX pins as output & input pins
  U2STAbits.UTXEN = 1;
9d00b6a8:	3c03bf80 	lui	v1,0xbf80
9d00b6ac:	8c656210 	lw	a1,25104(v1)
9d00b6b0:	24040001 	li	a0,1
9d00b6b4:	7c855284 	ins	a1,a0,0xa,0x1
9d00b6b8:	ac656210 	sw	a1,25104(v1)
  U2STAbits.URXEN = 1;
9d00b6bc:	8c656210 	lw	a1,25104(v1)
9d00b6c0:	7c856304 	ins	a1,a0,0xc,0x1
9d00b6c4:	ac656210 	sw	a1,25104(v1)

  U2STAbits.URXISEL = 0; // interrupt when a char is rcvd
9d00b6c8:	8c656210 	lw	a1,25104(v1)
9d00b6cc:	7c053984 	ins	a1,zero,0x6,0x2
9d00b6d0:	ac656210 	sw	a1,25104(v1)
  IPC9bits.U2IP = 7;
9d00b6d4:	3c03bf88 	lui	v1,0xbf88
9d00b6d8:	8c651120 	lw	a1,4384(v1)
9d00b6dc:	24060007 	li	a2,7
9d00b6e0:	7cc56284 	ins	a1,a2,0xa,0x3
9d00b6e4:	ac651120 	sw	a1,4384(v1)
  IPC9bits.U2IS = 0;
9d00b6e8:	8c651120 	lw	a1,4384(v1)
9d00b6ec:	7c054a04 	ins	a1,zero,0x8,0x2
9d00b6f0:	ac651120 	sw	a1,4384(v1)
  IFS1bits.U2RXIF = 0;
9d00b6f4:	3c03bf88 	lui	v1,0xbf88
9d00b6f8:	8c651040 	lw	a1,4160(v1)
9d00b6fc:	7c05b584 	ins	a1,zero,0x16,0x1
9d00b700:	ac651040 	sw	a1,4160(v1)
  IEC1bits.U2RXIE = 1;
9d00b704:	3c03bf88 	lui	v1,0xbf88
9d00b708:	8c651070 	lw	a1,4208(v1)
9d00b70c:	7c85b584 	ins	a1,a0,0x16,0x1
9d00b710:	ac651070 	sw	a1,4208(v1)

  // enable the uart
  U2MODEbits.ON = 1;
9d00b714:	94436200 	lhu	v1,25088(v0)
9d00b718:	7c837bc4 	ins	v1,a0,0xf,0x1
9d00b71c:	a4436200 	sh	v1,25088(v0)

  __builtin_enable_interrupts();
9d00b720:	41626020 	ei	v0
}
9d00b724:	8fbf0004 	lw	ra,4(sp)
9d00b728:	03e00008 	jr	ra
9d00b72c:	27bd0008 	addiu	sp,sp,8

Disassembly of section .text.__scan_i:

9d00b730 <__scan_i>:
9d00b730:	27bdffb8 	addiu	sp,sp,-72
9d00b734:	afb20028 	sw	s2,40(sp)
9d00b738:	8cc20010 	lw	v0,16(a2)
9d00b73c:	8cd20008 	lw	s2,8(a2)
9d00b740:	afb50034 	sw	s5,52(sp)
9d00b744:	afb40030 	sw	s4,48(sp)
9d00b748:	afb10024 	sw	s1,36(sp)
9d00b74c:	afbf0044 	sw	ra,68(sp)
9d00b750:	afbe0040 	sw	s8,64(sp)
9d00b754:	afb7003c 	sw	s7,60(sp)
9d00b758:	afb60038 	sw	s6,56(sp)
9d00b75c:	afb3002c 	sw	s3,44(sp)
9d00b760:	afb00020 	sw	s0,32(sp)
9d00b764:	0080a825 	move	s5,a0
9d00b768:	afa5004c 	sw	a1,76(sp)
9d00b76c:	00e0a025 	move	s4,a3
9d00b770:	afa20018 	sw	v0,24(sp)
9d00b774:	0f403767 	jal	9d00dd9c <__skipws>
9d00b778:	8cd1000c 	lw	s1,12(a2)
9d00b77c:	16400002 	bnez	s2,9d00b788 <__scan_i+0x58>
9d00b780:	8fa30018 	lw	v1,24(sp)
9d00b784:	2472ffff 	addiu	s2,v1,-1
9d00b788:	8e830000 	lw	v1,0(s4)
9d00b78c:	241e000a 	li	s8,10
9d00b790:	00009825 	move	s3,zero
9d00b794:	00621821 	addu	v1,v1,v0
9d00b798:	ae830000 	sw	v1,0(s4)
9d00b79c:	0000b825 	move	s7,zero
9d00b7a0:	02f2102a 	slt	v0,s7,s2
9d00b7a4:	10400046 	beqz	v0,9d00b8c0 <__scan_i+0x190>
9d00b7a8:	8fa20018 	lw	v0,24(sp)
9d00b7ac:	2442ffff 	addiu	v0,v0,-1
9d00b7b0:	02e2102a 	slt	v0,s7,v0
9d00b7b4:	10400043 	beqz	v0,9d00b8c4 <__scan_i+0x194>
9d00b7b8:	02371021 	addu	v0,s1,s7
9d00b7bc:	8ea2003c 	lw	v0,60(s5)
9d00b7c0:	8ea4004c 	lw	a0,76(s5)
9d00b7c4:	0044202b 	sltu	a0,v0,a0
9d00b7c8:	1080000f 	beqz	a0,9d00b808 <__scan_i+0xd8>
9d00b7cc:	24440001 	addiu	a0,v0,1
9d00b7d0:	aea4003c 	sw	a0,60(s5)
9d00b7d4:	90500000 	lbu	s0,0(v0)
9d00b7d8:	2602ffd5 	addiu	v0,s0,-43
9d00b7dc:	7c020844 	ins	v0,zero,0x1,0x1
9d00b7e0:	00571025 	or	v0,v0,s7
9d00b7e4:	1440001d 	bnez	v0,9d00b85c <__scan_i+0x12c>
9d00b7e8:	00000000 	nop
9d00b7ec:	a2300000 	sb	s0,0(s1)
9d00b7f0:	8e820000 	lw	v0,0(s4)
9d00b7f4:	24130001 	li	s3,1
9d00b7f8:	24170001 	li	s7,1
9d00b7fc:	24420001 	addiu	v0,v0,1
9d00b800:	1000ffe7 	b	9d00b7a0 <__scan_i+0x70>
9d00b804:	ae820000 	sw	v0,0(s4)
9d00b808:	0f40363a 	jal	9d00d8e8 <__shgetc>
9d00b80c:	02a02025 	move	a0,s5
9d00b810:	00408025 	move	s0,v0
9d00b814:	2402ffff 	li	v0,-1
9d00b818:	1602fff0 	bne	s0,v0,9d00b7dc <__scan_i+0xac>
9d00b81c:	2602ffd5 	addiu	v0,s0,-43
9d00b820:	16e00028 	bnez	s7,9d00b8c4 <__scan_i+0x194>
9d00b824:	02371021 	addu	v0,s1,s7
9d00b828:	8fbf0044 	lw	ra,68(sp)
9d00b82c:	02001025 	move	v0,s0
9d00b830:	8fbe0040 	lw	s8,64(sp)
9d00b834:	8fb7003c 	lw	s7,60(sp)
9d00b838:	8fb60038 	lw	s6,56(sp)
9d00b83c:	8fb50034 	lw	s5,52(sp)
9d00b840:	8fb40030 	lw	s4,48(sp)
9d00b844:	8fb3002c 	lw	s3,44(sp)
9d00b848:	8fb20028 	lw	s2,40(sp)
9d00b84c:	8fb10024 	lw	s1,36(sp)
9d00b850:	8fb00020 	lw	s0,32(sp)
9d00b854:	03e00008 	jr	ra
9d00b858:	27bd0048 	addiu	sp,sp,72
9d00b85c:	16f30008 	bne	s7,s3,9d00b880 <__scan_i+0x150>
9d00b860:	0237b021 	addu	s6,s1,s7
9d00b864:	2402000a 	li	v0,10
9d00b868:	17c20026 	bne	s8,v0,9d00b904 <__scan_i+0x1d4>
9d00b86c:	26f30001 	addiu	s3,s7,1
9d00b870:	3a020030 	xori	v0,s0,0x30
9d00b874:	24040008 	li	a0,8
9d00b878:	0082f00a 	movz	s8,a0,v0
9d00b87c:	0002980b 	movn	s3,zero,v0
9d00b880:	2602ffd0 	addiu	v0,s0,-48
9d00b884:	2c42000a 	sltiu	v0,v0,10
9d00b888:	14400043 	bnez	v0,9d00b998 <__scan_i+0x268>
9d00b88c:	24020010 	li	v0,16
9d00b890:	57c20006 	bnel	s8,v0,9d00b8ac <__scan_i+0x17c>
9d00b894:	8ea2004c 	lw	v0,76(s5)
9d00b898:	0f403cf0 	jal	9d00f3c0 <isxdigit>
9d00b89c:	02002025 	move	a0,s0
9d00b8a0:	54400043 	bnezl	v0,9d00b9b0 <__scan_i+0x280>
9d00b8a4:	a2d00000 	sb	s0,0(s6)
9d00b8a8:	8ea2004c 	lw	v0,76(s5)
9d00b8ac:	10400005 	beqz	v0,9d00b8c4 <__scan_i+0x194>
9d00b8b0:	02371021 	addu	v0,s1,s7
9d00b8b4:	8ea2003c 	lw	v0,60(s5)
9d00b8b8:	2442ffff 	addiu	v0,v0,-1
9d00b8bc:	aea2003c 	sw	v0,60(s5)
9d00b8c0:	02371021 	addu	v0,s1,s7
9d00b8c4:	a0400000 	sb	zero,0(v0)
9d00b8c8:	2402000a 	li	v0,10
9d00b8cc:	17c2003d 	bne	s8,v0,9d00b9c4 <__scan_i+0x294>
9d00b8d0:	2406000a 	li	a2,10
9d00b8d4:	27a50010 	addiu	a1,sp,16
9d00b8d8:	0f403c49 	jal	9d00f124 <strtoll>
9d00b8dc:	02202025 	move	a0,s1
9d00b8e0:	8fa4004c 	lw	a0,76(sp)
9d00b8e4:	8fb00010 	lw	s0,16(sp)
9d00b8e8:	ac820000 	sw	v0,0(a0)
9d00b8ec:	02118826 	xor	s1,s0,s1
9d00b8f0:	2402fffe 	li	v0,-2
9d00b8f4:	24100001 	li	s0,1
9d00b8f8:	ac830004 	sw	v1,4(a0)
9d00b8fc:	1000ffca 	b	9d00b828 <__scan_i+0xf8>
9d00b900:	0051800a 	movz	s0,v0,s1
9d00b904:	24020008 	li	v0,8
9d00b908:	17c20021 	bne	s8,v0,9d00b990 <__scan_i+0x260>
9d00b90c:	36020020 	ori	v0,s0,0x20
9d00b910:	24040078 	li	a0,120
9d00b914:	5444ffda 	bnel	v0,a0,9d00b880 <__scan_i+0x150>
9d00b918:	00009825 	move	s3,zero
9d00b91c:	8ea2003c 	lw	v0,60(s5)
9d00b920:	8ea4004c 	lw	a0,76(s5)
9d00b924:	0044202b 	sltu	a0,v0,a0
9d00b928:	10800015 	beqz	a0,9d00b980 <__scan_i+0x250>
9d00b92c:	00000000 	nop
9d00b930:	24440001 	addiu	a0,v0,1
9d00b934:	aea4003c 	sw	a0,60(s5)
9d00b938:	90420000 	lbu	v0,0(v0)
9d00b93c:	8ea4004c 	lw	a0,76(s5)
9d00b940:	10800004 	beqz	a0,9d00b954 <__scan_i+0x224>
9d00b944:	00000000 	nop
9d00b948:	8ea5003c 	lw	a1,60(s5)
9d00b94c:	24a5ffff 	addiu	a1,a1,-1
9d00b950:	aea5003c 	sw	a1,60(s5)
9d00b954:	0f403cf0 	jal	9d00f3c0 <isxdigit>
9d00b958:	00402025 	move	a0,v0
9d00b95c:	5040ffd3 	beqzl	v0,9d00b8ac <__scan_i+0x17c>
9d00b960:	8ea2004c 	lw	v0,76(s5)
9d00b964:	a2d00000 	sb	s0,0(s6)
9d00b968:	8e820000 	lw	v0,0(s4)
9d00b96c:	0260b825 	move	s7,s3
9d00b970:	241e0010 	li	s8,16
9d00b974:	24420001 	addiu	v0,v0,1
9d00b978:	1000ff89 	b	9d00b7a0 <__scan_i+0x70>
9d00b97c:	ae820000 	sw	v0,0(s4)
9d00b980:	0f40363a 	jal	9d00d8e8 <__shgetc>
9d00b984:	02a02025 	move	a0,s5
9d00b988:	1000ffed 	b	9d00b940 <__scan_i+0x210>
9d00b98c:	8ea4004c 	lw	a0,76(s5)
9d00b990:	1000ffbb 	b	9d00b880 <__scan_i+0x150>
9d00b994:	00009825 	move	s3,zero
9d00b998:	24020008 	li	v0,8
9d00b99c:	17c20003 	bne	s8,v0,9d00b9ac <__scan_i+0x27c>
9d00b9a0:	2a020038 	slti	v0,s0,56
9d00b9a4:	2404000a 	li	a0,10
9d00b9a8:	0082f00a 	movz	s8,a0,v0
9d00b9ac:	a2d00000 	sb	s0,0(s6)
9d00b9b0:	8e820000 	lw	v0,0(s4)
9d00b9b4:	26f70001 	addiu	s7,s7,1
9d00b9b8:	24420001 	addiu	v0,v0,1
9d00b9bc:	1000ff78 	b	9d00b7a0 <__scan_i+0x70>
9d00b9c0:	ae820000 	sw	v0,0(s4)
9d00b9c4:	03c03025 	move	a2,s8
9d00b9c8:	27a50010 	addiu	a1,sp,16
9d00b9cc:	0f403c3e 	jal	9d00f0f8 <strtoull>
9d00b9d0:	02202025 	move	a0,s1
9d00b9d4:	1000ffc3 	b	9d00b8e4 <__scan_i+0x1b4>
9d00b9d8:	8fa4004c 	lw	a0,76(sp)

Disassembly of section .text:

9d00b9dc <NU32DIP_Startup>:
#include "nu32dip.h"

void NU32DIP_Startup() {
9d00b9dc:	27bdfff8 	addiu	sp,sp,-8
9d00b9e0:	afbf0004 	sw	ra,4(sp)
    __builtin_disable_interrupts(); // disable interrupts while initializing things
9d00b9e4:	41626000 	di	v0
9d00b9e8:	000000c0 	ehb

    // set the CP0 CONFIG register to indicate that kseg0 is cacheable (0x3)
    __builtin_mtc0(_CP0_CONFIG, _CP0_CONFIG_SELECT, 0xa4210583);
9d00b9ec:	3c02a421 	lui	v0,0xa421
9d00b9f0:	24420583 	addiu	v0,v0,1411
9d00b9f4:	40828000 	mtc0	v0,c0_config
9d00b9f8:	000000c0 	ehb

    // 0 data RAM access wait states
    BMXCONbits.BMXWSDRM = 0x0;
9d00b9fc:	3c02bf88 	lui	v0,0xbf88
9d00ba00:	8c432000 	lw	v1,8192(v0)
9d00ba04:	7c033184 	ins	v1,zero,0x6,0x1
9d00ba08:	ac432000 	sw	v1,8192(v0)

    // enable multi vector interrupts
    INTCONbits.MVEC = 0x1;
9d00ba0c:	3c02bf88 	lui	v0,0xbf88
9d00ba10:	8c441000 	lw	a0,4096(v0)
9d00ba14:	24030001 	li	v1,1
9d00ba18:	7c646304 	ins	a0,v1,0xc,0x1
9d00ba1c:	ac441000 	sw	a0,4096(v0)

    // disable JTAG to get pins back
    DDPCONbits.JTAGEN = 0;
9d00ba20:	3c02bf81 	lui	v0,0xbf81
9d00ba24:	9444f200 	lhu	a0,-3584(v0)
9d00ba28:	7c0418c4 	ins	a0,zero,0x3,0x1
9d00ba2c:	a444f200 	sh	a0,-3584(v0)

    // do your TRIS and LAT commands here
    TRISBCLR = 0b110000; // B4 and B5 LEDs
9d00ba30:	3c02bf88 	lui	v0,0xbf88
9d00ba34:	24040030 	li	a0,48
9d00ba38:	ac446114 	sw	a0,24852(v0)
    TRISASET = 0b010000; // A4 user button
9d00ba3c:	3c02bf88 	lui	v0,0xbf88
9d00ba40:	24040010 	li	a0,16
9d00ba44:	ac446018 	sw	a0,24600(v0)
    //NU32_LED1 = 1; // LED1 is off
    NU32DIP_YELLOW = 1;
9d00ba48:	3c02bf88 	lui	v0,0xbf88
9d00ba4c:	94446130 	lhu	a0,24880(v0)
9d00ba50:	7c642944 	ins	a0,v1,0x5,0x1
9d00ba54:	a4446130 	sh	a0,24880(v0)
    //NU32_LED2 = 0; // LED2 is on
    NU32DIP_GREEN = 0;
9d00ba58:	94446130 	lhu	a0,24880(v0)
9d00ba5c:	7c042104 	ins	a0,zero,0x4,0x1
9d00ba60:	a4446130 	sh	a0,24880(v0)

    //UART1 pins
    U1RXRbits.U1RXR = 0b0000; // Set A2 to U1RX
9d00ba64:	3c02bf81 	lui	v0,0xbf81
9d00ba68:	9044fa50 	lbu	a0,-1456(v0)
9d00ba6c:	7c041804 	ins	a0,zero,0x0,0x4
9d00ba70:	a044fa50 	sb	a0,-1456(v0)
    RPB3Rbits.RPB3R = 0b0001; // Set B3 to U1TX
9d00ba74:	3c02bf81 	lui	v0,0xbf81
9d00ba78:	9044fb38 	lbu	a0,-1224(v0)
9d00ba7c:	7c641804 	ins	a0,v1,0x0,0x4
9d00ba80:	a044fb38 	sb	a0,-1224(v0)

    // turn on UART1 without an interrupt
    U1MODEbits.BRGH = 0; // set baud to NU32_DESIRED_BAUD
9d00ba84:	3c02bf80 	lui	v0,0xbf80
9d00ba88:	94446000 	lhu	a0,24576(v0)
9d00ba8c:	7c0418c4 	ins	a0,zero,0x3,0x1
9d00ba90:	a4446000 	sh	a0,24576(v0)
    U1BRG = ((NU32DIP_SYS_FREQ / NU32DIP_DESIRED_BAUD) / 16) - 1;
9d00ba94:	3c04bf80 	lui	a0,0xbf80
9d00ba98:	2405000c 	li	a1,12
9d00ba9c:	ac856040 	sw	a1,24640(a0)

    // 8 bit, no parity bit, and 1 stop bit (8N1 setup)
    U1MODEbits.PDSEL = 0;
9d00baa0:	94446000 	lhu	a0,24576(v0)
9d00baa4:	7c041044 	ins	a0,zero,0x1,0x2
9d00baa8:	a4446000 	sh	a0,24576(v0)
    U1MODEbits.STSEL = 0;
9d00baac:	94446000 	lhu	a0,24576(v0)
9d00bab0:	7c040004 	ins	a0,zero,0x0,0x1
9d00bab4:	a4446000 	sh	a0,24576(v0)

    // configure TX & RX pins as output & input pins
    U1STAbits.UTXEN = 1;
9d00bab8:	3c04bf80 	lui	a0,0xbf80
9d00babc:	8c856010 	lw	a1,24592(a0)
9d00bac0:	7c655284 	ins	a1,v1,0xa,0x1
9d00bac4:	ac856010 	sw	a1,24592(a0)
    U1STAbits.URXEN = 1;
9d00bac8:	8c856010 	lw	a1,24592(a0)
9d00bacc:	7c656304 	ins	a1,v1,0xc,0x1
9d00bad0:	ac856010 	sw	a1,24592(a0)
    // configure without hardware flow control
    U1MODEbits.UEN = 0;
9d00bad4:	94446000 	lhu	a0,24576(v0)
9d00bad8:	7c044a04 	ins	a0,zero,0x8,0x2
9d00badc:	a4446000 	sh	a0,24576(v0)

    // enable the uart
    U1MODEbits.ON = 1;
9d00bae0:	94446000 	lhu	a0,24576(v0)
9d00bae4:	7c647bc4 	ins	a0,v1,0xf,0x1
9d00bae8:	a4446000 	sh	a0,24576(v0)

    __builtin_enable_interrupts();
9d00baec:	41626020 	ei	v0
}
9d00baf0:	8fbf0004 	lw	ra,4(sp)
9d00baf4:	03e00008 	jr	ra
9d00baf8:	27bd0008 	addiu	sp,sp,8

9d00bafc <NU32DIP_ReadUART1>:
// block other functions until you get a '\r' or '\n'
// send the pointer to your char array and the number of elements in the array

void NU32DIP_ReadUART1(char * message, int maxLength) {
    char data = 0;
    int complete = 0, num_bytes = 0;
9d00bafc:	00001025 	move	v0,zero
    // loop until you get a '\r' or '\n'
    while (!complete) {
        if (U1STAbits.URXDA) { // if data is available
9d00bb00:	3c0abf80 	lui	t2,0xbf80
            data = U1RXREG; // read the data
9d00bb04:	3c09bf80 	lui	t1,0xbf80
            if ((data == '\n') || (data == '\r')) {
9d00bb08:	2408000a 	li	t0,10
9d00bb0c:	2407000d 	li	a3,13
        if (U1STAbits.URXDA) { // if data is available
9d00bb10:	8d436010 	lw	v1,24592(t2)
9d00bb14:	30630001 	andi	v1,v1,0x1
9d00bb18:	1060fffd 	beqz	v1,9d00bb10 <NU32DIP_ReadUART1+0x14>
9d00bb1c:	00000000 	nop
            data = U1RXREG; // read the data
9d00bb20:	8d236030 	lw	v1,24624(t1)
9d00bb24:	7c031c20 	seb	v1,v1
            if ((data == '\n') || (data == '\r')) {
9d00bb28:	5068000b 	beql	v1,t0,9d00bb58 <NU32DIP_ReadUART1+0x5c>
9d00bb2c:	00822021 	addu	a0,a0,v0
9d00bb30:	10670008 	beq	v1,a3,9d00bb54 <NU32DIP_ReadUART1+0x58>
9d00bb34:	24460001 	addiu	a2,v0,1
                complete = 1;
            } else {
                message[num_bytes] = data;
                ++num_bytes;
                // roll over if the array is too small
                if (num_bytes >= maxLength) {
9d00bb38:	00c5302a 	slt	a2,a2,a1
                    num_bytes = 0;
9d00bb3c:	244b0001 	addiu	t3,v0,1
                message[num_bytes] = data;
9d00bb40:	00821021 	addu	v0,a0,v0
9d00bb44:	a0430000 	sb	v1,0(v0)
9d00bb48:	01601025 	move	v0,t3
9d00bb4c:	1000fff0 	b	9d00bb10 <NU32DIP_ReadUART1+0x14>
9d00bb50:	0006100a 	movz	v0,zero,a2
                }
            }
        }
    }
    // end the string
    message[num_bytes] = '\0';
9d00bb54:	00822021 	addu	a0,a0,v0
}
9d00bb58:	03e00008 	jr	ra
9d00bb5c:	a0800000 	sb	zero,0(a0)

9d00bb60 <NU32DIP_WriteUART1>:

// Write a character array using UART1

void NU32DIP_WriteUART1(const char * string) {
    while (*string != '\0') {
9d00bb60:	80820000 	lb	v0,0(a0)
9d00bb64:	1040000b 	beqz	v0,9d00bb94 <NU32DIP_WriteUART1+0x34>
9d00bb68:	3c06bf80 	lui	a2,0xbf80
        while (U1STAbits.UTXBF) {
            ; // wait until tx buffer isn't full
        }
        U1TXREG = *string;
9d00bb6c:	3c05bf80 	lui	a1,0xbf80
        while (U1STAbits.UTXBF) {
9d00bb70:	8cc36010 	lw	v1,24592(a2)
9d00bb74:	7c630240 	ext	v1,v1,0x9,0x1
9d00bb78:	1460fffd 	bnez	v1,9d00bb70 <NU32DIP_WriteUART1+0x10>
9d00bb7c:	00000000 	nop
        U1TXREG = *string;
9d00bb80:	aca26020 	sw	v0,24608(a1)
        ++string;
9d00bb84:	24840001 	addiu	a0,a0,1
    while (*string != '\0') {
9d00bb88:	80820000 	lb	v0,0(a0)
9d00bb8c:	1440fff8 	bnez	v0,9d00bb70 <NU32DIP_WriteUART1+0x10>
9d00bb90:	00000000 	nop
    }
}
9d00bb94:	03e00008 	jr	ra
9d00bb98:	00000000 	nop

Disassembly of section .text.fp32mul:

9d00bb9c <__mulsf3>:
9d00bb9c:	00043dc2 30e700ff 00054dc2 312900ff     .=.....0.M....)1
9d00bbac:	3c0a8000 00043200 00ca3025 00054200     ...<.2..%0...B..
9d00bbbc:	010a4025 00856026 014c5024 24ecffff     %@..&`..$PL....$
9d00bbcc:	2d8100fe 10200021 00000000              ...-!. .....

9d00bbd8 <Clab1>:
9d00bbd8:	252cffff 	addiu	t4,t1,-1
9d00bbdc:	2d8100fe 	sltiu	at,t4,254
9d00bbe0:	10200036 	beqz	at,9d00bcbc <CspecB>
9d00bbe4:	00000000 	nop

9d00bbe8 <Clab2>:
9d00bbe8:	00c80019 	multu	a2,t0
9d00bbec:	00005812 	mflo	t3
9d00bbf0:	11600002 	beqz	t3,9d00bbfc <i17>
9d00bbf4:	00003010 	mfhi	a2
9d00bbf8:	34c60001 	ori	a2,a2,0x1

9d00bbfc <i17>:
9d00bbfc:	04c00003 	bltz	a2,9d00bc0c <i18>
9d00bc00:	00000000 	nop
9d00bc04:	00063040 	sll	a2,a2,0x1
9d00bc08:	24e7ffff 	addiu	a3,a3,-1

9d00bc0c <i18>:
9d00bc0c:	252cff82 	addiu	t4,t1,-126
9d00bc10:	00ec3821 	addu	a3,a3,t4
9d00bc14:	24ecffff 	addiu	t4,a3,-1
9d00bc18:	2d8100fe 	sltiu	at,t4,254
9d00bc1c:	1020003a 	beqz	at,9d00bd08 <Coveund>
9d00bc20:	00000000 	nop

9d00bc24 <Clab8>:
9d00bc24:	24c60080 	addiu	a2,a2,128
9d00bc28:	2ccc0080 	sltiu	t4,a2,128
9d00bc2c:	00ec3821 	addu	a3,a3,t4
9d00bc30:	00066202 	srl	t4,a2,0x8
9d00bc34:	318c0001 	andi	t4,t4,0x1
9d00bc38:	00cc3023 	subu	a2,a2,t4
9d00bc3c:	00063040 	sll	a2,a2,0x1
9d00bc40:	00063242 	srl	a2,a2,0x9
9d00bc44:	000765c0 	sll	t4,a3,0x17
9d00bc48:	00cc3025 	or	a2,a2,t4
9d00bc4c:	00ca1025 	or	v0,a2,t2

9d00bc50 <C999>:
9d00bc50:	03e00008 	jr	ra
9d00bc54:	00000000 	nop

9d00bc58 <CspecA>:
9d00bc58:	14e0000d 	bnez	a3,9d00bc90 <i19>
9d00bc5c:	00000000 	nop
9d00bc60:	00c63021 	addu	a2,a2,a2
9d00bc64:	10c00005 	beqz	a2,9d00bc7c <i20>
9d00bc68:	00000000 	nop
9d00bc6c:	70cb5820 	clz	t3,a2
9d00bc70:	00eb3823 	subu	a3,a3,t3
9d00bc74:	1000ffd8 	b	9d00bbd8 <Clab1>
9d00bc78:	01663004 	sllv	a2,a2,t3

9d00bc7c <i20>:
9d00bc7c:	240100ff 	li	at,255
9d00bc80:	1121001f 	beq	t1,at,9d00bd00 <Cnan>
9d00bc84:	00000000 	nop
9d00bc88:	10000015 	b	9d00bce0 <Czer>
9d00bc8c:	00000000 	nop

9d00bc90 <i19>:
9d00bc90:	00c66021 	addu	t4,a2,a2
9d00bc94:	1580001a 	bnez	t4,9d00bd00 <Cnan>
9d00bc98:	00000000 	nop
9d00bc9c:	15200004 	bnez	t1,9d00bcb0 <i21>
9d00bca0:	00000000 	nop
9d00bca4:	01086021 	addu	t4,t0,t0
9d00bca8:	11800015 	beqz	t4,9d00bd00 <Cnan>
9d00bcac:	00000000 	nop

9d00bcb0 <i21>:
9d00bcb0:	240100ff 	li	at,255
9d00bcb4:	1521000f 	bne	t1,at,9d00bcf4 <Cinf>
9d00bcb8:	00000000 	nop

9d00bcbc <CspecB>:
9d00bcbc:	1520000a 	bnez	t1,9d00bce8 <i22>
9d00bcc0:	00000000 	nop
9d00bcc4:	01084021 	addu	t0,t0,t0
9d00bcc8:	11000005 	beqz	t0,9d00bce0 <Czer>
9d00bccc:	00000000 	nop
9d00bcd0:	710b5820 	clz	t3,t0
9d00bcd4:	012b4823 	subu	t1,t1,t3
9d00bcd8:	1000ffc3 	b	9d00bbe8 <Clab2>
9d00bcdc:	01684004 	sllv	t0,t0,t3

9d00bce0 <Czer>:
9d00bce0:	1000ffdb 	b	9d00bc50 <C999>
9d00bce4:	000a1025 	or	v0,zero,t2

9d00bce8 <i22>:
9d00bce8:	01086021 	addu	t4,t0,t0
9d00bcec:	15800004 	bnez	t4,9d00bd00 <Cnan>
9d00bcf0:	00000000 	nop

9d00bcf4 <Cinf>:
9d00bcf4:	3c017f80 	lui	at,0x7f80
9d00bcf8:	1000ffd5 	b	9d00bc50 <C999>
9d00bcfc:	01411025 	or	v0,t2,at

9d00bd00 <Cnan>:
9d00bd00:	1000ffd3 	b	9d00bc50 <C999>
9d00bd04:	3c02ffc0 	lui	v0,0xffc0

9d00bd08 <Coveund>:
9d00bd08:	1ce0fffa 	bgtz	a3,9d00bcf4 <Cinf>
9d00bd0c:	00000000 	nop
9d00bd10:	240b0001 	li	t3,1
9d00bd14:	01675823 	subu	t3,t3,a3
9d00bd18:	2d610020 	sltiu	at,t3,32
9d00bd1c:	1020fff0 	beqz	at,9d00bce0 <Czer>
9d00bd20:	00000000 	nop
9d00bd24:	240c0020 	li	t4,32
9d00bd28:	018b6023 	subu	t4,t4,t3
9d00bd2c:	01863804 	sllv	a3,a2,t4
9d00bd30:	10e00002 	beqz	a3,9d00bd3c <i25>
9d00bd34:	01663006 	srlv	a2,a2,t3
9d00bd38:	34c60002 	ori	a2,a2,0x2

9d00bd3c <i25>:
9d00bd3c:	24070000 	li	a3,0
9d00bd40:	24cc0080 	addiu	t4,a2,128
9d00bd44:	0581ffb7 	bgez	t4,9d00bc24 <Clab8>
9d00bd48:	00000000 	nop
9d00bd4c:	1000ffb5 	b	9d00bc24 <Clab8>
9d00bd50:	24070001 	li	a3,1
9d00bd54:	00000000 	nop

Disassembly of section .text.__pop_int:

9d00bd58 <__pop_int>:
9d00bd58:	24020088 	li	v0,136
9d00bd5c:	10a2003f 	beq	a1,v0,9d00be5c <__pop_int+0x104>
9d00bd60:	28a20089 	slti	v0,a1,137
9d00bd64:	1040001a 	beqz	v0,9d00bdd0 <__pop_int+0x78>
9d00bd68:	24020081 	li	v0,129
9d00bd6c:	10a20054 	beq	a1,v0,9d00bec0 <__pop_int+0x168>
9d00bd70:	28a20082 	slti	v0,a1,130
9d00bd74:	10400005 	beqz	v0,9d00bd8c <__pop_int+0x34>
9d00bd78:	24020080 	li	v0,128
9d00bd7c:	50a20051 	beql	a1,v0,9d00bec4 <__pop_int+0x16c>
9d00bd80:	8ce20000 	lw	v0,0(a3)
9d00bd84:	03e00008 	jr	ra
9d00bd88:	00001025 	move	v0,zero
9d00bd8c:	24020082 	li	v0,130
9d00bd90:	50a2003b 	beql	a1,v0,9d00be80 <__pop_int+0x128>
9d00bd94:	8ce20000 	lw	v0,0(a3)
9d00bd98:	24020084 	li	v0,132
9d00bd9c:	14a2fff9 	bne	a1,v0,9d00bd84 <__pop_int+0x2c>
9d00bda0:	00000000 	nop
9d00bda4:	8ce20000 	lw	v0,0(a3)
9d00bda8:	24430004 	addiu	v1,v0,4
9d00bdac:	8c420000 	lw	v0,0(v0)
9d00bdb0:	10c00027 	beqz	a2,9d00be50 <__pop_int+0xf8>
9d00bdb4:	ace30000 	sw	v1,0(a3)
9d00bdb8:	7c021620 	seh	v0,v0
9d00bdbc:	ac820000 	sw	v0,0(a0)
9d00bdc0:	000217c3 	sra	v0,v0,0x1f
9d00bdc4:	ac820004 	sw	v0,4(a0)
9d00bdc8:	03e00008 	jr	ra
9d00bdcc:	24020001 	li	v0,1
9d00bdd0:	240200a0 	li	v0,160
9d00bdd4:	50a20036 	beql	a1,v0,9d00beb0 <__pop_int+0x158>
9d00bdd8:	8ce20000 	lw	v0,0(a3)
9d00bddc:	28a200a1 	slti	v0,a1,161
9d00bde0:	10400010 	beqz	v0,9d00be24 <__pop_int+0xcc>
9d00bde4:	24020090 	li	v0,144
9d00bde8:	14a2ffe6 	bne	a1,v0,9d00bd84 <__pop_int+0x2c>
9d00bdec:	00000000 	nop
9d00bdf0:	8ce20000 	lw	v0,0(a3)
9d00bdf4:	24420007 	addiu	v0,v0,7
9d00bdf8:	7c021004 	ins	v0,zero,0x0,0x3
9d00bdfc:	8c480000 	lw	t0,0(v0)
9d00be00:	8c490004 	lw	t1,4(v0)
9d00be04:	24420008 	addiu	v0,v0,8
9d00be08:	ace20000 	sw	v0,0(a3)
9d00be0c:	ac880000 	sw	t0,0(a0)
9d00be10:	ac890004 	sw	t1,4(a0)
9d00be14:	10c00001 	beqz	a2,9d00be1c <__pop_int+0xc4>
9d00be18:	24020001 	li	v0,1
9d00be1c:	03e00008 	jr	ra
9d00be20:	00000000 	nop
9d00be24:	240200c0 	li	v0,192
9d00be28:	50a20005 	beql	a1,v0,9d00be40 <__pop_int+0xe8>
9d00be2c:	8ce20000 	lw	v0,0(a3)
9d00be30:	240200f0 	li	v0,240
9d00be34:	14a2ffd3 	bne	a1,v0,9d00bd84 <__pop_int+0x2c>
9d00be38:	00000000 	nop
9d00be3c:	8ce20000 	lw	v0,0(a3)
9d00be40:	24430004 	addiu	v1,v0,4
9d00be44:	ace30000 	sw	v1,0(a3)
9d00be48:	10000002 	b	9d00be54 <__pop_int+0xfc>
9d00be4c:	8c420000 	lw	v0,0(v0)
9d00be50:	3042ffff 	andi	v0,v0,0xffff
9d00be54:	10000020 	b	9d00bed8 <__pop_int+0x180>
9d00be58:	ac820000 	sw	v0,0(a0)
9d00be5c:	8ce20000 	lw	v0,0(a3)
9d00be60:	24430004 	addiu	v1,v0,4
9d00be64:	8c420000 	lw	v0,0(v0)
9d00be68:	10c00003 	beqz	a2,9d00be78 <__pop_int+0x120>
9d00be6c:	ace30000 	sw	v1,0(a3)
9d00be70:	1000ffd2 	b	9d00bdbc <__pop_int+0x64>
9d00be74:	7c021420 	seb	v0,v0
9d00be78:	1000fff6 	b	9d00be54 <__pop_int+0xfc>
9d00be7c:	304200ff 	andi	v0,v0,0xff
9d00be80:	24420007 	addiu	v0,v0,7
9d00be84:	7c021004 	ins	v0,zero,0x0,0x3
9d00be88:	8c480000 	lw	t0,0(v0)
9d00be8c:	8c490004 	lw	t1,4(v0)
9d00be90:	24420008 	addiu	v0,v0,8
9d00be94:	ace20000 	sw	v0,0(a3)
9d00be98:	ac880000 	sw	t0,0(a0)
9d00be9c:	ac890004 	sw	t1,4(a0)
9d00bea0:	10c0ffde 	beqz	a2,9d00be1c <__pop_int+0xc4>
9d00bea4:	24020001 	li	v0,1
9d00bea8:	03e00008 	jr	ra
9d00beac:	00000000 	nop
9d00beb0:	24430004 	addiu	v1,v0,4
9d00beb4:	ace30000 	sw	v1,0(a3)
9d00beb8:	1000ffc0 	b	9d00bdbc <__pop_int+0x64>
9d00bebc:	8c420000 	lw	v0,0(v0)
9d00bec0:	8ce20000 	lw	v0,0(a3)
9d00bec4:	24430004 	addiu	v1,v0,4
9d00bec8:	ace30000 	sw	v1,0(a3)
9d00becc:	8c420000 	lw	v0,0(v0)
9d00bed0:	14c0ffbb 	bnez	a2,9d00bdc0 <__pop_int+0x68>
9d00bed4:	ac820000 	sw	v0,0(a0)
9d00bed8:	1000ffbb 	b	9d00bdc8 <__pop_int+0x70>
9d00bedc:	ac800004 	sw	zero,4(a0)

Disassembly of section .text:

9d00bee0 <i2c_master_setup>:
// I2C Master utilities, 400 kHz, using polling rather than interrupts
// The functions must be callled in the correct order as per the I2C protocol
// Master will use I2C1 (SET PINS) SDA1 (D9) and SCL1 (D10)

void i2c_master_setup(void) {
  I2C1BRG = 53; //53 for 400kHz    // I2CBRG = [1/(2*Fsck) - PGD]*Pblck - 2 
9d00bee0:	3c02bf80 	lui	v0,0xbf80
9d00bee4:	24030035 	li	v1,53
9d00bee8:	ac435040 	sw	v1,20544(v0)
                                    // Fsck is the SCL freq, PGD = 104 ns
  I2C1CONbits.ON = 1;               // turn on the I2C1 module
9d00beec:	3c02bf80 	lui	v0,0xbf80
9d00bef0:	94435000 	lhu	v1,20480(v0)
9d00bef4:	24040001 	li	a0,1
9d00bef8:	7c837bc4 	ins	v1,a0,0xf,0x1
9d00befc:	a4435000 	sh	v1,20480(v0)
}
9d00bf00:	03e00008 	jr	ra
9d00bf04:	00000000 	nop

9d00bf08 <i2c_master_start>:

// Start a transmission on the I2C bus
void i2c_master_start(void) {
    I2C1CONbits.SEN = 1;            // send the start bit
9d00bf08:	3c02bf80 	lui	v0,0xbf80
9d00bf0c:	94435000 	lhu	v1,20480(v0)
9d00bf10:	24040001 	li	a0,1
9d00bf14:	7c830004 	ins	v1,a0,0x0,0x1
9d00bf18:	a4435000 	sh	v1,20480(v0)
    while(I2C1CONbits.SEN) { ; }    // wait for the start bit to be sent
9d00bf1c:	00401825 	move	v1,v0
9d00bf20:	8c625000 	lw	v0,20480(v1)
9d00bf24:	30420001 	andi	v0,v0,0x1
9d00bf28:	1440fffd 	bnez	v0,9d00bf20 <i2c_master_start+0x18>
9d00bf2c:	00000000 	nop
}
9d00bf30:	03e00008 	jr	ra
9d00bf34:	00000000 	nop

9d00bf38 <i2c_master_restart>:

void i2c_master_restart(void) {     
    I2C1CONbits.RSEN = 1;           // send a restart 
9d00bf38:	3c02bf80 	lui	v0,0xbf80
9d00bf3c:	94435000 	lhu	v1,20480(v0)
9d00bf40:	24040001 	li	a0,1
9d00bf44:	7c830844 	ins	v1,a0,0x1,0x1
9d00bf48:	a4435000 	sh	v1,20480(v0)
    while(I2C1CONbits.RSEN) { ; }   // wait for the restart to clear
9d00bf4c:	00401825 	move	v1,v0
9d00bf50:	8c625000 	lw	v0,20480(v1)
9d00bf54:	7c420040 	ext	v0,v0,0x1,0x1
9d00bf58:	1440fffd 	bnez	v0,9d00bf50 <i2c_master_restart+0x18>
9d00bf5c:	00000000 	nop
}
9d00bf60:	03e00008 	jr	ra
9d00bf64:	00000000 	nop

9d00bf68 <i2c_master_send>:

void i2c_master_send(unsigned char byte) { // send a byte to slave
  I2C1TRN = byte;                   // if an address, bit 0 = 0 for write, 1 for read
9d00bf68:	3c02bf80 	lui	v0,0xbf80
9d00bf6c:	ac445050 	sw	a0,20560(v0)
  while(I2C1STATbits.TRSTAT) { ; }  // wait for the transmission to finish
9d00bf70:	3c03bf80 	lui	v1,0xbf80
9d00bf74:	8c625010 	lw	v0,20496(v1)
9d00bf78:	7c420380 	ext	v0,v0,0xe,0x1
9d00bf7c:	1440fffd 	bnez	v0,9d00bf74 <i2c_master_send+0xc>
9d00bf80:	3c02bf80 	lui	v0,0xbf80
  if(I2C1STATbits.ACKSTAT) {        // if this is high, slave has not acknowledged
9d00bf84:	8c425010 	lw	v0,20496(v0)
9d00bf88:	7c4203c0 	ext	v0,v0,0xf,0x1
9d00bf8c:	10400008 	beqz	v0,9d00bfb0 <i2c_master_send+0x48>
9d00bf90:	3c049d00 	lui	a0,0x9d00
void i2c_master_send(unsigned char byte) { // send a byte to slave
9d00bf94:	27bdffe8 	addiu	sp,sp,-24
9d00bf98:	afbf0014 	sw	ra,20(sp)
    NU32DIP_WriteUART1("I2C2 Master: failed to receive ACK\r\n");
9d00bf9c:	0f402ed8 	jal	9d00bb60 <NU32DIP_WriteUART1>
9d00bfa0:	24847494 	addiu	a0,a0,29844
  }
}
9d00bfa4:	8fbf0014 	lw	ra,20(sp)
9d00bfa8:	03e00008 	jr	ra
9d00bfac:	27bd0018 	addiu	sp,sp,24
9d00bfb0:	03e00008 	jr	ra
9d00bfb4:	00000000 	nop

9d00bfb8 <i2c_master_recv>:

unsigned char i2c_master_recv(void) { // receive a byte from the slave
    I2C1CONbits.RCEN = 1;             // start receiving data
9d00bfb8:	3c02bf80 	lui	v0,0xbf80
9d00bfbc:	94435000 	lhu	v1,20480(v0)
9d00bfc0:	24040001 	li	a0,1
9d00bfc4:	7c8318c4 	ins	v1,a0,0x3,0x1
9d00bfc8:	a4435000 	sh	v1,20480(v0)
    while(!I2C1STATbits.RBF) { ; }    // wait to receive the data
9d00bfcc:	3c03bf80 	lui	v1,0xbf80
9d00bfd0:	8c625010 	lw	v0,20496(v1)
9d00bfd4:	7c420040 	ext	v0,v0,0x1,0x1
9d00bfd8:	1040fffd 	beqz	v0,9d00bfd0 <i2c_master_recv+0x18>
9d00bfdc:	3c02bf80 	lui	v0,0xbf80
    return I2C1RCV;                   // read and return the data
9d00bfe0:	8c425060 	lw	v0,20576(v0)
}
9d00bfe4:	03e00008 	jr	ra
9d00bfe8:	304200ff 	andi	v0,v0,0xff

9d00bfec <i2c_master_ack>:

void i2c_master_ack(int val) {        // sends ACK = 0 (slave should send another byte)
                                      // or NACK = 1 (no more bytes requested from slave)
    I2C1CONbits.ACKDT = val;          // store ACK/NACK in ACKDT
9d00bfec:	3c02bf80 	lui	v0,0xbf80
9d00bff0:	94435000 	lhu	v1,20480(v0)
9d00bff4:	7c832944 	ins	v1,a0,0x5,0x1
9d00bff8:	a4435000 	sh	v1,20480(v0)
    I2C1CONbits.ACKEN = 1;            // send ACKDT
9d00bffc:	94435000 	lhu	v1,20480(v0)
9d00c000:	24040001 	li	a0,1
9d00c004:	7c832104 	ins	v1,a0,0x4,0x1
9d00c008:	a4435000 	sh	v1,20480(v0)
    while(I2C1CONbits.ACKEN) { ; }    // wait for ACK/NACK to be sent
9d00c00c:	00401825 	move	v1,v0
9d00c010:	8c625000 	lw	v0,20480(v1)
9d00c014:	7c420100 	ext	v0,v0,0x4,0x1
9d00c018:	1440fffd 	bnez	v0,9d00c010 <i2c_master_ack+0x24>
9d00c01c:	00000000 	nop
}
9d00c020:	03e00008 	jr	ra
9d00c024:	00000000 	nop

9d00c028 <i2c_master_stop>:

void i2c_master_stop(void) {          // send a STOP:
  I2C1CONbits.PEN = 1;                // comm is complete and master relinquishes bus
9d00c028:	3c02bf80 	lui	v0,0xbf80
9d00c02c:	94435000 	lhu	v1,20480(v0)
9d00c030:	24040001 	li	a0,1
9d00c034:	7c831084 	ins	v1,a0,0x2,0x1
9d00c038:	a4435000 	sh	v1,20480(v0)
  while(I2C1CONbits.PEN) { ; }        // wait for STOP to complete
9d00c03c:	00401825 	move	v1,v0
9d00c040:	8c625000 	lw	v0,20480(v1)
9d00c044:	7c420080 	ext	v0,v0,0x2,0x1
9d00c048:	1440fffd 	bnez	v0,9d00c040 <i2c_master_stop+0x18>
9d00c04c:	00000000 	nop
}
9d00c050:	03e00008 	jr	ra
9d00c054:	00000000 	nop

Disassembly of section .text.__push_int:

9d00c058 <__push_int>:
9d00c058:	24020088 	li	v0,136
9d00c05c:	50a2003c 	beql	a1,v0,9d00c150 <__push_int+0xf8>
9d00c060:	8ce20000 	lw	v0,0(a3)
9d00c064:	28a20089 	slti	v0,a1,137
9d00c068:	10400019 	beqz	v0,9d00c0d0 <__push_int+0x78>
9d00c06c:	24020081 	li	v0,129
9d00c070:	50a20040 	beql	a1,v0,9d00c174 <__push_int+0x11c>
9d00c074:	8ce20000 	lw	v0,0(a3)
9d00c078:	28a20082 	slti	v0,a1,130
9d00c07c:	10400005 	beqz	v0,9d00c094 <__push_int+0x3c>
9d00c080:	24020080 	li	v0,128
9d00c084:	50a20048 	beql	a1,v0,9d00c1a8 <__push_int+0x150>
9d00c088:	8ce20000 	lw	v0,0(a3)
9d00c08c:	03e00008 	jr	ra
9d00c090:	00001025 	move	v0,zero
9d00c094:	24020082 	li	v0,130
9d00c098:	10a20015 	beq	a1,v0,9d00c0f0 <__push_int+0x98>
9d00c09c:	24020084 	li	v0,132
9d00c0a0:	14a2fffa 	bne	a1,v0,9d00c08c <__push_int+0x34>
9d00c0a4:	00000000 	nop
9d00c0a8:	8ce20000 	lw	v0,0(a3)
9d00c0ac:	8c830000 	lw	v1,0(a0)
9d00c0b0:	24440004 	addiu	a0,v0,4
9d00c0b4:	ace40000 	sw	a0,0(a3)
9d00c0b8:	8c420000 	lw	v0,0(v0)
9d00c0bc:	a4430000 	sh	v1,0(v0)
9d00c0c0:	10c00001 	beqz	a2,9d00c0c8 <__push_int+0x70>
9d00c0c4:	24020001 	li	v0,1
9d00c0c8:	03e00008 	jr	ra
9d00c0cc:	00000000 	nop
9d00c0d0:	240200a0 	li	v0,160
9d00c0d4:	50a20018 	beql	a1,v0,9d00c138 <__push_int+0xe0>
9d00c0d8:	8ce20000 	lw	v0,0(a3)
9d00c0dc:	28a200a1 	slti	v0,a1,161
9d00c0e0:	1040000e 	beqz	v0,9d00c11c <__push_int+0xc4>
9d00c0e4:	24020090 	li	v0,144
9d00c0e8:	14a2ffe8 	bne	a1,v0,9d00c08c <__push_int+0x34>
9d00c0ec:	00000000 	nop
9d00c0f0:	8ce20000 	lw	v0,0(a3)
9d00c0f4:	10c00028 	beqz	a2,9d00c198 <__push_int+0x140>
9d00c0f8:	24430004 	addiu	v1,v0,4
9d00c0fc:	ace30000 	sw	v1,0(a3)
9d00c100:	8c850004 	lw	a1,4(a0)
9d00c104:	8c840000 	lw	a0,0(a0)
9d00c108:	8c420000 	lw	v0,0(v0)
9d00c10c:	ac440000 	sw	a0,0(v0)
9d00c110:	ac450004 	sw	a1,4(v0)
9d00c114:	03e00008 	jr	ra
9d00c118:	24020001 	li	v0,1
9d00c11c:	240200c0 	li	v0,192
9d00c120:	50a20005 	beql	a1,v0,9d00c138 <__push_int+0xe0>
9d00c124:	8ce20000 	lw	v0,0(a3)
9d00c128:	240200f0 	li	v0,240
9d00c12c:	14a2ffd7 	bne	a1,v0,9d00c08c <__push_int+0x34>
9d00c130:	00000000 	nop
9d00c134:	8ce20000 	lw	v0,0(a3)
9d00c138:	8c830000 	lw	v1,0(a0)
9d00c13c:	24440004 	addiu	a0,v0,4
9d00c140:	ace40000 	sw	a0,0(a3)
9d00c144:	8c420000 	lw	v0,0(v0)
9d00c148:	1000fff2 	b	9d00c114 <__push_int+0xbc>
9d00c14c:	ac430000 	sw	v1,0(v0)
9d00c150:	8c830000 	lw	v1,0(a0)
9d00c154:	24440004 	addiu	a0,v0,4
9d00c158:	ace40000 	sw	a0,0(a3)
9d00c15c:	8c420000 	lw	v0,0(v0)
9d00c160:	a0430000 	sb	v1,0(v0)
9d00c164:	10c0ffd8 	beqz	a2,9d00c0c8 <__push_int+0x70>
9d00c168:	24020001 	li	v0,1
9d00c16c:	03e00008 	jr	ra
9d00c170:	00000000 	nop
9d00c174:	8c830000 	lw	v1,0(a0)
9d00c178:	24440004 	addiu	a0,v0,4
9d00c17c:	ace40000 	sw	a0,0(a3)
9d00c180:	8c420000 	lw	v0,0(v0)
9d00c184:	ac430000 	sw	v1,0(v0)
9d00c188:	10c0ffcf 	beqz	a2,9d00c0c8 <__push_int+0x70>
9d00c18c:	24020001 	li	v0,1
9d00c190:	03e00008 	jr	ra
9d00c194:	00000000 	nop
9d00c198:	8c850004 	lw	a1,4(a0)
9d00c19c:	8c840000 	lw	a0,0(a0)
9d00c1a0:	1000ffd9 	b	9d00c108 <__push_int+0xb0>
9d00c1a4:	ace30000 	sw	v1,0(a3)
9d00c1a8:	8c830000 	lw	v1,0(a0)
9d00c1ac:	24440004 	addiu	a0,v0,4
9d00c1b0:	ace40000 	sw	a0,0(a3)
9d00c1b4:	8c420000 	lw	v0,0(v0)
9d00c1b8:	ac430000 	sw	v1,0(v0)
9d00c1bc:	24020001 	li	v0,1
9d00c1c0:	03e00008 	jr	ra
9d00c1c4:	00000000 	nop

Disassembly of section .text:

9d00c1c8 <writeINA219>:
  float ma = value / 3.0;
  return ma;
}

// write 2 bytes
void writeINA219(unsigned char reg, unsigned short value){
9d00c1c8:	27bdffe0 	addiu	sp,sp,-32
9d00c1cc:	afbf001c 	sw	ra,28(sp)
9d00c1d0:	afb10018 	sw	s1,24(sp)
9d00c1d4:	afb00014 	sw	s0,20(sp)
9d00c1d8:	00808825 	move	s1,a0
  i2c_master_start();
9d00c1dc:	0f402fc2 	jal	9d00bf08 <i2c_master_start>
9d00c1e0:	00a08025 	move	s0,a1
  i2c_master_send(INA219_ADDR<<1); // write to the INA219
9d00c1e4:	0f402fda 	jal	9d00bf68 <i2c_master_send>
9d00c1e8:	24040080 	li	a0,128
  i2c_master_send(reg); // the reg to write to
9d00c1ec:	0f402fda 	jal	9d00bf68 <i2c_master_send>
9d00c1f0:	02202025 	move	a0,s1
  i2c_master_send(value>>8);
9d00c1f4:	0f402fda 	jal	9d00bf68 <i2c_master_send>
9d00c1f8:	00102202 	srl	a0,s0,0x8
  i2c_master_send(value&0xff);
9d00c1fc:	0f402fda 	jal	9d00bf68 <i2c_master_send>
9d00c200:	320400ff 	andi	a0,s0,0xff
  i2c_master_stop();
9d00c204:	0f40300a 	jal	9d00c028 <i2c_master_stop>
9d00c208:	00000000 	nop
}
9d00c20c:	8fbf001c 	lw	ra,28(sp)
9d00c210:	8fb10018 	lw	s1,24(sp)
9d00c214:	8fb00014 	lw	s0,20(sp)
9d00c218:	03e00008 	jr	ra
9d00c21c:	27bd0020 	addiu	sp,sp,32

9d00c220 <INA219_Startup>:
void INA219_Startup() {
9d00c220:	27bdffe8 	addiu	sp,sp,-24
9d00c224:	afbf0014 	sw	ra,20(sp)
  __builtin_disable_interrupts();
9d00c228:	41626000 	di	v0
9d00c22c:	000000c0 	ehb
  i2c_master_setup();
9d00c230:	0f402fb8 	jal	9d00bee0 <i2c_master_setup>
9d00c234:	00000000 	nop
  writeINA219(INA219_REG_CALIBRATION, ina219_calValue);
9d00c238:	24050400 	li	a1,1024
9d00c23c:	0f403072 	jal	9d00c1c8 <writeINA219>
9d00c240:	24040005 	li	a0,5
  writeINA219(INA219_REG_CONFIG, ina219_config);
9d00c244:	2405308f 	li	a1,12431
9d00c248:	0f403072 	jal	9d00c1c8 <writeINA219>
9d00c24c:	00002025 	move	a0,zero
  __builtin_enable_interrupts();
9d00c250:	41626020 	ei	v0
}
9d00c254:	8fbf0014 	lw	ra,20(sp)
9d00c258:	03e00008 	jr	ra
9d00c25c:	27bd0018 	addiu	sp,sp,24

9d00c260 <readINA219>:

// read 2 bytes
signed short readINA219(unsigned char reg){
9d00c260:	27bdffe0 	addiu	sp,sp,-32
9d00c264:	afbf001c 	sw	ra,28(sp)
9d00c268:	afb10018 	sw	s1,24(sp)
9d00c26c:	afb00014 	sw	s0,20(sp)
  i2c_master_start();
9d00c270:	0f402fc2 	jal	9d00bf08 <i2c_master_start>
9d00c274:	00808025 	move	s0,a0
  i2c_master_send(INA219_ADDR<<1); // write to the INA219
9d00c278:	0f402fda 	jal	9d00bf68 <i2c_master_send>
9d00c27c:	24040080 	li	a0,128
  i2c_master_send(reg); // the reg to read from
9d00c280:	0f402fda 	jal	9d00bf68 <i2c_master_send>
9d00c284:	02002025 	move	a0,s0
  i2c_master_restart();
9d00c288:	0f402fce 	jal	9d00bf38 <i2c_master_restart>
9d00c28c:	00000000 	nop
  i2c_master_send((INA219_ADDR<<1)|0b1); // read from the INA219
9d00c290:	0f402fda 	jal	9d00bf68 <i2c_master_send>
9d00c294:	24040081 	li	a0,129
  unsigned char r1 = i2c_master_recv();
9d00c298:	0f402fee 	jal	9d00bfb8 <i2c_master_recv>
9d00c29c:	00000000 	nop
9d00c2a0:	00408025 	move	s0,v0
  i2c_master_ack(0); // read again
9d00c2a4:	0f402ffb 	jal	9d00bfec <i2c_master_ack>
9d00c2a8:	00002025 	move	a0,zero
  unsigned char r2 = i2c_master_recv();
9d00c2ac:	0f402fee 	jal	9d00bfb8 <i2c_master_recv>
9d00c2b0:	00000000 	nop
9d00c2b4:	00408825 	move	s1,v0
  i2c_master_ack(1); // no more reads
9d00c2b8:	0f402ffb 	jal	9d00bfec <i2c_master_ack>
9d00c2bc:	24040001 	li	a0,1
  i2c_master_stop();
9d00c2c0:	0f40300a 	jal	9d00c028 <i2c_master_stop>
9d00c2c4:	00000000 	nop

  signed short value = (r1<<8)|r2;
9d00c2c8:	00101200 	sll	v0,s0,0x8
9d00c2cc:	00511025 	or	v0,v0,s1
  return value;
}
9d00c2d0:	7c021620 	seh	v0,v0
9d00c2d4:	8fbf001c 	lw	ra,28(sp)
9d00c2d8:	8fb10018 	lw	s1,24(sp)
9d00c2dc:	8fb00014 	lw	s0,20(sp)
9d00c2e0:	03e00008 	jr	ra
9d00c2e4:	27bd0020 	addiu	sp,sp,32

9d00c2e8 <INA219_read_current>:
float INA219_read_current(){
9d00c2e8:	27bdffe8 	addiu	sp,sp,-24
9d00c2ec:	afbf0014 	sw	ra,20(sp)
  signed short value = readINA219(INA219_REG_CURRENT);
9d00c2f0:	0f403098 	jal	9d00c260 <readINA219>
9d00c2f4:	24040004 	li	a0,4
  float ma = value / 3.0;
9d00c2f8:	0f403957 	jal	9d00e55c <__floatsidf>
9d00c2fc:	00402025 	move	a0,v0
9d00c300:	3c049d00 	lui	a0,0x9d00
9d00c304:	8c8674c0 	lw	a2,29888(a0)
9d00c308:	8c8774c4 	lw	a3,29892(a0)
9d00c30c:	00402025 	move	a0,v0
9d00c310:	0f40282b 	jal	9d00a0ac <__divdf3>
9d00c314:	00602825 	move	a1,v1
9d00c318:	00402025 	move	a0,v0
9d00c31c:	0f40345a 	jal	9d00d168 <__truncdfsf2>
9d00c320:	00602825 	move	a1,v1
}
9d00c324:	8fbf0014 	lw	ra,20(sp)
9d00c328:	03e00008 	jr	ra
9d00c32c:	27bd0018 	addiu	sp,sp,24

Disassembly of section .text._sbrk_init:

9d00c330 <_sbrk_init>:
9d00c330:	27bdffd8 	addiu	sp,sp,-40
9d00c334:	afb40020 	sw	s4,32(sp)
9d00c338:	3c14a000 	lui	s4,0xa000
9d00c33c:	8e820158 	lw	v0,344(s4)
9d00c340:	afbf0024 	sw	ra,36(sp)
9d00c344:	afb3001c 	sw	s3,28(sp)
9d00c348:	afb20018 	sw	s2,24(sp)
9d00c34c:	afb10014 	sw	s1,20(sp)
9d00c350:	1440003a 	bnez	v0,9d00c43c <_sbrk_init+0x10c>
9d00c354:	afb00010 	sw	s0,16(sp)
9d00c358:	3c12a000 	lui	s2,0xa000
9d00c35c:	8e510160 	lw	s1,352(s2)
9d00c360:	16200003 	bnez	s1,9d00c370 <_sbrk_init+0x40>
9d00c364:	3c13a000 	lui	s3,0xa000
9d00c368:	3c11a000 	lui	s1,0xa000
9d00c36c:	26310178 	addiu	s1,s1,376
9d00c370:	8e70015c 	lw	s0,348(s3)
9d00c374:	16000005 	bnez	s0,9d00c38c <_sbrk_init+0x5c>
9d00c378:	3c020000 	lui	v0,0x0
9d00c37c:	3c10a000 	lui	s0,0xa000
9d00c380:	26100178 	addiu	s0,s0,376
9d00c384:	24420000 	addiu	v0,v0,0
9d00c388:	02028021 	addu	s0,s0,v0
9d00c38c:	00111f82 	srl	v1,s1,0x1e
9d00c390:	24020002 	li	v0,2
9d00c394:	50620001 	beql	v1,v0,9d00c39c <_sbrk_init+0x6c>
9d00c398:	7e31e000 	ext	s1,s1,0x0,0x1d
9d00c39c:	00101f82 	srl	v1,s0,0x1e
9d00c3a0:	24020002 	li	v0,2
9d00c3a4:	50620001 	beql	v1,v0,9d00c3ac <_sbrk_init+0x7c>
9d00c3a8:	7e10e000 	ext	s0,s0,0x0,0x1d
9d00c3ac:	0f403c96 	jal	9d00f258 <_stub_sbd_memlayout>
9d00c3b0:	00000000 	nop
9d00c3b4:	8c430000 	lw	v1,0(v0)
9d00c3b8:	8c420004 	lw	v0,4(v0)
9d00c3bc:	0223202b 	sltu	a0,s1,v1
9d00c3c0:	14800004 	bnez	a0,9d00c3d4 <_sbrk_init+0xa4>
9d00c3c4:	00621021 	addu	v0,v1,v0
9d00c3c8:	0222202b 	sltu	a0,s1,v0
9d00c3cc:	54800029 	bnezl	a0,9d00c474 <_sbrk_init+0x144>
9d00c3d0:	0211182b 	sltu	v1,s0,s1
9d00c3d4:	3c04a000 	lui	a0,0xa000
9d00c3d8:	2484007c 	addiu	a0,a0,124
9d00c3dc:	7c84e000 	ext	a0,a0,0x0,0x1d
9d00c3e0:	0064202b 	sltu	a0,v1,a0
9d00c3e4:	14800015 	bnez	a0,9d00c43c <_sbrk_init+0x10c>
9d00c3e8:	0203202b 	sltu	a0,s0,v1
9d00c3ec:	14800004 	bnez	a0,9d00c400 <_sbrk_init+0xd0>
9d00c3f0:	0062202b 	sltu	a0,v1,v0
9d00c3f4:	0202202b 	sltu	a0,s0,v0
9d00c3f8:	14800018 	bnez	a0,9d00c45c <_sbrk_init+0x12c>
9d00c3fc:	0062202b 	sltu	a0,v1,v0
9d00c400:	1080000f 	beqz	a0,9d00c440 <_sbrk_init+0x110>
9d00c404:	8fbf0024 	lw	ra,36(sp)
9d00c408:	3c04a000 	lui	a0,0xa000
9d00c40c:	2484007c 	addiu	a0,a0,124
9d00c410:	00042742 	srl	a0,a0,0x1d
9d00c414:	24050005 	li	a1,5
9d00c418:	14850012 	bne	a0,a1,9d00c464 <_sbrk_init+0x134>
9d00c41c:	24050004 	li	a1,4
9d00c420:	3c04a000 	lui	a0,0xa000
9d00c424:	00641825 	or	v1,v1,a0
9d00c428:	00441025 	or	v0,v0,a0
9d00c42c:	ae430160 	sw	v1,352(s2)
9d00c430:	ae62015c 	sw	v0,348(s3)
9d00c434:	8e420160 	lw	v0,352(s2)
9d00c438:	ae820158 	sw	v0,344(s4)
9d00c43c:	8fbf0024 	lw	ra,36(sp)
9d00c440:	8fb40020 	lw	s4,32(sp)
9d00c444:	8fb3001c 	lw	s3,28(sp)
9d00c448:	8fb20018 	lw	s2,24(sp)
9d00c44c:	8fb10014 	lw	s1,20(sp)
9d00c450:	8fb00010 	lw	s0,16(sp)
9d00c454:	03e00008 	jr	ra
9d00c458:	27bd0028 	addiu	sp,sp,40
9d00c45c:	1000ffea 	b	9d00c408 <_sbrk_init+0xd8>
9d00c460:	02001025 	move	v0,s0
9d00c464:	1085ffef 	beq	a0,a1,9d00c424 <_sbrk_init+0xf4>
9d00c468:	3c048000 	lui	a0,0x8000
9d00c46c:	1000fff1 	b	9d00c434 <_sbrk_init+0x104>
9d00c470:	ae420160 	sw	v0,352(s2)
9d00c474:	1460ffe4 	bnez	v1,9d00c408 <_sbrk_init+0xd8>
9d00c478:	02201825 	move	v1,s1
9d00c47c:	1000ffde 	b	9d00c3f8 <_sbrk_init+0xc8>
9d00c480:	0202202b 	sltu	a0,s0,v0

Disassembly of section .text.__fmt_d:

9d00c484 <__fmt_d>:
9d00c484:	27bdffc0 	addiu	sp,sp,-64
9d00c488:	afb1002c 	sw	s1,44(sp)
9d00c48c:	00808825 	move	s1,a0
9d00c490:	00c02025 	move	a0,a2
9d00c494:	8c870004 	lw	a3,4(a0)
9d00c498:	8ca20000 	lw	v0,0(a1)
9d00c49c:	afb40038 	sw	s4,56(sp)
9d00c4a0:	0007a7c2 	srl	s4,a3,0x1f
9d00c4a4:	afb30034 	sw	s3,52(sp)
9d00c4a8:	afb20030 	sw	s2,48(sp)
9d00c4ac:	afb00028 	sw	s0,40(sp)
9d00c4b0:	afbf003c 	sw	ra,60(sp)
9d00c4b4:	00a08025 	move	s0,a1
9d00c4b8:	8ca30004 	lw	v1,4(a1)
9d00c4bc:	8cb20008 	lw	s2,8(a1)
9d00c4c0:	afa20020 	sw	v0,32(sp)
9d00c4c4:	8cb3000c 	lw	s3,12(a1)
9d00c4c8:	1280003e 	beqz	s4,9d00c5c4 <__fmt_d+0x140>
9d00c4cc:	8cc60000 	lw	a2,0(a2)
9d00c4d0:	00063023 	negu	a2,a2
9d00c4d4:	0006202b 	sltu	a0,zero,a2
9d00c4d8:	00073823 	negu	a3,a3
9d00c4dc:	04600008 	bltz	v1,9d00c500 <__fmt_d+0x7c>
9d00c4e0:	00e43823 	subu	a3,a3,a0
9d00c4e4:	7c020844 	ins	v0,zero,0x1,0x1
9d00c4e8:	16800005 	bnez	s4,9d00c500 <__fmt_d+0x7c>
9d00c4ec:	afa20020 	sw	v0,32(sp)
9d00c4f0:	8fa20020 	lw	v0,32(sp)
9d00c4f4:	30430004 	andi	v1,v0,0x4
9d00c4f8:	1060002a 	beqz	v1,9d00c5a4 <__fmt_d+0x120>
9d00c4fc:	7c4200c0 	ext	v0,v0,0x3,0x1
9d00c500:	2642ffff 	addiu	v0,s2,-1
9d00c504:	27a30020 	addiu	v1,sp,32
9d00c508:	afa30018 	sw	v1,24(sp)
9d00c50c:	2403000a 	li	v1,10
9d00c510:	afa30014 	sw	v1,20(sp)
9d00c514:	afa20010 	sw	v0,16(sp)
9d00c518:	0f4031c9 	jal	9d00c724 <__cvt_u>
9d00c51c:	02002025 	move	a0,s0
9d00c520:	16800006 	bnez	s4,9d00c53c <__fmt_d+0xb8>
9d00c524:	2403002d 	li	v1,45
9d00c528:	8fa30020 	lw	v1,32(sp)
9d00c52c:	30640004 	andi	a0,v1,0x4
9d00c530:	1080001e 	beqz	a0,9d00c5ac <__fmt_d+0x128>
9d00c534:	30630008 	andi	v1,v1,0x8
9d00c538:	2403002b 	li	v1,43
9d00c53c:	2442ffff 	addiu	v0,v0,-1
9d00c540:	02622021 	addu	a0,s3,v0
9d00c544:	a0830000 	sb	v1,0(a0)
9d00c548:	8e060010 	lw	a2,16(s0)
9d00c54c:	8fa30020 	lw	v1,32(sp)
9d00c550:	02403825 	move	a3,s2
9d00c554:	24c6ffff 	addiu	a2,a2,-1
9d00c558:	afa30010 	sw	v1,16(sp)
9d00c55c:	00c23023 	subu	a2,a2,v0
9d00c560:	02622821 	addu	a1,s3,v0
9d00c564:	0f40341a 	jal	9d00d068 <__pad>
9d00c568:	02202025 	move	a0,s1
9d00c56c:	8e230004 	lw	v1,4(s1)
9d00c570:	30630100 	andi	v1,v1,0x100
9d00c574:	10600004 	beqz	v1,9d00c588 <__fmt_d+0x104>
9d00c578:	8fbf003c 	lw	ra,60(sp)
9d00c57c:	8e030004 	lw	v1,4(s0)
9d00c580:	0043202a 	slt	a0,v0,v1
9d00c584:	0064100b 	movn	v0,v1,a0
9d00c588:	8fb40038 	lw	s4,56(sp)
9d00c58c:	8fb30034 	lw	s3,52(sp)
9d00c590:	8fb20030 	lw	s2,48(sp)
9d00c594:	8fb1002c 	lw	s1,44(sp)
9d00c598:	8fb00028 	lw	s0,40(sp)
9d00c59c:	03e00008 	jr	ra
9d00c5a0:	27bd0040 	addiu	sp,sp,64
9d00c5a4:	1000ffd7 	b	9d00c504 <__fmt_d+0x80>
9d00c5a8:	02421023 	subu	v0,s2,v0
9d00c5ac:	1060ffe6 	beqz	v1,9d00c548 <__fmt_d+0xc4>
9d00c5b0:	24040020 	li	a0,32
9d00c5b4:	2442ffff 	addiu	v0,v0,-1
9d00c5b8:	02621821 	addu	v1,s3,v0
9d00c5bc:	1000ffe2 	b	9d00c548 <__fmt_d+0xc4>
9d00c5c0:	a0640000 	sb	a0,0(v1)
9d00c5c4:	0463ffc8 	bgezl	v1,9d00c4e8 <__fmt_d+0x64>
9d00c5c8:	7c020844 	ins	v0,zero,0x1,0x1
9d00c5cc:	1000ffc9 	b	9d00c4f4 <__fmt_d+0x70>
9d00c5d0:	8fa20020 	lw	v0,32(sp)

Disassembly of section .dinit:

9d00c5d4 <.dinit>:
9d00c5d4:	a0000004 	sb	zero,4(zero)
9d00c5d8:	0000000c 	syscall
9d00c5dc:	00000000 	nop
9d00c5e0:	a0000018 	sb	zero,24(zero)
9d00c5e4:	00000064 	0x64
9d00c5e8:	00000000 	nop
9d00c5ec:	a0000010 	sb	zero,16(zero)
9d00c5f0:	00000008 	jr	zero
9d00c5f4:	00000000 	nop
9d00c5f8:	a000007c 	sb	zero,124(zero)
9d00c5fc:	00000060 	0x60
9d00c600:	00000001 	movf	zero,zero,$fcc0
9d00c604:	00000001 	movf	zero,zero,$fcc0
9d00c608:	00000003 	sra	zero,zero,0x0
	...
9d00c620:	9d00d770 	0x9d00d770
	...
9d00c630:	9d00f3e4 	0x9d00f3e4
9d00c634:	9d00e010 	0x9d00e010
	...
9d00c664:	a0000164 	sb	zero,356(zero)
9d00c668:	00000004 	sllv	zero,zero,zero
9d00c66c:	00000000 	nop
9d00c670:	a00000dc 	sb	zero,220(zero)
9d00c674:	00000060 	0x60
9d00c678:	00000001 	movf	zero,zero,$fcc0
9d00c67c:	00000001 	movf	zero,zero,$fcc0
9d00c680:	00000003 	sra	zero,zero,0x0
	...
9d00c698:	9d00d770 	0x9d00d770
	...
9d00c6a8:	9d00f3e4 	0x9d00f3e4
9d00c6ac:	9d00e010 	0x9d00e010
	...
9d00c6dc:	a0000000 	sb	zero,0(zero)
9d00c6e0:	00000004 	sllv	zero,zero,zero
9d00c6e4:	00000001 	movf	zero,zero,$fcc0
9d00c6e8:	00000002 	srl	zero,zero,0x0
9d00c6ec:	a0000168 	sb	zero,360(zero)
9d00c6f0:	00000004 	sllv	zero,zero,zero
9d00c6f4:	00000000 	nop
9d00c6f8:	a000013c 	sb	zero,316(zero)
9d00c6fc:	00000004 	sllv	zero,zero,zero
9d00c700:	00000001 	movf	zero,zero,$fcc0
9d00c704:	00000001 	movf	zero,zero,$fcc0
9d00c708:	a000016c 	sb	zero,364(zero)
9d00c70c:	00000004 	sllv	zero,zero,zero
9d00c710:	00000000 	nop
9d00c714:	a0000140 	sb	zero,320(zero)
9d00c718:	00000024 	and	zero,zero,zero
	...

Disassembly of section .text.__cvt_u:

9d00c724 <__cvt_u>:
9d00c724:	8c820004 	lw	v0,4(a0)
9d00c728:	27bdffc0 	addiu	sp,sp,-64
9d00c72c:	afbe0038 	sw	s8,56(sp)
9d00c730:	afb40028 	sw	s4,40(sp)
9d00c734:	afb20020 	sw	s2,32(sp)
9d00c738:	afb1001c 	sw	s1,28(sp)
9d00c73c:	afbf003c 	sw	ra,60(sp)
9d00c740:	afb70034 	sw	s7,52(sp)
9d00c744:	afb60030 	sw	s6,48(sp)
9d00c748:	afb5002c 	sw	s5,44(sp)
9d00c74c:	afb30024 	sw	s3,36(sp)
9d00c750:	afb00018 	sw	s0,24(sp)
9d00c754:	00c08825 	move	s1,a2
9d00c758:	00e09025 	move	s2,a3
9d00c75c:	8fb40054 	lw	s4,84(sp)
9d00c760:	04410002 	bgez	v0,9d00c76c <__cvt_u+0x48>
9d00c764:	8fbe0058 	lw	s8,88(sp)
9d00c768:	24020001 	li	v0,1
9d00c76c:	8c900010 	lw	s0,16(a0)
9d00c770:	8c95000c 	lw	s5,12(a0)
9d00c774:	8fd70000 	lw	s7,0(s8)
9d00c778:	8fb30050 	lw	s3,80(sp)
9d00c77c:	2610ffff 	addiu	s0,s0,-1
9d00c780:	02b01821 	addu	v1,s5,s0
9d00c784:	a0600000 	sb	zero,0(v1)
9d00c788:	24090001 	li	t1,1
9d00c78c:	00534023 	subu	t0,v0,s3
9d00c790:	32f70002 	andi	s7,s7,0x2
9d00c794:	0014b7c3 	sra	s6,s4,0x1f
9d00c798:	1e000010 	bgtz	s0,9d00c7dc <__cvt_u+0xb8>
9d00c79c:	02321025 	or	v0,s1,s2
9d00c7a0:	5120002c 	beqzl	t1,9d00c854 <__cvt_u+0x130>
9d00c7a4:	8fc20000 	lw	v0,0(s8)
9d00c7a8:	8fbf003c 	lw	ra,60(sp)
9d00c7ac:	02001025 	move	v0,s0
9d00c7b0:	8fbe0038 	lw	s8,56(sp)
9d00c7b4:	8fb70034 	lw	s7,52(sp)
9d00c7b8:	8fb60030 	lw	s6,48(sp)
9d00c7bc:	8fb5002c 	lw	s5,44(sp)
9d00c7c0:	8fb40028 	lw	s4,40(sp)
9d00c7c4:	8fb30024 	lw	s3,36(sp)
9d00c7c8:	8fb20020 	lw	s2,32(sp)
9d00c7cc:	8fb1001c 	lw	s1,28(sp)
9d00c7d0:	8fb00018 	lw	s0,24(sp)
9d00c7d4:	03e00008 	jr	ra
9d00c7d8:	27bd0040 	addiu	sp,sp,64
9d00c7dc:	14400007 	bnez	v0,9d00c7fc <__cvt_u+0xd8>
9d00c7e0:	01131021 	addu	v0,t0,s3
9d00c7e4:	1c400006 	bgtz	v0,9d00c800 <__cvt_u+0xdc>
9d00c7e8:	02202025 	move	a0,s1
9d00c7ec:	1a60ffec 	blez	s3,9d00c7a0 <__cvt_u+0x7c>
9d00c7f0:	00000000 	nop
9d00c7f4:	12e0ffea 	beqz	s7,9d00c7a0 <__cvt_u+0x7c>
9d00c7f8:	00000000 	nop
9d00c7fc:	02202025 	move	a0,s1
9d00c800:	02402825 	move	a1,s2
9d00c804:	02803025 	move	a2,s4
9d00c808:	02c03825 	move	a3,s6
9d00c80c:	afa80014 	sw	t0,20(sp)
9d00c810:	0f402b54 	jal	9d00ad50 <__umoddi3>
9d00c814:	2610ffff 	addiu	s0,s0,-1
9d00c818:	afa20010 	sw	v0,16(sp)
9d00c81c:	02b01821 	addu	v1,s5,s0
9d00c820:	24420030 	addiu	v0,v0,48
9d00c824:	02202025 	move	a0,s1
9d00c828:	02402825 	move	a1,s2
9d00c82c:	a0620000 	sb	v0,0(v1)
9d00c830:	02803025 	move	a2,s4
9d00c834:	0f402a65 	jal	9d00a994 <__udivdi3>
9d00c838:	02c03825 	move	a3,s6
9d00c83c:	2673ffff 	addiu	s3,s3,-1
9d00c840:	00408825 	move	s1,v0
9d00c844:	00609025 	move	s2,v1
9d00c848:	8fa80014 	lw	t0,20(sp)
9d00c84c:	1000ffd2 	b	9d00c798 <__cvt_u+0x74>
9d00c850:	8fa90010 	lw	t1,16(sp)
9d00c854:	7c022104 	ins	v0,zero,0x4,0x1
9d00c858:	1000ffd3 	b	9d00c7a8 <__cvt_u+0x84>
9d00c85c:	afc20000 	sw	v0,0(s8)

Disassembly of section .text.__read_int:

9d00c860 <__read_int>:
9d00c860:	27bdffd0 	addiu	sp,sp,-48
9d00c864:	afb50028 	sw	s5,40(sp)
9d00c868:	8cb50008 	lw	s5,8(a1)
9d00c86c:	afb40024 	sw	s4,36(sp)
9d00c870:	afb30020 	sw	s3,32(sp)
9d00c874:	afb2001c 	sw	s2,28(sp)
9d00c878:	afb10018 	sw	s1,24(sp)
9d00c87c:	afbf002c 	sw	ra,44(sp)
9d00c880:	afb00014 	sw	s0,20(sp)
9d00c884:	00808825 	move	s1,a0
9d00c888:	00c09025 	move	s2,a2
9d00c88c:	8cb40010 	lw	s4,16(a1)
9d00c890:	0f403767 	jal	9d00dd9c <__skipws>
9d00c894:	8cb3000c 	lw	s3,12(a1)
9d00c898:	52a00001 	beqzl	s5,9d00c8a0 <__read_int+0x40>
9d00c89c:	2695ffff 	addiu	s5,s4,-1
9d00c8a0:	8e430000 	lw	v1,0(s2)
9d00c8a4:	00008025 	move	s0,zero
9d00c8a8:	00621821 	addu	v1,v1,v0
9d00c8ac:	ae430000 	sw	v1,0(s2)
9d00c8b0:	0215102a 	slt	v0,s0,s5
9d00c8b4:	1040001d 	beqz	v0,9d00c92c <__read_int+0xcc>
9d00c8b8:	2682ffff 	addiu	v0,s4,-1
9d00c8bc:	0202102a 	slt	v0,s0,v0
9d00c8c0:	5040001b 	beqzl	v0,9d00c930 <__read_int+0xd0>
9d00c8c4:	02708021 	addu	s0,s3,s0
9d00c8c8:	8e22003c 	lw	v0,60(s1)
9d00c8cc:	8e23004c 	lw	v1,76(s1)
9d00c8d0:	0043182b 	sltu	v1,v0,v1
9d00c8d4:	1060000e 	beqz	v1,9d00c910 <__read_int+0xb0>
9d00c8d8:	24430001 	addiu	v1,v0,1
9d00c8dc:	ae23003c 	sw	v1,60(s1)
9d00c8e0:	90420000 	lbu	v0,0(v0)
9d00c8e4:	2443ffd5 	addiu	v1,v0,-43
9d00c8e8:	7c030844 	ins	v1,zero,0x1,0x1
9d00c8ec:	00701825 	or	v1,v1,s0
9d00c8f0:	1460001a 	bnez	v1,9d00c95c <__read_int+0xfc>
9d00c8f4:	2443ffd0 	addiu	v1,v0,-48
9d00c8f8:	a2620000 	sb	v0,0(s3)
9d00c8fc:	8e420000 	lw	v0,0(s2)
9d00c900:	24100001 	li	s0,1
9d00c904:	24420001 	addiu	v0,v0,1
9d00c908:	1000ffe9 	b	9d00c8b0 <__read_int+0x50>
9d00c90c:	ae420000 	sw	v0,0(s2)
9d00c910:	0f40363a 	jal	9d00d8e8 <__shgetc>
9d00c914:	02202025 	move	a0,s1
9d00c918:	2403ffff 	li	v1,-1
9d00c91c:	5443fff2 	bnel	v0,v1,9d00c8e8 <__read_int+0x88>
9d00c920:	2443ffd5 	addiu	v1,v0,-43
9d00c924:	12000005 	beqz	s0,9d00c93c <__read_int+0xdc>
9d00c928:	8fbf002c 	lw	ra,44(sp)
9d00c92c:	02708021 	addu	s0,s3,s0
9d00c930:	a2000000 	sb	zero,0(s0)
9d00c934:	00001025 	move	v0,zero
9d00c938:	8fbf002c 	lw	ra,44(sp)
9d00c93c:	8fb50028 	lw	s5,40(sp)
9d00c940:	8fb40024 	lw	s4,36(sp)
9d00c944:	8fb30020 	lw	s3,32(sp)
9d00c948:	8fb2001c 	lw	s2,28(sp)
9d00c94c:	8fb10018 	lw	s1,24(sp)
9d00c950:	8fb00014 	lw	s0,20(sp)
9d00c954:	03e00008 	jr	ra
9d00c958:	27bd0030 	addiu	sp,sp,48
9d00c95c:	2c63000a 	sltiu	v1,v1,10
9d00c960:	54600008 	bnezl	v1,9d00c984 <__read_int+0x124>
9d00c964:	02701821 	addu	v1,s3,s0
9d00c968:	8e22004c 	lw	v0,76(s1)
9d00c96c:	5040fff0 	beqzl	v0,9d00c930 <__read_int+0xd0>
9d00c970:	02708021 	addu	s0,s3,s0
9d00c974:	8e22003c 	lw	v0,60(s1)
9d00c978:	2442ffff 	addiu	v0,v0,-1
9d00c97c:	1000ffeb 	b	9d00c92c <__read_int+0xcc>
9d00c980:	ae22003c 	sw	v0,60(s1)
9d00c984:	a0620000 	sb	v0,0(v1)
9d00c988:	8e420000 	lw	v0,0(s2)
9d00c98c:	26100001 	addiu	s0,s0,1
9d00c990:	24420001 	addiu	v0,v0,1
9d00c994:	1000ffc6 	b	9d00c8b0 <__read_int+0x50>
9d00c998:	ae420000 	sw	v0,0(s2)

Disassembly of section .text.read:

9d00c99c <read>:
9d00c99c:	50a0004a 	beqzl	a1,9d00cac8 <read+0x12c>
9d00c9a0:	00002025 	move	a0,zero
9d00c9a4:	50c00048 	beqzl	a2,9d00cac8 <read+0x12c>
9d00c9a8:	00002025 	move	a0,zero
9d00c9ac:	27bdffe0 	addiu	sp,sp,-32
9d00c9b0:	afb10014 	sw	s1,20(sp)
9d00c9b4:	afbf001c 	sw	ra,28(sp)
9d00c9b8:	afb20018 	sw	s2,24(sp)
9d00c9bc:	afb00010 	sw	s0,16(sp)
9d00c9c0:	1480000b 	bnez	a0,9d00c9f0 <read+0x54>
9d00c9c4:	00c08825 	move	s1,a2
9d00c9c8:	3c020000 	lui	v0,0x0
9d00c9cc:	24420000 	addiu	v0,v0,0
9d00c9d0:	1040000f 	beqz	v0,9d00ca10 <read+0x74>
9d00c9d4:	00a08025 	move	s0,a1
9d00c9d8:	00a69021 	addu	s2,a1,a2
9d00c9dc:	0c000000 	jal	90000000 <_bmxdudba_address+0x8fff0000>
9d00c9e0:	24040001 	li	a0,1
9d00c9e4:	26100001 	addiu	s0,s0,1
9d00c9e8:	1650fffc 	bne	s2,s0,9d00c9dc <read+0x40>
9d00c9ec:	a202ffff 	sb	v0,-1(s0)
9d00c9f0:	02202025 	move	a0,s1
9d00c9f4:	8fbf001c 	lw	ra,28(sp)
9d00c9f8:	00801025 	move	v0,a0
9d00c9fc:	8fb20018 	lw	s2,24(sp)
9d00ca00:	8fb10014 	lw	s1,20(sp)
9d00ca04:	8fb00010 	lw	s0,16(sp)
9d00ca08:	03e00008 	jr	ra
9d00ca0c:	27bd0020 	addiu	sp,sp,32
9d00ca10:	3c03bf80 	lui	v1,0xbf80
9d00ca14:	24626010 	addiu	v0,v1,24592
9d00ca18:	1040fff6 	beqz	v0,9d00c9f4 <read+0x58>
9d00ca1c:	3c03a000 	lui	v1,0xa000
9d00ca20:	8c640000 	lw	a0,0(v1)
9d00ca24:	24030002 	li	v1,2
9d00ca28:	1083001d 	beq	a0,v1,9d00caa0 <read+0x104>
9d00ca2c:	3c03bf80 	lui	v1,0xbf80
9d00ca30:	3c03bf80 	lui	v1,0xbf80
9d00ca34:	8c646000 	lw	a0,24576(v1)
9d00ca38:	3c03bf80 	lui	v1,0xbf80
9d00ca3c:	24636030 	addiu	v1,v1,24624
9d00ca40:	30848000 	andi	a0,a0,0x8000
9d00ca44:	14800003 	bnez	a0,9d00ca54 <read+0xb8>
9d00ca48:	3c04bf80 	lui	a0,0xbf80
9d00ca4c:	34058000 	li	a1,0x8000
9d00ca50:	ac856008 	sw	a1,24584(a0)
9d00ca54:	02202025 	move	a0,s1
9d00ca58:	240500a1 	li	a1,161
9d00ca5c:	8c460000 	lw	a2,0(v0)
9d00ca60:	30c60001 	andi	a2,a2,0x1
9d00ca64:	14c00003 	bnez	a2,9d00ca74 <read+0xd8>
9d00ca68:	24a5ffff 	addiu	a1,a1,-1
9d00ca6c:	14a0fffb 	bnez	a1,9d00ca5c <read+0xc0>
9d00ca70:	00000000 	nop
9d00ca74:	8c450000 	lw	a1,0(v0)
9d00ca78:	30a50001 	andi	a1,a1,0x1
9d00ca7c:	54a0ffdc 	bnezl	a1,9d00c9f0 <read+0x54>
9d00ca80:	02248823 	subu	s1,s1,a0
9d00ca84:	8c650000 	lw	a1,0(v1)
9d00ca88:	26100001 	addiu	s0,s0,1
9d00ca8c:	2484ffff 	addiu	a0,a0,-1
9d00ca90:	1480fff1 	bnez	a0,9d00ca58 <read+0xbc>
9d00ca94:	a205ffff 	sb	a1,-1(s0)
9d00ca98:	1000ffd5 	b	9d00c9f0 <read+0x54>
9d00ca9c:	02248823 	subu	s1,s1,a0
9d00caa0:	24636240 	addiu	v1,v1,25152
9d00caa4:	5060ffe3 	beqzl	v1,9d00ca34 <read+0x98>
9d00caa8:	3c03bf80 	lui	v1,0xbf80
9d00caac:	3c02bf80 	lui	v0,0xbf80
9d00cab0:	8c446200 	lw	a0,25088(v0)
9d00cab4:	3c03bf80 	lui	v1,0xbf80
9d00cab8:	3c02bf80 	lui	v0,0xbf80
9d00cabc:	24636230 	addiu	v1,v1,25136
9d00cac0:	1000ffdf 	b	9d00ca40 <read+0xa4>
9d00cac4:	24426210 	addiu	v0,v0,25104
9d00cac8:	03e00008 	jr	ra
9d00cacc:	00801025 	move	v0,a0

Disassembly of section .text.dpcmp:

9d00cad0 <__eqdf2>:
9d00cad0:	2409fffe 00055040 00075840 01645825     ...$@P..@X..%Xd.
9d00cae0:	01665825 014b5025 15400003 00000000     %Xf.%PK...@.....
9d00caf0:	1000003c 24020000                       <......$

9d00caf8 <i56>:
9d00caf8:	10800002 	beqz	a0,9d00cb04 <i57>
9d00cafc:	00054040 	sll	t0,a1,0x1
9d00cb00:	25080001 	addiu	t0,t0,1

9d00cb04 <i57>:
9d00cb04:	3c01ffe0 	lui	at,0xffe0
9d00cb08:	34210001 	ori	at,at,0x1
9d00cb0c:	0101082b 	sltu	at,t0,at
9d00cb10:	10200037 	beqz	at,9d00cbf0 <Lnan>
9d00cb14:	00000000 	nop
9d00cb18:	10c00002 	beqz	a2,9d00cb24 <i58>
9d00cb1c:	00074040 	sll	t0,a3,0x1
9d00cb20:	25080001 	addiu	t0,t0,1

9d00cb24 <i58>:
9d00cb24:	3c01ffe0 	lui	at,0xffe0
9d00cb28:	34210001 	ori	at,at,0x1
9d00cb2c:	0101082b 	sltu	at,t0,at
9d00cb30:	1020002f 	beqz	at,9d00cbf0 <Lnan>
9d00cb34:	00000000 	nop
9d00cb38:	04a10016 	bgez	a1,9d00cb94 <i59>
9d00cb3c:	00000000 	nop
9d00cb40:	04e00003 	bltz	a3,9d00cb50 <i60>
9d00cb44:	00000000 	nop
9d00cb48:	10000026 	b	9d00cbe4 <L999>
9d00cb4c:	2402ffff 	li	v0,-1

9d00cb50 <i60>:
9d00cb50:	0086502b 	sltu	t2,a0,a2
9d00cb54:	00862023 	subu	a0,a0,a2
9d00cb58:	00aa582b 	sltu	t3,a1,t2
9d00cb5c:	00aa2823 	subu	a1,a1,t2
9d00cb60:	00a7502b 	sltu	t2,a1,a3
9d00cb64:	014b5025 	or	t2,t2,t3
9d00cb68:	11400003 	beqz	t2,9d00cb78 <i61>
9d00cb6c:	00a72823 	subu	a1,a1,a3
9d00cb70:	1000001c 	b	9d00cbe4 <L999>
9d00cb74:	24020001 	li	v0,1

9d00cb78 <i61>:
9d00cb78:	00a45025 	or	t2,a1,a0
9d00cb7c:	11400003 	beqz	t2,9d00cb8c <i62>
9d00cb80:	00000000 	nop
9d00cb84:	10000017 	b	9d00cbe4 <L999>
9d00cb88:	2402ffff 	li	v0,-1

9d00cb8c <i62>:
9d00cb8c:	10000015 	b	9d00cbe4 <L999>
9d00cb90:	24020000 	li	v0,0

9d00cb94 <i59>:
9d00cb94:	04e10003 	bgez	a3,9d00cba4 <i63>
9d00cb98:	00000000 	nop
9d00cb9c:	10000011 	b	9d00cbe4 <L999>
9d00cba0:	24020001 	li	v0,1

9d00cba4 <i63>:
9d00cba4:	0086502b 	sltu	t2,a0,a2
9d00cba8:	00862023 	subu	a0,a0,a2
9d00cbac:	00aa582b 	sltu	t3,a1,t2
9d00cbb0:	00aa2823 	subu	a1,a1,t2
9d00cbb4:	00a7502b 	sltu	t2,a1,a3
9d00cbb8:	014b5025 	or	t2,t2,t3
9d00cbbc:	11400003 	beqz	t2,9d00cbcc <i64>
9d00cbc0:	00a72823 	subu	a1,a1,a3
9d00cbc4:	10000007 	b	9d00cbe4 <L999>
9d00cbc8:	2402ffff 	li	v0,-1

9d00cbcc <i64>:
9d00cbcc:	00a45025 	or	t2,a1,a0
9d00cbd0:	11400003 	beqz	t2,9d00cbe0 <i65>
9d00cbd4:	00000000 	nop
9d00cbd8:	10000002 	b	9d00cbe4 <L999>
9d00cbdc:	24020001 	li	v0,1

9d00cbe0 <i65>:
9d00cbe0:	24020000 	li	v0,0

9d00cbe4 <L999>:
9d00cbe4:	03e00008 	jr	ra
9d00cbe8:	00000000 	nop
9d00cbec:	00000000 	nop

9d00cbf0 <Lnan>:
9d00cbf0:	1000fffc 	b	9d00cbe4 <L999>
9d00cbf4:	00091025 	or	v0,zero,t1
9d00cbf8:	00000000 	nop

Disassembly of section .text.dfcmplt:

9d00cbfc <dpcmplt>:
9d00cbfc:	2409fffe 	li	t1,-2
9d00cc00:	00055040 	sll	t2,a1,0x1
9d00cc04:	00075840 	sll	t3,a3,0x1
9d00cc08:	01645825 	or	t3,t3,a0
9d00cc0c:	01665825 	or	t3,t3,a2
9d00cc10:	014b5025 	or	t2,t2,t3
9d00cc14:	15400003 	bnez	t2,9d00cc24 <dpcmplt+0x28>
9d00cc18:	00000000 	nop
9d00cc1c:	1000003c 	b	9d00cd10 <dpcmplt+0x114>
9d00cc20:	24020000 	li	v0,0
9d00cc24:	10800002 	beqz	a0,9d00cc30 <dpcmplt+0x34>
9d00cc28:	00054040 	sll	t0,a1,0x1
9d00cc2c:	25080001 	addiu	t0,t0,1
9d00cc30:	3c01ffe0 	lui	at,0xffe0
9d00cc34:	34210001 	ori	at,at,0x1
9d00cc38:	0101082b 	sltu	at,t0,at
9d00cc3c:	10200037 	beqz	at,9d00cd1c <dpcmplt+0x120>
9d00cc40:	00000000 	nop
9d00cc44:	10c00002 	beqz	a2,9d00cc50 <dpcmplt+0x54>
9d00cc48:	00074040 	sll	t0,a3,0x1
9d00cc4c:	25080001 	addiu	t0,t0,1
9d00cc50:	3c01ffe0 	lui	at,0xffe0
9d00cc54:	34210001 	ori	at,at,0x1
9d00cc58:	0101082b 	sltu	at,t0,at
9d00cc5c:	1020002f 	beqz	at,9d00cd1c <dpcmplt+0x120>
9d00cc60:	00000000 	nop
9d00cc64:	04a10016 	bgez	a1,9d00ccc0 <dpcmplt+0xc4>
9d00cc68:	00000000 	nop
9d00cc6c:	04e00003 	bltz	a3,9d00cc7c <dpcmplt+0x80>
9d00cc70:	00000000 	nop
9d00cc74:	10000026 	b	9d00cd10 <dpcmplt+0x114>
9d00cc78:	2402ffff 	li	v0,-1
9d00cc7c:	0086502b 	sltu	t2,a0,a2
9d00cc80:	00862023 	subu	a0,a0,a2
9d00cc84:	00aa582b 	sltu	t3,a1,t2
9d00cc88:	00aa2823 	subu	a1,a1,t2
9d00cc8c:	00a7502b 	sltu	t2,a1,a3
9d00cc90:	014b5025 	or	t2,t2,t3
9d00cc94:	11400003 	beqz	t2,9d00cca4 <dpcmplt+0xa8>
9d00cc98:	00a72823 	subu	a1,a1,a3
9d00cc9c:	1000001c 	b	9d00cd10 <dpcmplt+0x114>
9d00cca0:	24020001 	li	v0,1
9d00cca4:	00a45025 	or	t2,a1,a0
9d00cca8:	11400003 	beqz	t2,9d00ccb8 <dpcmplt+0xbc>
9d00ccac:	00000000 	nop
9d00ccb0:	10000017 	b	9d00cd10 <dpcmplt+0x114>
9d00ccb4:	2402ffff 	li	v0,-1
9d00ccb8:	10000015 	b	9d00cd10 <dpcmplt+0x114>
9d00ccbc:	24020000 	li	v0,0
9d00ccc0:	04e10003 	bgez	a3,9d00ccd0 <dpcmplt+0xd4>
9d00ccc4:	00000000 	nop
9d00ccc8:	10000011 	b	9d00cd10 <dpcmplt+0x114>
9d00cccc:	24020001 	li	v0,1
9d00ccd0:	0086502b 	sltu	t2,a0,a2
9d00ccd4:	00862023 	subu	a0,a0,a2
9d00ccd8:	00aa582b 	sltu	t3,a1,t2
9d00ccdc:	00aa2823 	subu	a1,a1,t2
9d00cce0:	00a7502b 	sltu	t2,a1,a3
9d00cce4:	014b5025 	or	t2,t2,t3
9d00cce8:	11400003 	beqz	t2,9d00ccf8 <dpcmplt+0xfc>
9d00ccec:	00a72823 	subu	a1,a1,a3
9d00ccf0:	10000007 	b	9d00cd10 <dpcmplt+0x114>
9d00ccf4:	2402ffff 	li	v0,-1
9d00ccf8:	00a45025 	or	t2,a1,a0
9d00ccfc:	11400003 	beqz	t2,9d00cd0c <dpcmplt+0x110>
9d00cd00:	00000000 	nop
9d00cd04:	10000002 	b	9d00cd10 <dpcmplt+0x114>
9d00cd08:	24020001 	li	v0,1
9d00cd0c:	24020000 	li	v0,0
9d00cd10:	03e00008 	jr	ra
9d00cd14:	00000000 	nop
9d00cd18:	00000000 	nop
9d00cd1c:	1000fffc 	b	9d00cd10 <dpcmplt+0x114>
9d00cd20:	34020001 	li	v0,0x1
9d00cd24:	00000000 	nop

Disassembly of section .text._mon_putc:

9d00cd28 <_mon_putc>:
9d00cd28:	3c02a000 	lui	v0,0xa000
9d00cd2c:	8c430000 	lw	v1,0(v0)
9d00cd30:	14600013 	bnez	v1,9d00cd80 <_mon_putc+0x58>
9d00cd34:	00803025 	move	a2,a0
9d00cd38:	3c020000 	lui	v0,0x0
9d00cd3c:	27bdffe8 	addiu	sp,sp,-24
9d00cd40:	24420000 	addiu	v0,v0,0
9d00cd44:	10400006 	beqz	v0,9d00cd60 <_mon_putc+0x38>
9d00cd48:	afbf0014 	sw	ra,20(sp)
9d00cd4c:	0c000000 	jal	90000000 <_bmxdudba_address+0x8fff0000>
9d00cd50:	00000000 	nop
9d00cd54:	8fbf0014 	lw	ra,20(sp)
9d00cd58:	03e00008 	jr	ra
9d00cd5c:	27bd0018 	addiu	sp,sp,24
9d00cd60:	3c020000 	lui	v0,0x0
9d00cd64:	24420000 	addiu	v0,v0,0
9d00cd68:	10400025 	beqz	v0,9d00ce00 <_mon_putc+0xd8>
9d00cd6c:	3c05bf80 	lui	a1,0xbf80
9d00cd70:	0c000000 	jal	90000000 <_bmxdudba_address+0x8fff0000>
9d00cd74:	00000000 	nop
9d00cd78:	1000fff7 	b	9d00cd58 <_mon_putc+0x30>
9d00cd7c:	8fbf0014 	lw	ra,20(sp)
9d00cd80:	3c02bf80 	lui	v0,0xbf80
9d00cd84:	24426010 	addiu	v0,v0,24592
9d00cd88:	1040002f 	beqz	v0,9d00ce48 <_mon_putc+0x120>
9d00cd8c:	00000000 	nop
9d00cd90:	24040001 	li	a0,1
9d00cd94:	14640012 	bne	v1,a0,9d00cde0 <_mon_putc+0xb8>
9d00cd98:	3c03bf80 	lui	v1,0xbf80
9d00cd9c:	3c03bf80 	lui	v1,0xbf80
9d00cda0:	3c04bf80 	lui	a0,0xbf80
9d00cda4:	3c05bf80 	lui	a1,0xbf80
9d00cda8:	24636020 	addiu	v1,v1,24608
9d00cdac:	24846018 	addiu	a0,a0,24600
9d00cdb0:	24a56008 	addiu	a1,a1,24584
9d00cdb4:	34078000 	li	a3,0x8000
9d00cdb8:	aca70000 	sw	a3,0(a1)
9d00cdbc:	24050400 	li	a1,1024
9d00cdc0:	ac850000 	sw	a1,0(a0)
9d00cdc4:	8c440000 	lw	a0,0(v0)
9d00cdc8:	30840100 	andi	a0,a0,0x100
9d00cdcc:	1080fffd 	beqz	a0,9d00cdc4 <_mon_putc+0x9c>
9d00cdd0:	00000000 	nop
9d00cdd4:	ac660000 	sw	a2,0(v1)
9d00cdd8:	03e00008 	jr	ra
9d00cddc:	00000000 	nop
9d00cde0:	3c04bf80 	lui	a0,0xbf80
9d00cde4:	3c05bf80 	lui	a1,0xbf80
9d00cde8:	3c02bf80 	lui	v0,0xbf80
9d00cdec:	24636220 	addiu	v1,v1,25120
9d00cdf0:	24846218 	addiu	a0,a0,25112
9d00cdf4:	24a56208 	addiu	a1,a1,25096
9d00cdf8:	1000ffee 	b	9d00cdb4 <_mon_putc+0x8c>
9d00cdfc:	24426210 	addiu	v0,v0,25104
9d00ce00:	24a56208 	addiu	a1,a1,25096
9d00ce04:	3c04bf80 	lui	a0,0xbf80
9d00ce08:	34078000 	li	a3,0x8000
9d00ce0c:	aca70000 	sw	a3,0(a1)
9d00ce10:	3c03bf80 	lui	v1,0xbf80
9d00ce14:	24846218 	addiu	a0,a0,25112
9d00ce18:	3c02bf80 	lui	v0,0xbf80
9d00ce1c:	24050400 	li	a1,1024
9d00ce20:	24636220 	addiu	v1,v1,25120
9d00ce24:	24426210 	addiu	v0,v0,25104
9d00ce28:	ac850000 	sw	a1,0(a0)
9d00ce2c:	8c440000 	lw	a0,0(v0)
9d00ce30:	30840100 	andi	a0,a0,0x100
9d00ce34:	1080fffd 	beqz	a0,9d00ce2c <_mon_putc+0x104>
9d00ce38:	00000000 	nop
9d00ce3c:	ac660000 	sw	a2,0(v1)
9d00ce40:	1000ffc5 	b	9d00cd58 <_mon_putc+0x30>
9d00ce44:	8fbf0014 	lw	ra,20(sp)
9d00ce48:	03e00008 	jr	ra
9d00ce4c:	00000000 	nop

Disassembly of section .rodata:

9d00ce50 <table-0xc>:
9d00ce50:	04020100 	bltzl	zero,9d00d254 <i49+0x14>
9d00ce54:	05060307 	0x5060307
9d00ce58:	00000000 	nop

9d00ce5c <table>:
9d00ce5c:	ffffffff ffffffff ffffffff ffffffff     ................
9d00ce6c:	ffffffff ffffffff ffffffff ffffffff     ................
9d00ce7c:	ffffffff ffffffff ffffffff ffffffff     ................
9d00ce8c:	020100ff 06050403 ff090807 ffffffff     ................
9d00ce9c:	0b0affff 0f0e0d0c 13121110 17161514     ................
9d00ceac:	1b1a1918 1f1e1d1c 23222120 ffffffff     ........ !"#....
9d00cebc:	0b0affff 0f0e0d0c 13121110 17161514     ................
9d00cecc:	1b1a1918 1f1e1d1c 23222120 ffffffff     ........ !"#....
9d00cedc:	ffffffff ffffffff ffffffff ffffffff     ................
9d00ceec:	ffffffff ffffffff ffffffff ffffffff     ................
9d00cefc:	ffffffff ffffffff ffffffff ffffffff     ................
9d00cf0c:	ffffffff ffffffff ffffffff ffffffff     ................
9d00cf1c:	ffffffff ffffffff ffffffff ffffffff     ................
9d00cf2c:	ffffffff ffffffff ffffffff ffffffff     ................
9d00cf3c:	ffffffff ffffffff ffffffff ffffffff     ................
9d00cf4c:	ffffffff ffffffff ffffffff ffffffff     ................
9d00cf5c:	000000ff                                ....

Disassembly of section .text:

9d00cf60 <dpfloor>:
9d00cf60:	3c018000 00a13024 00053840 00073d42     ...<$0..@8..B=..
9d00cf70:	240107ff 10e1002b 00000000 24090433     ...$+.......3..$
9d00cf80:	01273823 2ce10035 1420000b 00000000     #8'.5..,.. .....
9d00cf90:	04e00020 00000000 10c0002d 00000000      .......-.......
9d00cfa0:	00054840 01244825 15200026 00000000     @H..%H$.&. .....
9d00cfb0:	10000027 00000000                       '.......

9d00cfb8 <i1>:
9d00cfb8:	10c00005 	beqz	a2,9d00cfd0 <i3>
9d00cfbc:	00000000 	nop
9d00cfc0:	0004482b 	sltu	t1,zero,a0
9d00cfc4:	00042023 	negu	a0,a0
9d00cfc8:	00052823 	negu	a1,a1
9d00cfcc:	00a92823 	subu	a1,a1,t1

9d00cfd0 <i3>:
9d00cfd0:	30e9001f 	andi	t1,a3,0x1f
9d00cfd4:	24080001 	li	t0,1
9d00cfd8:	01284004 	sllv	t0,t0,t1
9d00cfdc:	00084023 	negu	t0,t0
9d00cfe0:	2ce10020 	sltiu	at,a3,32
9d00cfe4:	14200004 	bnez	at,9d00cff8 <i4>
9d00cfe8:	00000000 	nop
9d00cfec:	24040000 	li	a0,0
9d00cff0:	10000002 	b	9d00cffc <e4>
9d00cff4:	00a82824 	and	a1,a1,t0

9d00cff8 <i4>:
9d00cff8:	00882024 	and	a0,a0,t0

9d00cffc <e4>:
9d00cffc:	10c00005 	beqz	a2,9d00d014 <Aret>
9d00d000:	00000000 	nop
9d00d004:	0004482b 	sltu	t1,zero,a0
9d00d008:	00042023 	negu	a0,a0
9d00d00c:	00052823 	negu	a1,a1
9d00d010:	00a92823 	subu	a1,a1,t1

9d00d014 <Aret>:
9d00d014:	00041025 	or	v0,zero,a0
9d00d018:	00051825 	or	v1,zero,a1

9d00d01c <A999>:
9d00d01c:	03e00008 	jr	ra
9d00d020:	00000000 	nop

9d00d024 <Aspec>:
9d00d024:	3c01000f 	lui	at,0xf
9d00d028:	3421ffff 	ori	at,at,0xffff
9d00d02c:	00a14824 	and	t1,a1,at
9d00d030:	01244825 	or	t1,t1,a0
9d00d034:	15200009 	bnez	t1,9d00d05c <Anan>
9d00d038:	00000000 	nop
9d00d03c:	1000fff5 	b	9d00d014 <Aret>
9d00d040:	00000000 	nop

9d00d044 <Amin1>:
9d00d044:	3c05bff0 	lui	a1,0xbff0
9d00d048:	1000fff2 	b	9d00d014 <Aret>
9d00d04c:	24040000 	li	a0,0

9d00d050 <Azer>:
9d00d050:	00062825 	or	a1,zero,a2
9d00d054:	1000ffef 	b	9d00d014 <Aret>
9d00d058:	24040000 	li	a0,0

9d00d05c <Anan>:
9d00d05c:	3c05fff8 	lui	a1,0xfff8
9d00d060:	1000ffec 	b	9d00d014 <Aret>
9d00d064:	24040000 	li	a0,0

Disassembly of section .text.__pad:

9d00d068 <__pad>:
9d00d068:	27bdffc0 	addiu	sp,sp,-64
9d00d06c:	afb3002c 	sw	s3,44(sp)
9d00d070:	8fb30050 	lw	s3,80(sp)
9d00d074:	afb60038 	sw	s6,56(sp)
9d00d078:	afb40030 	sw	s4,48(sp)
9d00d07c:	32730001 	andi	s3,s3,0x1
9d00d080:	afb20028 	sw	s2,40(sp)
9d00d084:	afb10024 	sw	s1,36(sp)
9d00d088:	afb00020 	sw	s0,32(sp)
9d00d08c:	afbf003c 	sw	ra,60(sp)
9d00d090:	afb50034 	sw	s5,52(sp)
9d00d094:	00809025 	move	s2,a0
9d00d098:	00a0b025 	move	s6,a1
9d00d09c:	00c08025 	move	s0,a2
9d00d0a0:	00e08825 	move	s1,a3
9d00d0a4:	16600003 	bnez	s3,9d00d0b4 <__pad+0x4c>
9d00d0a8:	00c7a02b 	sltu	s4,a2,a3
9d00d0ac:	56800013 	bnezl	s4,9d00d0fc <__pad+0x94>
9d00d0b0:	0230a023 	subu	s4,s1,s0
9d00d0b4:	02003025 	move	a2,s0
9d00d0b8:	02c02825 	move	a1,s6
9d00d0bc:	0f40384e 	jal	9d00e138 <__out>
9d00d0c0:	02402025 	move	a0,s2
9d00d0c4:	1680000d 	bnez	s4,9d00d0fc <__pad+0x94>
9d00d0c8:	0230a023 	subu	s4,s1,s0
9d00d0cc:	02008825 	move	s1,s0
9d00d0d0:	8fbf003c 	lw	ra,60(sp)
9d00d0d4:	02201025 	move	v0,s1
9d00d0d8:	8fb60038 	lw	s6,56(sp)
9d00d0dc:	8fb50034 	lw	s5,52(sp)
9d00d0e0:	8fb40030 	lw	s4,48(sp)
9d00d0e4:	8fb3002c 	lw	s3,44(sp)
9d00d0e8:	8fb20028 	lw	s2,40(sp)
9d00d0ec:	8fb10024 	lw	s1,36(sp)
9d00d0f0:	8fb00020 	lw	s0,32(sp)
9d00d0f4:	03e00008 	jr	ra
9d00d0f8:	27bd0040 	addiu	sp,sp,64
9d00d0fc:	2e860011 	sltiu	a2,s4,17
9d00d100:	24020010 	li	v0,16
9d00d104:	0286100b 	movn	v0,s4,a2
9d00d108:	00403025 	move	a2,v0
9d00d10c:	24050020 	li	a1,32
9d00d110:	27a40010 	addiu	a0,sp,16
9d00d114:	0f403cbf 	jal	9d00f2fc <memset>
9d00d118:	0280a825 	move	s5,s4
9d00d11c:	2ea20010 	sltiu	v0,s5,16
9d00d120:	1040000b 	beqz	v0,9d00d150 <__pad+0xe8>
9d00d124:	3286000f 	andi	a2,s4,0xf
9d00d128:	27a50010 	addiu	a1,sp,16
9d00d12c:	0f40384e 	jal	9d00e138 <__out>
9d00d130:	02402025 	move	a0,s2
9d00d134:	1660ffe6 	bnez	s3,9d00d0d0 <__pad+0x68>
9d00d138:	02003025 	move	a2,s0
9d00d13c:	02c02825 	move	a1,s6
9d00d140:	0f40384e 	jal	9d00e138 <__out>
9d00d144:	02402025 	move	a0,s2
9d00d148:	1000ffe2 	b	9d00d0d4 <__pad+0x6c>
9d00d14c:	8fbf003c 	lw	ra,60(sp)
9d00d150:	24060010 	li	a2,16
9d00d154:	27a50010 	addiu	a1,sp,16
9d00d158:	0f40384e 	jal	9d00e138 <__out>
9d00d15c:	02402025 	move	a0,s2
9d00d160:	1000ffee 	b	9d00d11c <__pad+0xb4>
9d00d164:	26b5fff0 	addiu	s5,s5,-16

Disassembly of section .text.dptofp:

9d00d168 <__truncdfsf2>:
9d00d168:	00053ac0 00045d42 00eb3825 000432c0     .:..B]..%8...2..
9d00d178:	3c018000 00e13825 3c018000 00a14824     ...<%8.....<$H..
9d00d188:	00054040 00084542 2508fc80 250bffff     @@..BE.....%...%
9d00d198:	2d6100fe 10200012 00000000              ..a-.. .....

9d00d1a4 <Hlab1>:
9d00d1a4:	10c00002 	beqz	a2,9d00d1b0 <i45>
9d00d1a8:	00000000 	nop
9d00d1ac:	34e70001 	ori	a3,a3,0x1

9d00d1b0 <i45>:
9d00d1b0:	24e70080 	addiu	a3,a3,128
9d00d1b4:	2ceb0080 	sltiu	t3,a3,128
9d00d1b8:	010b4021 	addu	t0,t0,t3
9d00d1bc:	00075a02 	srl	t3,a3,0x8
9d00d1c0:	316b0001 	andi	t3,t3,0x1
9d00d1c4:	00eb3823 	subu	a3,a3,t3
9d00d1c8:	00073840 	sll	a3,a3,0x1
9d00d1cc:	00073a42 	srl	a3,a3,0x9
9d00d1d0:	00085dc0 	sll	t3,t0,0x17
9d00d1d4:	00eb3825 	or	a3,a3,t3
9d00d1d8:	00e91025 	or	v0,a3,t1

9d00d1dc <H999>:
9d00d1dc:	03e00008 	jr	ra
9d00d1e0:	00000000 	nop
9d00d1e4:	00000000 	nop

9d00d1e8 <Hspec>:
9d00d1e8:	2401047f 	li	at,1151
9d00d1ec:	15010007 	bne	t0,at,9d00d20c <i46>
9d00d1f0:	00000000 	nop
9d00d1f4:	00075840 	sll	t3,a3,0x1
9d00d1f8:	01665825 	or	t3,t3,a2
9d00d1fc:	11600003 	beqz	t3,9d00d20c <i46>
9d00d200:	00000000 	nop
9d00d204:	1000fff5 	b	9d00d1dc <H999>
9d00d208:	3c02ffc0 	lui	v0,0xffc0

9d00d20c <i46>:
9d00d20c:	290100ff 	slti	at,t0,255
9d00d210:	14200004 	bnez	at,9d00d224 <i48>
9d00d214:	00000000 	nop
9d00d218:	3c017f80 	lui	at,0x7f80
9d00d21c:	1000ffef 	b	9d00d1dc <H999>
9d00d220:	01211025 	or	v0,t1,at

9d00d224 <i48>:
9d00d224:	240a0001 	li	t2,1
9d00d228:	01485023 	subu	t2,t2,t0
9d00d22c:	2d410020 	sltiu	at,t2,32
9d00d230:	14200003 	bnez	at,9d00d240 <i49>
9d00d234:	00000000 	nop
9d00d238:	1000ffe8 	b	9d00d1dc <H999>
9d00d23c:	00091025 	or	v0,zero,t1

9d00d240 <i49>:
9d00d240:	240c0020 	li	t4,32
9d00d244:	018a6023 	subu	t4,t4,t2
9d00d248:	01875804 	sllv	t3,a3,t4
9d00d24c:	00cb3025 	or	a2,a2,t3
9d00d250:	01473806 	srlv	a3,a3,t2
9d00d254:	24080000 	li	t0,0
9d00d258:	3c018000 	lui	at,0x8000
9d00d25c:	1000ffd1 	b	9d00d1a4 <Hlab1>
9d00d260:	00e13825 	or	a3,a3,at
9d00d264:	00000000 	nop

Disassembly of section .text.scalbn:

9d00d268 <scalbn>:
9d00d268:	27bdffe0 	addiu	sp,sp,-32
9d00d26c:	afb10014 	sw	s1,20(sp)
9d00d270:	00c08825 	move	s1,a2
9d00d274:	28c60400 	slti	a2,a2,1024
9d00d278:	afbf001c 	sw	ra,28(sp)
9d00d27c:	afb20018 	sw	s2,24(sp)
9d00d280:	14c0001f 	bnez	a2,9d00d300 <scalbn+0x98>
9d00d284:	afb00010 	sw	s0,16(sp)
9d00d288:	3c129d00 	lui	s2,0x9d00
9d00d28c:	8e467580 	lw	a2,30080(s2)
9d00d290:	8e477584 	lw	a3,30084(s2)
9d00d294:	0f402c42 	jal	9d00b108 <__muldf3>
9d00d298:	2630fc01 	addiu	s0,s1,-1023
9d00d29c:	2a040400 	slti	a0,s0,1024
9d00d2a0:	14800009 	bnez	a0,9d00d2c8 <scalbn+0x60>
9d00d2a4:	8e467580 	lw	a2,30080(s2)
9d00d2a8:	8e477584 	lw	a3,30084(s2)
9d00d2ac:	00402025 	move	a0,v0
9d00d2b0:	00602825 	move	a1,v1
9d00d2b4:	0f402c42 	jal	9d00b108 <__muldf3>
9d00d2b8:	2630f802 	addiu	s0,s1,-2046
9d00d2bc:	2a050400 	slti	a1,s0,1024
9d00d2c0:	240403ff 	li	a0,1023
9d00d2c4:	0085800a 	movz	s0,a0,a1
9d00d2c8:	261003ff 	addiu	s0,s0,1023
9d00d2cc:	00102500 	sll	a0,s0,0x14
9d00d2d0:	00002825 	move	a1,zero
9d00d2d4:	00a03025 	move	a2,a1
9d00d2d8:	00803825 	move	a3,a0
9d00d2dc:	00602825 	move	a1,v1
9d00d2e0:	0f402c42 	jal	9d00b108 <__muldf3>
9d00d2e4:	00402025 	move	a0,v0
9d00d2e8:	8fbf001c 	lw	ra,28(sp)
9d00d2ec:	8fb20018 	lw	s2,24(sp)
9d00d2f0:	8fb10014 	lw	s1,20(sp)
9d00d2f4:	8fb00010 	lw	s0,16(sp)
9d00d2f8:	03e00008 	jr	ra
9d00d2fc:	27bd0020 	addiu	sp,sp,32
9d00d300:	2a26fc02 	slti	a2,s1,-1022
9d00d304:	00801025 	move	v0,a0
9d00d308:	00a01825 	move	v1,a1
9d00d30c:	10c0ffee 	beqz	a2,9d00d2c8 <scalbn+0x60>
9d00d310:	02208025 	move	s0,s1
9d00d314:	3c129d00 	lui	s2,0x9d00
9d00d318:	8e467588 	lw	a2,30088(s2)
9d00d31c:	8e47758c 	lw	a3,30092(s2)
9d00d320:	0f402c42 	jal	9d00b108 <__muldf3>
9d00d324:	263003c9 	addiu	s0,s1,969
9d00d328:	2a04fc02 	slti	a0,s0,-1022
9d00d32c:	1080ffe6 	beqz	a0,9d00d2c8 <scalbn+0x60>
9d00d330:	8e467588 	lw	a2,30088(s2)
9d00d334:	8e47758c 	lw	a3,30092(s2)
9d00d338:	00402025 	move	a0,v0
9d00d33c:	00602825 	move	a1,v1
9d00d340:	0f402c42 	jal	9d00b108 <__muldf3>
9d00d344:	26300792 	addiu	s0,s1,1938
9d00d348:	2a05fc02 	slti	a1,s0,-1022
9d00d34c:	2404fc02 	li	a0,-1022
9d00d350:	1000ffdd 	b	9d00d2c8 <scalbn+0x60>
9d00d354:	0085800b 	movn	s0,a0,a1

Disassembly of section .text.__pop_ptr:

9d00d358 <__pop_ptr>:
9d00d358:	24020084 	li	v0,132
9d00d35c:	50a20022 	beql	a1,v0,9d00d3e8 <__pop_ptr+0x90>
9d00d360:	8ce20000 	lw	v0,0(a3)
9d00d364:	28a20085 	slti	v0,a1,133
9d00d368:	10400010 	beqz	v0,9d00d3ac <__pop_ptr+0x54>
9d00d36c:	24020081 	li	v0,129
9d00d370:	50a20008 	beql	a1,v0,9d00d394 <__pop_ptr+0x3c>
9d00d374:	8ce20000 	lw	v0,0(a3)
9d00d378:	24020082 	li	v0,130
9d00d37c:	50a20027 	beql	a1,v0,9d00d41c <__pop_ptr+0xc4>
9d00d380:	8ce20000 	lw	v0,0(a3)
9d00d384:	24020080 	li	v0,128
9d00d388:	14a20010 	bne	a1,v0,9d00d3cc <__pop_ptr+0x74>
9d00d38c:	00000000 	nop
9d00d390:	8ce20000 	lw	v0,0(a3)
9d00d394:	24430004 	addiu	v1,v0,4
9d00d398:	ace30000 	sw	v1,0(a3)
9d00d39c:	8c420000 	lw	v0,0(v0)
9d00d3a0:	ac820000 	sw	v0,0(a0)
9d00d3a4:	10000015 	b	9d00d3fc <__pop_ptr+0xa4>
9d00d3a8:	ac460000 	sw	a2,0(v0)
9d00d3ac:	24020090 	li	v0,144
9d00d3b0:	50a2001a 	beql	a1,v0,9d00d41c <__pop_ptr+0xc4>
9d00d3b4:	8ce20000 	lw	v0,0(a3)
9d00d3b8:	28a20091 	slti	v0,a1,145
9d00d3bc:	10400005 	beqz	v0,9d00d3d4 <__pop_ptr+0x7c>
9d00d3c0:	24020088 	li	v0,136
9d00d3c4:	50a2000f 	beql	a1,v0,9d00d404 <__pop_ptr+0xac>
9d00d3c8:	8ce20000 	lw	v0,0(a3)
9d00d3cc:	03e00008 	jr	ra
9d00d3d0:	00001025 	move	v0,zero
9d00d3d4:	240200a0 	li	v0,160
9d00d3d8:	50a2ffee 	beql	a1,v0,9d00d394 <__pop_ptr+0x3c>
9d00d3dc:	8ce20000 	lw	v0,0(a3)
9d00d3e0:	1000ffe9 	b	9d00d388 <__pop_ptr+0x30>
9d00d3e4:	240200c0 	li	v0,192
9d00d3e8:	24430004 	addiu	v1,v0,4
9d00d3ec:	ace30000 	sw	v1,0(a3)
9d00d3f0:	8c420000 	lw	v0,0(v0)
9d00d3f4:	ac820000 	sw	v0,0(a0)
9d00d3f8:	a4460000 	sh	a2,0(v0)
9d00d3fc:	03e00008 	jr	ra
9d00d400:	24020001 	li	v0,1
9d00d404:	24430004 	addiu	v1,v0,4
9d00d408:	ace30000 	sw	v1,0(a3)
9d00d40c:	8c420000 	lw	v0,0(v0)
9d00d410:	ac820000 	sw	v0,0(a0)
9d00d414:	1000fff9 	b	9d00d3fc <__pop_ptr+0xa4>
9d00d418:	a0460000 	sb	a2,0(v0)
9d00d41c:	24430004 	addiu	v1,v0,4
9d00d420:	ace30000 	sw	v1,0(a3)
9d00d424:	8c420000 	lw	v0,0(v0)
9d00d428:	ac820000 	sw	v0,0(a0)
9d00d42c:	ac460000 	sw	a2,0(v0)
9d00d430:	000637c3 	sra	a2,a2,0x1f
9d00d434:	1000fff1 	b	9d00d3fc <__pop_ptr+0xa4>
9d00d438:	ac460004 	sw	a2,4(v0)

Disassembly of section .text.general_exception:

9d00d43c <_general_exception_context>:
9d00d43c:	27bdffa8 	addiu	sp,sp,-88
9d00d440:	afa10004 	sw	at,4(sp)
9d00d444:	afa20008 	sw	v0,8(sp)
9d00d448:	afa3000c 	sw	v1,12(sp)
9d00d44c:	afa40010 	sw	a0,16(sp)
9d00d450:	afa50014 	sw	a1,20(sp)
9d00d454:	afa60018 	sw	a2,24(sp)
9d00d458:	afa7001c 	sw	a3,28(sp)
9d00d45c:	afa80020 	sw	t0,32(sp)
9d00d460:	afa90024 	sw	t1,36(sp)
9d00d464:	afaa0028 	sw	t2,40(sp)
9d00d468:	afab002c 	sw	t3,44(sp)
9d00d46c:	afac0030 	sw	t4,48(sp)
9d00d470:	afad0034 	sw	t5,52(sp)
9d00d474:	afae0038 	sw	t6,56(sp)
9d00d478:	afaf003c 	sw	t7,60(sp)
9d00d47c:	afb80040 	sw	t8,64(sp)
9d00d480:	afb90044 	sw	t9,68(sp)
9d00d484:	afbf0048 	sw	ra,72(sp)
9d00d488:	00004012 	mflo	t0
9d00d48c:	afa8004c 	sw	t0,76(sp)
9d00d490:	00004010 	mfhi	t0
9d00d494:	afa80050 	sw	t0,80(sp)
9d00d498:	3c1a9d01 	lui	k0,0x9d01
9d00d49c:	275aec44 	addiu	k0,k0,-5052
9d00d4a0:	00000000 	nop
9d00d4a4:	40046800 	mfc0	a0,c0_cause
9d00d4a8:	40056000 	mfc0	a1,c0_status
9d00d4ac:	0340f809 	jalr	k0
9d00d4b0:	00000000 	nop
9d00d4b4:	8fa80050 	lw	t0,80(sp)
9d00d4b8:	01000011 	mthi	t0
9d00d4bc:	8fa8004c 	lw	t0,76(sp)
9d00d4c0:	01000013 	mtlo	t0
9d00d4c4:	8fa10004 	lw	at,4(sp)
9d00d4c8:	8fa20008 	lw	v0,8(sp)
9d00d4cc:	8fa3000c 	lw	v1,12(sp)
9d00d4d0:	8fa40010 	lw	a0,16(sp)
9d00d4d4:	8fa50014 	lw	a1,20(sp)
9d00d4d8:	8fa60018 	lw	a2,24(sp)
9d00d4dc:	8fa7001c 	lw	a3,28(sp)
9d00d4e0:	8fa80020 	lw	t0,32(sp)
9d00d4e4:	8fa90024 	lw	t1,36(sp)
9d00d4e8:	8faa0028 	lw	t2,40(sp)
9d00d4ec:	8fab002c 	lw	t3,44(sp)
9d00d4f0:	8fac0030 	lw	t4,48(sp)
9d00d4f4:	8fad0034 	lw	t5,52(sp)
9d00d4f8:	8fae0038 	lw	t6,56(sp)
9d00d4fc:	8faf003c 	lw	t7,60(sp)
9d00d500:	8fb80040 	lw	t8,64(sp)
9d00d504:	8fb90044 	lw	t9,68(sp)
9d00d508:	8fbf0048 	lw	ra,72(sp)
9d00d50c:	27bd0058 	addiu	sp,sp,88
9d00d510:	000000c0 	ehb
9d00d514:	42000018 	eret

Disassembly of section .text.__stdio_read:

9d00d518 <__stdio_read>:
9d00d518:	8c83000c 	lw	v1,12(a0)
9d00d51c:	27bdffd0 	addiu	sp,sp,-48
9d00d520:	afb00020 	sw	s0,32(sp)
9d00d524:	0003102b 	sltu	v0,zero,v1
9d00d528:	00c21023 	subu	v0,a2,v0
9d00d52c:	00808025 	move	s0,a0
9d00d530:	afa20014 	sw	v0,20(sp)
9d00d534:	8c820008 	lw	v0,8(a0)
9d00d538:	8c840000 	lw	a0,0(a0)
9d00d53c:	afb20028 	sw	s2,40(sp)
9d00d540:	afb10024 	sw	s1,36(sp)
9d00d544:	00a09025 	move	s2,a1
9d00d548:	00c08825 	move	s1,a2
9d00d54c:	afa50010 	sw	a1,16(sp)
9d00d550:	24060002 	li	a2,2
9d00d554:	27a50010 	addiu	a1,sp,16
9d00d558:	afbf002c 	sw	ra,44(sp)
9d00d55c:	afa20018 	sw	v0,24(sp)
9d00d560:	0f403938 	jal	9d00e4e0 <readv>
9d00d564:	afa3001c 	sw	v1,28(sp)
9d00d568:	1c400007 	bgtz	v0,9d00d588 <__stdio_read+0x70>
9d00d56c:	30430018 	andi	v1,v0,0x18
9d00d570:	38640008 	xori	a0,v1,0x8
9d00d574:	8e030004 	lw	v1,4(s0)
9d00d578:	00641825 	or	v1,v1,a0
9d00d57c:	ae030004 	sw	v1,4(s0)
9d00d580:	10000011 	b	9d00d5c8 <__stdio_read+0xb0>
9d00d584:	00408825 	move	s1,v0
9d00d588:	8fa40014 	lw	a0,20(sp)
9d00d58c:	0082182b 	sltu	v1,a0,v0
9d00d590:	5060000d 	beqzl	v1,9d00d5c8 <__stdio_read+0xb0>
9d00d594:	00408825 	move	s1,v0
9d00d598:	8e030008 	lw	v1,8(s0)
9d00d59c:	00441023 	subu	v0,v0,a0
9d00d5a0:	00621021 	addu	v0,v1,v0
9d00d5a4:	ae020040 	sw	v0,64(s0)
9d00d5a8:	8e02000c 	lw	v0,12(s0)
9d00d5ac:	10400006 	beqz	v0,9d00d5c8 <__stdio_read+0xb0>
9d00d5b0:	ae03003c 	sw	v1,60(s0)
9d00d5b4:	24620001 	addiu	v0,v1,1
9d00d5b8:	ae02003c 	sw	v0,60(s0)
9d00d5bc:	90620000 	lbu	v0,0(v1)
9d00d5c0:	02519021 	addu	s2,s2,s1
9d00d5c4:	a242ffff 	sb	v0,-1(s2)
9d00d5c8:	8fbf002c 	lw	ra,44(sp)
9d00d5cc:	02201025 	move	v0,s1
9d00d5d0:	8fb20028 	lw	s2,40(sp)
9d00d5d4:	8fb10024 	lw	s1,36(sp)
9d00d5d8:	8fb00020 	lw	s0,32(sp)
9d00d5dc:	03e00008 	jr	ra
9d00d5e0:	27bd0030 	addiu	sp,sp,48

Disassembly of section .text.__simple_search_fl:

9d00d5e4 <__simple_search_fl>:
9d00d5e4:	3c06a000 	lui	a2,0xa000
9d00d5e8:	8cca016c 	lw	t2,364(a2)
9d00d5ec:	1140002b 	beqz	t2,9d00d69c <__simple_search_fl+0xb8>
9d00d5f0:	00001025 	move	v0,zero
9d00d5f4:	01401825 	move	v1,t2
9d00d5f8:	00003825 	move	a3,zero
9d00d5fc:	00004025 	move	t0,zero
9d00d600:	8c650000 	lw	a1,0(v1)
9d00d604:	14a40008 	bne	a1,a0,9d00d628 <__simple_search_fl+0x44>
9d00d608:	8c690010 	lw	t1,16(v1)
9d00d60c:	50e00002 	beqzl	a3,9d00d618 <__simple_search_fl+0x34>
9d00d610:	acc9016c 	sw	t1,364(a2)
9d00d614:	ace90010 	sw	t1,16(a3)
9d00d618:	03e00008 	jr	ra
9d00d61c:	24620010 	addiu	v0,v1,16
9d00d620:	1000fff7 	b	9d00d600 <__simple_search_fl+0x1c>
9d00d624:	01201825 	move	v1,t1
9d00d628:	0085582b 	sltu	t3,a0,a1
9d00d62c:	11600007 	beqz	t3,9d00d64c <__simple_search_fl+0x68>
9d00d630:	00000000 	nop
9d00d634:	5040001b 	beqzl	v0,9d00d6a4 <__simple_search_fl+0xc0>
9d00d638:	00e04025 	move	t0,a3
9d00d63c:	8c4b0000 	lw	t3,0(v0)
9d00d640:	00ab282b 	sltu	a1,a1,t3
9d00d644:	00e5400b 	movn	t0,a3,a1
9d00d648:	0065100b 	movn	v0,v1,a1
9d00d64c:	1520fff4 	bnez	t1,9d00d620 <__simple_search_fl+0x3c>
9d00d650:	00603825 	move	a3,v1
9d00d654:	10400011 	beqz	v0,9d00d69c <__simple_search_fl+0xb8>
9d00d658:	00000000 	nop
9d00d65c:	8c430000 	lw	v1,0(v0)
9d00d660:	8c450010 	lw	a1,16(v0)
9d00d664:	00641823 	subu	v1,v1,a0
9d00d668:	2c690011 	sltiu	t1,v1,17
9d00d66c:	15200007 	bnez	t1,9d00d68c <__simple_search_fl+0xa8>
9d00d670:	24470010 	addiu	a3,v0,16
9d00d674:	ac440000 	sw	a0,0(v0)
9d00d678:	2463fff0 	addiu	v1,v1,-16
9d00d67c:	00e42021 	addu	a0,a3,a0
9d00d680:	ac850010 	sw	a1,16(a0)
9d00d684:	ac830000 	sw	v1,0(a0)
9d00d688:	00802825 	move	a1,a0
9d00d68c:	55420002 	bnel	t2,v0,9d00d698 <__simple_search_fl+0xb4>
9d00d690:	ad050010 	sw	a1,16(t0)
9d00d694:	acc5016c 	sw	a1,364(a2)
9d00d698:	00e01025 	move	v0,a3
9d00d69c:	03e00008 	jr	ra
9d00d6a0:	00000000 	nop
9d00d6a4:	1000ffe9 	b	9d00d64c <__simple_search_fl+0x68>
9d00d6a8:	00601025 	move	v0,v1

Disassembly of section .text.__stdio_seek_rw:

9d00d6ac <__stdio_seek_rw>:
9d00d6ac:	27bdffe0 	addiu	sp,sp,-32
9d00d6b0:	24020001 	li	v0,1
9d00d6b4:	afb20018 	sw	s2,24(sp)
9d00d6b8:	afb10014 	sw	s1,20(sp)
9d00d6bc:	afb00010 	sw	s0,16(sp)
9d00d6c0:	afbf001c 	sw	ra,28(sp)
9d00d6c4:	00808025 	move	s0,a0
9d00d6c8:	00c09025 	move	s2,a2
9d00d6cc:	14c20005 	bne	a2,v0,9d00d6e4 <__stdio_seek_rw+0x38>
9d00d6d0:	00a08825 	move	s1,a1
9d00d6d4:	8c820040 	lw	v0,64(a0)
9d00d6d8:	8c83003c 	lw	v1,60(a0)
9d00d6dc:	00431023 	subu	v0,v0,v1
9d00d6e0:	00a28823 	subu	s1,a1,v0
9d00d6e4:	8e020004 	lw	v0,4(s0)
9d00d6e8:	30420020 	andi	v0,v0,0x20
9d00d6ec:	1040000a 	beqz	v0,9d00d718 <__stdio_seek_rw+0x6c>
9d00d6f0:	02403025 	move	a2,s2
9d00d6f4:	8e020014 	lw	v0,20(s0)
9d00d6f8:	8e030018 	lw	v1,24(s0)
9d00d6fc:	0062102b 	sltu	v0,v1,v0
9d00d700:	5440000d 	bnezl	v0,9d00d738 <__stdio_seek_rw+0x8c>
9d00d704:	8e02002c 	lw	v0,44(s0)
9d00d708:	ae000028 	sw	zero,40(s0)
9d00d70c:	ae000018 	sw	zero,24(s0)
9d00d710:	ae000014 	sw	zero,20(s0)
9d00d714:	02403025 	move	a2,s2
9d00d718:	02202825 	move	a1,s1
9d00d71c:	0f403b47 	jal	9d00ed1c <__stdio_seek_unbuffered>
9d00d720:	02002025 	move	a0,s0
9d00d724:	0440000b 	bltz	v0,9d00d754 <__stdio_seek_rw+0xa8>
9d00d728:	00001025 	move	v0,zero
9d00d72c:	ae000040 	sw	zero,64(s0)
9d00d730:	10000009 	b	9d00d758 <__stdio_seek_rw+0xac>
9d00d734:	ae00003c 	sw	zero,60(s0)
9d00d738:	00003025 	move	a2,zero
9d00d73c:	00002825 	move	a1,zero
9d00d740:	0040f809 	jalr	v0
9d00d744:	02002025 	move	a0,s0
9d00d748:	8e020014 	lw	v0,20(s0)
9d00d74c:	5440ffef 	bnezl	v0,9d00d70c <__stdio_seek_rw+0x60>
9d00d750:	ae000028 	sw	zero,40(s0)
9d00d754:	2402ffff 	li	v0,-1
9d00d758:	8fbf001c 	lw	ra,28(sp)
9d00d75c:	8fb20018 	lw	s2,24(sp)
9d00d760:	8fb10014 	lw	s1,20(sp)
9d00d764:	8fb00010 	lw	s0,16(sp)
9d00d768:	03e00008 	jr	ra
9d00d76c:	27bd0020 	addiu	sp,sp,32

Disassembly of section .text.__stdio_close_rw:

9d00d770 <__stdio_close_rw>:
9d00d770:	14800003 	bnez	a0,9d00d780 <__stdio_close_rw+0x10>
9d00d774:	00001025 	move	v0,zero
9d00d778:	03e00008 	jr	ra
9d00d77c:	00000000 	nop
9d00d780:	8c820004 	lw	v0,4(a0)
9d00d784:	27bdffe0 	addiu	sp,sp,-32
9d00d788:	afb10018 	sw	s1,24(sp)
9d00d78c:	30420020 	andi	v0,v0,0x20
9d00d790:	afb00014 	sw	s0,20(sp)
9d00d794:	afbf001c 	sw	ra,28(sp)
9d00d798:	00808025 	move	s0,a0
9d00d79c:	10400009 	beqz	v0,9d00d7c4 <__stdio_close_rw+0x54>
9d00d7a0:	00a08825 	move	s1,a1
9d00d7a4:	8c820014 	lw	v0,20(a0)
9d00d7a8:	8c830018 	lw	v1,24(a0)
9d00d7ac:	0062102b 	sltu	v0,v1,v0
9d00d7b0:	54400014 	bnezl	v0,9d00d804 <__stdio_close_rw+0x94>
9d00d7b4:	8c82002c 	lw	v0,44(a0)
9d00d7b8:	ae000028 	sw	zero,40(s0)
9d00d7bc:	ae000018 	sw	zero,24(s0)
9d00d7c0:	ae000014 	sw	zero,20(s0)
9d00d7c4:	8e05003c 	lw	a1,60(s0)
9d00d7c8:	8e020040 	lw	v0,64(s0)
9d00d7cc:	00a2182b 	sltu	v1,a1,v0
9d00d7d0:	10600004 	beqz	v1,9d00d7e4 <__stdio_close_rw+0x74>
9d00d7d4:	24060001 	li	a2,1
9d00d7d8:	8e040000 	lw	a0,0(s0)
9d00d7dc:	0f403d9d 	jal	9d00f674 <lseek>
9d00d7e0:	00a22823 	subu	a1,a1,v0
9d00d7e4:	ae000040 	sw	zero,64(s0)
9d00d7e8:	ae00003c 	sw	zero,60(s0)
9d00d7ec:	1220000b 	beqz	s1,9d00d81c <__stdio_close_rw+0xac>
9d00d7f0:	00001025 	move	v0,zero
9d00d7f4:	0f403d9f 	jal	9d00f67c <close>
9d00d7f8:	8e040000 	lw	a0,0(s0)
9d00d7fc:	10000008 	b	9d00d820 <__stdio_close_rw+0xb0>
9d00d800:	8fbf001c 	lw	ra,28(sp)
9d00d804:	00003025 	move	a2,zero
9d00d808:	0040f809 	jalr	v0
9d00d80c:	00002825 	move	a1,zero
9d00d810:	8e030014 	lw	v1,20(s0)
9d00d814:	1460ffe8 	bnez	v1,9d00d7b8 <__stdio_close_rw+0x48>
9d00d818:	2402ffff 	li	v0,-1
9d00d81c:	8fbf001c 	lw	ra,28(sp)
9d00d820:	8fb10018 	lw	s1,24(sp)
9d00d824:	8fb00014 	lw	s0,20(sp)
9d00d828:	03e00008 	jr	ra
9d00d82c:	27bd0020 	addiu	sp,sp,32

Disassembly of section .text.strtox:

9d00d830 <strtox>:
9d00d830:	27bdff78 	addiu	sp,sp,-136
9d00d834:	afb20080 	sw	s2,128(sp)
9d00d838:	afb1007c 	sw	s1,124(sp)
9d00d83c:	afb00078 	sw	s0,120(sp)
9d00d840:	afbf0084 	sw	ra,132(sp)
9d00d844:	00808025 	move	s0,a0
9d00d848:	00a08825 	move	s1,a1
9d00d84c:	00c09025 	move	s2,a2
9d00d850:	afa0001c 	sw	zero,28(sp)
9d00d854:	afa40054 	sw	a0,84(sp)
9d00d858:	afa40020 	sw	a0,32(sp)
9d00d85c:	04800004 	bltz	a0,9d00d870 <strtox+0x40>
9d00d860:	2402ffff 	li	v0,-1
9d00d864:	3c027fff 	lui	v0,0x7fff
9d00d868:	3442ffff 	ori	v0,v0,0xffff
9d00d86c:	00821021 	addu	v0,a0,v0
9d00d870:	00002825 	move	a1,zero
9d00d874:	27a40018 	addiu	a0,sp,24
9d00d878:	0f403c6a 	jal	9d00f1a8 <__shlim>
9d00d87c:	afa20058 	sw	v0,88(sp)
9d00d880:	8fa20098 	lw	v0,152(sp)
9d00d884:	8fa3009c 	lw	v1,156(sp)
9d00d888:	02402825 	move	a1,s2
9d00d88c:	27a40018 	addiu	a0,sp,24
9d00d890:	afa20010 	sw	v0,16(sp)
9d00d894:	afa30014 	sw	v1,20(sp)
9d00d898:	0f402345 	jal	9d008d14 <__intscan>
9d00d89c:	24060001 	li	a2,1
9d00d8a0:	00402025 	move	a0,v0
9d00d8a4:	12200008 	beqz	s1,9d00d8c8 <strtox+0x98>
9d00d8a8:	00602825 	move	a1,v1
9d00d8ac:	8fa20058 	lw	v0,88(sp)
9d00d8b0:	8fa30054 	lw	v1,84(sp)
9d00d8b4:	00621823 	subu	v1,v1,v0
9d00d8b8:	8fa2006c 	lw	v0,108(sp)
9d00d8bc:	00621821 	addu	v1,v1,v0
9d00d8c0:	02038021 	addu	s0,s0,v1
9d00d8c4:	ae300000 	sw	s0,0(s1)
9d00d8c8:	8fbf0084 	lw	ra,132(sp)
9d00d8cc:	00801025 	move	v0,a0
9d00d8d0:	00a01825 	move	v1,a1
9d00d8d4:	8fb20080 	lw	s2,128(sp)
9d00d8d8:	8fb1007c 	lw	s1,124(sp)
9d00d8dc:	8fb00078 	lw	s0,120(sp)
9d00d8e0:	03e00008 	jr	ra
9d00d8e4:	27bd0088 	addiu	sp,sp,136

Disassembly of section .text.__shgetc:

9d00d8e8 <__shgetc>:
9d00d8e8:	8c820050 	lw	v0,80(a0)
9d00d8ec:	27bdffe8 	addiu	sp,sp,-24
9d00d8f0:	afb00010 	sw	s0,16(sp)
9d00d8f4:	afbf0014 	sw	ra,20(sp)
9d00d8f8:	1040000b 	beqz	v0,9d00d928 <__shgetc+0x40>
9d00d8fc:	00808025 	move	s0,a0
9d00d900:	8c830054 	lw	v1,84(a0)
9d00d904:	0062102a 	slt	v0,v1,v0
9d00d908:	14400007 	bnez	v0,9d00d928 <__shgetc+0x40>
9d00d90c:	00000000 	nop
9d00d910:	ae00004c 	sw	zero,76(s0)
9d00d914:	2402ffff 	li	v0,-1
9d00d918:	8fbf0014 	lw	ra,20(sp)
9d00d91c:	8fb00010 	lw	s0,16(sp)
9d00d920:	03e00008 	jr	ra
9d00d924:	27bd0018 	addiu	sp,sp,24
9d00d928:	0f403ac3 	jal	9d00eb0c <__uflow>
9d00d92c:	02002025 	move	a0,s0
9d00d930:	0442fff8 	bltzl	v0,9d00d914 <__shgetc+0x2c>
9d00d934:	ae00004c 	sw	zero,76(s0)
9d00d938:	8e030040 	lw	v1,64(s0)
9d00d93c:	8e040050 	lw	a0,80(s0)
9d00d940:	8e05003c 	lw	a1,60(s0)
9d00d944:	10800009 	beqz	a0,9d00d96c <__shgetc+0x84>
9d00d948:	00603025 	move	a2,v1
9d00d94c:	8e060054 	lw	a2,84(s0)
9d00d950:	00653823 	subu	a3,v1,a1
9d00d954:	00862023 	subu	a0,a0,a2
9d00d958:	00e4382a 	slt	a3,a3,a0
9d00d95c:	14e00003 	bnez	a3,9d00d96c <__shgetc+0x84>
9d00d960:	00603025 	move	a2,v1
9d00d964:	2484ffff 	addiu	a0,a0,-1
9d00d968:	00a43021 	addu	a2,a1,a0
9d00d96c:	10600006 	beqz	v1,9d00d988 <__shgetc+0xa0>
9d00d970:	ae06004c 	sw	a2,76(s0)
9d00d974:	8e040054 	lw	a0,84(s0)
9d00d978:	00651823 	subu	v1,v1,a1
9d00d97c:	24630001 	addiu	v1,v1,1
9d00d980:	00831821 	addu	v1,a0,v1
9d00d984:	ae030054 	sw	v1,84(s0)
9d00d988:	90a3ffff 	lbu	v1,-1(a1)
9d00d98c:	5462ffe2 	bnel	v1,v0,9d00d918 <__shgetc+0x30>
9d00d990:	a0a2ffff 	sb	v0,-1(a1)
9d00d994:	1000ffe1 	b	9d00d91c <__shgetc+0x34>
9d00d998:	8fbf0014 	lw	ra,20(sp)

Disassembly of section .text.__simple_malloc:

9d00d99c <__simple_malloc>:
9d00d99c:	27bdffd8 	addiu	sp,sp,-40
9d00d9a0:	afb10020 	sw	s1,32(sp)
9d00d9a4:	3c11a000 	lui	s1,0xa000
9d00d9a8:	8e22013c 	lw	v0,316(s1)
9d00d9ac:	afb0001c 	sw	s0,28(sp)
9d00d9b0:	afbf0024 	sw	ra,36(sp)
9d00d9b4:	1040000e 	beqz	v0,9d00d9f0 <__simple_malloc+0x54>
9d00d9b8:	00808025 	move	s0,a0
9d00d9bc:	0f403b8c 	jal	9d00ee30 <_get_heap_left_space>
9d00d9c0:	00000000 	nop
9d00d9c4:	27a40010 	addiu	a0,sp,16
9d00d9c8:	0f403c08 	jal	9d00f020 <__expand_heap>
9d00d9cc:	afa20010 	sw	v0,16(sp)
9d00d9d0:	2442000f 	addiu	v0,v0,15
9d00d9d4:	8fa50010 	lw	a1,16(sp)
9d00d9d8:	7c021804 	ins	v0,zero,0x0,0x4
9d00d9dc:	0f403cdd 	jal	9d00f374 <__init_search_fl>
9d00d9e0:	00402025 	move	a0,v0
9d00d9e4:	1040000c 	beqz	v0,9d00da18 <__simple_malloc+0x7c>
9d00d9e8:	8fbf0024 	lw	ra,36(sp)
9d00d9ec:	ae20013c 	sw	zero,316(s1)
9d00d9f0:	52000001 	beqzl	s0,9d00d9f8 <__simple_malloc+0x5c>
9d00d9f4:	24100001 	li	s0,1
9d00d9f8:	2610000f 	addiu	s0,s0,15
9d00d9fc:	7c101804 	ins	s0,zero,0x0,0x4
9d00da00:	16000009 	bnez	s0,9d00da28 <__simple_malloc+0x8c>
9d00da04:	3c02a000 	lui	v0,0xa000
9d00da08:	2403000c 	li	v1,12
9d00da0c:	ac430168 	sw	v1,360(v0)
9d00da10:	00001025 	move	v0,zero
9d00da14:	8fbf0024 	lw	ra,36(sp)
9d00da18:	8fb10020 	lw	s1,32(sp)
9d00da1c:	8fb0001c 	lw	s0,28(sp)
9d00da20:	03e00008 	jr	ra
9d00da24:	27bd0028 	addiu	sp,sp,40
9d00da28:	2e020004 	sltiu	v0,s0,4
9d00da2c:	24030004 	li	v1,4
9d00da30:	0062800b 	movn	s0,v1,v0
9d00da34:	0f403579 	jal	9d00d5e4 <__simple_search_fl>
9d00da38:	02002025 	move	a0,s0
9d00da3c:	5440fff5 	bnezl	v0,9d00da14 <__simple_malloc+0x78>
9d00da40:	ac50fffc 	sw	s0,-4(v0)
9d00da44:	1000fff4 	b	9d00da18 <__simple_malloc+0x7c>
9d00da48:	8fbf0024 	lw	ra,36(sp)

Disassembly of section .text._sbrk:

9d00da4c <_sbrk>:
9d00da4c:	27bdffe0 	addiu	sp,sp,-32
9d00da50:	afb00014 	sw	s0,20(sp)
9d00da54:	3c10a000 	lui	s0,0xa000
9d00da58:	8e020158 	lw	v0,344(s0)
9d00da5c:	afb10018 	sw	s1,24(sp)
9d00da60:	afbf001c 	sw	ra,28(sp)
9d00da64:	1440000f 	bnez	v0,9d00daa4 <_sbrk+0x58>
9d00da68:	00808825 	move	s1,a0
9d00da6c:	0f4030cc 	jal	9d00c330 <_sbrk_init>
9d00da70:	00000000 	nop
9d00da74:	8e020158 	lw	v0,344(s0)
9d00da78:	1440000b 	bnez	v0,9d00daa8 <_sbrk+0x5c>
9d00da7c:	00000000 	nop
9d00da80:	3c02a000 	lui	v0,0xa000
9d00da84:	2403000c 	li	v1,12
9d00da88:	ac430168 	sw	v1,360(v0)
9d00da8c:	2402ffff 	li	v0,-1
9d00da90:	8fbf001c 	lw	ra,28(sp)
9d00da94:	8fb10018 	lw	s1,24(sp)
9d00da98:	8fb00014 	lw	s0,20(sp)
9d00da9c:	03e00008 	jr	ra
9d00daa0:	27bd0020 	addiu	sp,sp,32
9d00daa4:	8e020158 	lw	v0,344(s0)
9d00daa8:	1a20000a 	blez	s1,9d00dad4 <_sbrk+0x88>
9d00daac:	00511821 	addu	v1,v0,s1
9d00dab0:	0062202b 	sltu	a0,v1,v0
9d00dab4:	1480fff2 	bnez	a0,9d00da80 <_sbrk+0x34>
9d00dab8:	3c04a000 	lui	a0,0xa000
9d00dabc:	8c84015c 	lw	a0,348(a0)
9d00dac0:	0083202b 	sltu	a0,a0,v1
9d00dac4:	5480ffef 	bnezl	a0,9d00da84 <_sbrk+0x38>
9d00dac8:	3c02a000 	lui	v0,0xa000
9d00dacc:	1000fff0 	b	9d00da90 <_sbrk+0x44>
9d00dad0:	ae030158 	sw	v1,344(s0)
9d00dad4:	0043202b 	sltu	a0,v0,v1
9d00dad8:	14800005 	bnez	a0,9d00daf0 <_sbrk+0xa4>
9d00dadc:	3c04a000 	lui	a0,0xa000
9d00dae0:	8c840160 	lw	a0,352(a0)
9d00dae4:	0064202b 	sltu	a0,v1,a0
9d00dae8:	5080ffe9 	beqzl	a0,9d00da90 <_sbrk+0x44>
9d00daec:	ae030158 	sw	v1,344(s0)
9d00daf0:	3c02a000 	lui	v0,0xa000
9d00daf4:	1000ffe4 	b	9d00da88 <_sbrk+0x3c>
9d00daf8:	24030016 	li	v1,22

Disassembly of section .text.fptodp:

9d00dafc <__extendsfdf2>:
9d00dafc:	00043dc2 30e700ff 3c018000 00813024     .=.....0...<$0..
9d00db0c:	24e9ffff 2d2100fe 1020000d 00000000     ...$..!-.. .....

9d00db1c <Glab1>:
9d00db1c:	24e70380 	addiu	a3,a3,896
9d00db20:	00044a40 	sll	t1,a0,0x9
9d00db24:	00094b02 	srl	t1,t1,0xc
9d00db28:	00c93025 	or	a2,a2,t1
9d00db2c:	00042f40 	sll	a1,a0,0x1d

9d00db30 <Gret>:
9d00db30:	00074d00 	sll	t1,a3,0x14
9d00db34:	00c93025 	or	a2,a2,t1
9d00db38:	00051025 	or	v0,zero,a1
9d00db3c:	00061825 	or	v1,zero,a2

9d00db40 <G999>:
9d00db40:	03e00008 	jr	ra
9d00db44:	00000000 	nop
9d00db48:	00000000 	nop

9d00db4c <Gspec>:
9d00db4c:	24050000 	li	a1,0
9d00db50:	00842021 	addu	a0,a0,a0
9d00db54:	1080fff6 	beqz	a0,9d00db30 <Gret>
9d00db58:	00000000 	nop
9d00db5c:	14e00009 	bnez	a3,9d00db84 <i42>
9d00db60:	00000000 	nop

9d00db64 <b43>:
9d00db64:	24e7ffff 	addiu	a3,a3,-1
9d00db68:	00842021 	addu	a0,a0,a0
9d00db6c:	3c010080 	lui	at,0x80
9d00db70:	0081082b 	sltu	at,a0,at
9d00db74:	1420fffb 	bnez	at,9d00db64 <b43>
9d00db78:	00000000 	nop
9d00db7c:	1000ffe7 	b	9d00db1c <Glab1>
9d00db80:	00000000 	nop

9d00db84 <i42>:
9d00db84:	240707ff 	li	a3,2047
9d00db88:	3c01ff00 	lui	at,0xff00
9d00db8c:	34210001 	ori	at,at,0x1
9d00db90:	0081082b 	sltu	at,a0,at
9d00db94:	1420ffe6 	bnez	at,9d00db30 <Gret>
9d00db98:	00000000 	nop
9d00db9c:	1000ffe4 	b	9d00db30 <Gret>
9d00dba0:	3c06fff8 	lui	a2,0xfff8
9d00dba4:	00000000 	nop

Disassembly of section .text.__push_float:

9d00dba8 <__push_float>:
9d00dba8:	24020081 	li	v0,129
9d00dbac:	50a20012 	beql	a1,v0,9d00dbf8 <__push_float+0x50>
9d00dbb0:	8cc20000 	lw	v0,0(a2)
9d00dbb4:	24020083 	li	v0,131
9d00dbb8:	50a20006 	beql	a1,v0,9d00dbd4 <__push_float+0x2c>
9d00dbbc:	8cc20000 	lw	v0,0(a2)
9d00dbc0:	24020080 	li	v0,128
9d00dbc4:	10a20012 	beq	a1,v0,9d00dc10 <__push_float+0x68>
9d00dbc8:	00001025 	move	v0,zero
9d00dbcc:	03e00008 	jr	ra
9d00dbd0:	00000000 	nop
9d00dbd4:	24430004 	addiu	v1,v0,4
9d00dbd8:	acc30000 	sw	v1,0(a2)
9d00dbdc:	8c850004 	lw	a1,4(a0)
9d00dbe0:	8c420000 	lw	v0,0(v0)
9d00dbe4:	8c840000 	lw	a0,0(a0)
9d00dbe8:	ac440000 	sw	a0,0(v0)
9d00dbec:	ac450004 	sw	a1,4(v0)
9d00dbf0:	03e00008 	jr	ra
9d00dbf4:	24020001 	li	v0,1
9d00dbf8:	24430004 	addiu	v1,v0,4
9d00dbfc:	acc30000 	sw	v1,0(a2)
9d00dc00:	8c850004 	lw	a1,4(a0)
9d00dc04:	8c420000 	lw	v0,0(v0)
9d00dc08:	1000fff7 	b	9d00dbe8 <__push_float+0x40>
9d00dc0c:	8c840000 	lw	a0,0(a0)
9d00dc10:	8cc20000 	lw	v0,0(a2)
9d00dc14:	8c850004 	lw	a1,4(a0)
9d00dc18:	8c840000 	lw	a0,0(a0)
9d00dc1c:	24430004 	addiu	v1,v0,4
9d00dc20:	27bdffe8 	addiu	sp,sp,-24
9d00dc24:	acc30000 	sw	v1,0(a2)
9d00dc28:	afb00010 	sw	s0,16(sp)
9d00dc2c:	afbf0014 	sw	ra,20(sp)
9d00dc30:	0f40345a 	jal	9d00d168 <__truncdfsf2>
9d00dc34:	8c500000 	lw	s0,0(v0)
9d00dc38:	8fbf0014 	lw	ra,20(sp)
9d00dc3c:	ae020000 	sw	v0,0(s0)
9d00dc40:	24020001 	li	v0,1
9d00dc44:	8fb00010 	lw	s0,16(sp)
9d00dc48:	03e00008 	jr	ra
9d00dc4c:	27bd0018 	addiu	sp,sp,24

Disassembly of section .text.normalize:

9d00dc50 <normalize>:
9d00dc50:	27bdffe0 	addiu	sp,sp,-32
9d00dc54:	afb10018 	sw	s1,24(sp)
9d00dc58:	00078d02 	srl	s1,a3,0x14
9d00dc5c:	322507ff 	andi	a1,s1,0x7ff
9d00dc60:	afb00014 	sw	s0,20(sp)
9d00dc64:	afbf001c 	sw	ra,28(sp)
9d00dc68:	00808025 	move	s0,a0
9d00dc6c:	00c01025 	move	v0,a2
9d00dc70:	14a0000e 	bnez	a1,9d00dcac <normalize+0x5c>
9d00dc74:	00e02025 	move	a0,a3
9d00dc78:	3c029d00 	lui	v0,0x9d00
9d00dc7c:	00c04025 	move	t0,a2
9d00dc80:	00e01825 	move	v1,a3
9d00dc84:	8c467560 	lw	a2,30048(v0)
9d00dc88:	8c477564 	lw	a3,30052(v0)
9d00dc8c:	01002025 	move	a0,t0
9d00dc90:	0f402c42 	jal	9d00b108 <__muldf3>
9d00dc94:	00602825 	move	a1,v1
9d00dc98:	00602025 	move	a0,v1
9d00dc9c:	7c635500 	ext	v1,v1,0x14,0xb
9d00dca0:	10600002 	beqz	v1,9d00dcac <normalize+0x5c>
9d00dca4:	24050800 	li	a1,2048
9d00dca8:	2465ffc1 	addiu	a1,v1,-63
9d00dcac:	000237c2 	srl	a2,v0,0x1f
9d00dcb0:	00041840 	sll	v1,a0,0x1
9d00dcb4:	00021040 	sll	v0,v0,0x1
9d00dcb8:	00c31825 	or	v1,a2,v1
9d00dcbc:	8fbf001c 	lw	ra,28(sp)
9d00dcc0:	ae020000 	sw	v0,0(s0)
9d00dcc4:	7c63a000 	ext	v1,v1,0x0,0x15
9d00dcc8:	3c020020 	lui	v0,0x20
9d00dccc:	00431825 	or	v1,v0,v1
9d00dcd0:	32310800 	andi	s1,s1,0x800
9d00dcd4:	24a5fbcc 	addiu	a1,a1,-1076
9d00dcd8:	ae11000c 	sw	s1,12(s0)
9d00dcdc:	02001025 	move	v0,s0
9d00dce0:	ae030004 	sw	v1,4(s0)
9d00dce4:	ae050008 	sw	a1,8(s0)
9d00dce8:	8fb10018 	lw	s1,24(sp)
9d00dcec:	8fb00014 	lw	s0,20(sp)
9d00dcf0:	03e00008 	jr	ra
9d00dcf4:	27bd0020 	addiu	sp,sp,32

Disassembly of section .text.__fmt_s:

9d00dcf8 <__fmt_s>:
9d00dcf8:	3c036c75 	lui	v1,0x6c75
9d00dcfc:	27bdffc8 	addiu	sp,sp,-56
9d00dd00:	24636e28 	addiu	v1,v1,28200
9d00dd04:	afa30018 	sw	v1,24(sp)
9d00dd08:	2403296c 	li	v1,10604
9d00dd0c:	afb20028 	sw	s2,40(sp)
9d00dd10:	afb00020 	sw	s0,32(sp)
9d00dd14:	afbf0034 	sw	ra,52(sp)
9d00dd18:	afb40030 	sw	s4,48(sp)
9d00dd1c:	afb3002c 	sw	s3,44(sp)
9d00dd20:	afb10024 	sw	s1,36(sp)
9d00dd24:	00809025 	move	s2,a0
9d00dd28:	00e01025 	move	v0,a3
9d00dd2c:	a7a3001c 	sh	v1,28(sp)
9d00dd30:	a3a0001e 	sb	zero,30(sp)
9d00dd34:	10c00002 	beqz	a2,9d00dd40 <__fmt_s+0x48>
9d00dd38:	27b00018 	addiu	s0,sp,24
9d00dd3c:	00c08025 	move	s0,a2
9d00dd40:	8cb10004 	lw	s1,4(a1)
9d00dd44:	8cb30008 	lw	s3,8(a1)
9d00dd48:	14400003 	bnez	v0,9d00dd58 <__fmt_s+0x60>
9d00dd4c:	8cb40000 	lw	s4,0(a1)
9d00dd50:	0f403c32 	jal	9d00f0c8 <strlen>
9d00dd54:	02002025 	move	a0,s0
9d00dd58:	06200002 	bltz	s1,9d00dd64 <__fmt_s+0x6c>
9d00dd5c:	0222182b 	sltu	v1,s1,v0
9d00dd60:	0223100b 	movn	v0,s1,v1
9d00dd64:	afb40010 	sw	s4,16(sp)
9d00dd68:	02603825 	move	a3,s3
9d00dd6c:	02002825 	move	a1,s0
9d00dd70:	02402025 	move	a0,s2
9d00dd74:	0f40341a 	jal	9d00d068 <__pad>
9d00dd78:	00403025 	move	a2,v0
9d00dd7c:	8fbf0034 	lw	ra,52(sp)
9d00dd80:	8fb40030 	lw	s4,48(sp)
9d00dd84:	8fb3002c 	lw	s3,44(sp)
9d00dd88:	8fb20028 	lw	s2,40(sp)
9d00dd8c:	8fb10024 	lw	s1,36(sp)
9d00dd90:	8fb00020 	lw	s0,32(sp)
9d00dd94:	03e00008 	jr	ra
9d00dd98:	27bd0038 	addiu	sp,sp,56

Disassembly of section .text.__skipws:

9d00dd9c <__skipws>:
9d00dd9c:	27bdffe0 	addiu	sp,sp,-32
9d00dda0:	afb10018 	sw	s1,24(sp)
9d00dda4:	afb00014 	sw	s0,20(sp)
9d00dda8:	afbf001c 	sw	ra,28(sp)
9d00ddac:	00808025 	move	s0,a0
9d00ddb0:	00008825 	move	s1,zero
9d00ddb4:	8e02003c 	lw	v0,60(s0)
9d00ddb8:	8e03004c 	lw	v1,76(s0)
9d00ddbc:	0043182b 	sltu	v1,v0,v1
9d00ddc0:	10600017 	beqz	v1,9d00de20 <__skipws+0x84>
9d00ddc4:	24430001 	addiu	v1,v0,1
9d00ddc8:	ae03003c 	sw	v1,60(s0)
9d00ddcc:	90420000 	lbu	v0,0(v0)
9d00ddd0:	24030020 	li	v1,32
9d00ddd4:	10430010 	beq	v0,v1,9d00de18 <__skipws+0x7c>
9d00ddd8:	2442fff7 	addiu	v0,v0,-9
9d00dddc:	2c420005 	sltiu	v0,v0,5
9d00dde0:	5440fff4 	bnezl	v0,9d00ddb4 <__skipws+0x18>
9d00dde4:	26310001 	addiu	s1,s1,1
9d00dde8:	8e02004c 	lw	v0,76(s0)
9d00ddec:	10400005 	beqz	v0,9d00de04 <__skipws+0x68>
9d00ddf0:	8fbf001c 	lw	ra,28(sp)
9d00ddf4:	8e02003c 	lw	v0,60(s0)
9d00ddf8:	2442ffff 	addiu	v0,v0,-1
9d00ddfc:	ae02003c 	sw	v0,60(s0)
9d00de00:	8fbf001c 	lw	ra,28(sp)
9d00de04:	02201025 	move	v0,s1
9d00de08:	8fb00014 	lw	s0,20(sp)
9d00de0c:	8fb10018 	lw	s1,24(sp)
9d00de10:	03e00008 	jr	ra
9d00de14:	27bd0020 	addiu	sp,sp,32
9d00de18:	1000ffe6 	b	9d00ddb4 <__skipws+0x18>
9d00de1c:	26310001 	addiu	s1,s1,1
9d00de20:	0f40363a 	jal	9d00d8e8 <__shgetc>
9d00de24:	02002025 	move	a0,s0
9d00de28:	2403ffff 	li	v1,-1
9d00de2c:	1443ffe8 	bne	v0,v1,9d00ddd0 <__skipws+0x34>
9d00de30:	8fbf001c 	lw	ra,28(sp)
9d00de34:	1000fff4 	b	9d00de08 <__skipws+0x6c>
9d00de38:	02201025 	move	v0,s1

Disassembly of section .text.__string_read:

9d00de3c <__string_read>:
9d00de3c:	27bdffd0 	addiu	sp,sp,-48
9d00de40:	afb00014 	sw	s0,20(sp)
9d00de44:	8c900038 	lw	s0,56(a0)
9d00de48:	afb2001c 	sw	s2,28(sp)
9d00de4c:	24d20100 	addiu	s2,a2,256
9d00de50:	afb50028 	sw	s5,40(sp)
9d00de54:	afb40024 	sw	s4,36(sp)
9d00de58:	afb30020 	sw	s3,32(sp)
9d00de5c:	00a0a825 	move	s5,a1
9d00de60:	00809825 	move	s3,a0
9d00de64:	00c0a025 	move	s4,a2
9d00de68:	00002825 	move	a1,zero
9d00de6c:	02403025 	move	a2,s2
9d00de70:	02002025 	move	a0,s0
9d00de74:	afbf002c 	sw	ra,44(sp)
9d00de78:	0f403bad 	jal	9d00eeb4 <memchr>
9d00de7c:	afb10018 	sw	s1,24(sp)
9d00de80:	54400001 	bnezl	v0,9d00de88 <__string_read+0x4c>
9d00de84:	00509023 	subu	s2,v0,s0
9d00de88:	0292882b 	sltu	s1,s4,s2
9d00de8c:	0251a00a 	movz	s4,s2,s1
9d00de90:	02803025 	move	a2,s4
9d00de94:	02002825 	move	a1,s0
9d00de98:	0f403c8b 	jal	9d00f22c <memcpy>
9d00de9c:	02a02025 	move	a0,s5
9d00dea0:	8fbf002c 	lw	ra,44(sp)
9d00dea4:	02141021 	addu	v0,s0,s4
9d00dea8:	02128021 	addu	s0,s0,s2
9d00deac:	ae62003c 	sw	v0,60(s3)
9d00deb0:	ae700040 	sw	s0,64(s3)
9d00deb4:	ae700038 	sw	s0,56(s3)
9d00deb8:	02801025 	move	v0,s4
9d00debc:	8fb50028 	lw	s5,40(sp)
9d00dec0:	8fb40024 	lw	s4,36(sp)
9d00dec4:	8fb30020 	lw	s3,32(sp)
9d00dec8:	8fb2001c 	lw	s2,28(sp)
9d00decc:	8fb10018 	lw	s1,24(sp)
9d00ded0:	8fb00014 	lw	s0,20(sp)
9d00ded4:	03e00008 	jr	ra
9d00ded8:	27bd0030 	addiu	sp,sp,48

Disassembly of section .text.__stdio_close:

9d00dedc <__stdio_close>:
9d00dedc:	14800003 	bnez	a0,9d00deec <__stdio_close+0x10>
9d00dee0:	00001025 	move	v0,zero
9d00dee4:	03e00008 	jr	ra
9d00dee8:	00000000 	nop
9d00deec:	8c820004 	lw	v0,4(a0)
9d00def0:	27bdffe0 	addiu	sp,sp,-32
9d00def4:	afb10018 	sw	s1,24(sp)
9d00def8:	30420020 	andi	v0,v0,0x20
9d00defc:	afb00014 	sw	s0,20(sp)
9d00df00:	afbf001c 	sw	ra,28(sp)
9d00df04:	00808025 	move	s0,a0
9d00df08:	1440000b 	bnez	v0,9d00df38 <__stdio_close+0x5c>
9d00df0c:	00a08825 	move	s1,a1
9d00df10:	ae000028 	sw	zero,40(s0)
9d00df14:	ae000018 	sw	zero,24(s0)
9d00df18:	16200014 	bnez	s1,9d00df6c <__stdio_close+0x90>
9d00df1c:	ae000014 	sw	zero,20(s0)
9d00df20:	00001025 	move	v0,zero
9d00df24:	8fbf001c 	lw	ra,28(sp)
9d00df28:	8fb10018 	lw	s1,24(sp)
9d00df2c:	8fb00014 	lw	s0,20(sp)
9d00df30:	03e00008 	jr	ra
9d00df34:	27bd0020 	addiu	sp,sp,32
9d00df38:	8c820014 	lw	v0,20(a0)
9d00df3c:	8c830018 	lw	v1,24(a0)
9d00df40:	0062102b 	sltu	v0,v1,v0
9d00df44:	1040fff2 	beqz	v0,9d00df10 <__stdio_close+0x34>
9d00df48:	00003025 	move	a2,zero
9d00df4c:	8c82002c 	lw	v0,44(a0)
9d00df50:	0040f809 	jalr	v0
9d00df54:	00002825 	move	a1,zero
9d00df58:	8e030014 	lw	v1,20(s0)
9d00df5c:	1060fff1 	beqz	v1,9d00df24 <__stdio_close+0x48>
9d00df60:	2402ffff 	li	v0,-1
9d00df64:	1000ffeb 	b	9d00df14 <__stdio_close+0x38>
9d00df68:	ae000028 	sw	zero,40(s0)
9d00df6c:	0f403d9f 	jal	9d00f67c <close>
9d00df70:	8e040000 	lw	a0,0(s0)
9d00df74:	1000ffec 	b	9d00df28 <__stdio_close+0x4c>
9d00df78:	8fbf001c 	lw	ra,28(sp)

Disassembly of section .text.__toread:

9d00df7c <__toread>:
9d00df7c:	27bdffe8 	addiu	sp,sp,-24
9d00df80:	afb00010 	sw	s0,16(sp)
9d00df84:	afbf0014 	sw	ra,20(sp)
9d00df88:	80820048 	lb	v0,72(a0)
9d00df8c:	2443ffff 	addiu	v1,v0,-1
9d00df90:	00431025 	or	v0,v0,v1
9d00df94:	a0820048 	sb	v0,72(a0)
9d00df98:	8c830018 	lw	v1,24(a0)
9d00df9c:	8c820014 	lw	v0,20(a0)
9d00dfa0:	0062102b 	sltu	v0,v1,v0
9d00dfa4:	10400005 	beqz	v0,9d00dfbc <__toread+0x40>
9d00dfa8:	00808025 	move	s0,a0
9d00dfac:	8c82002c 	lw	v0,44(a0)
9d00dfb0:	00003025 	move	a2,zero
9d00dfb4:	0040f809 	jalr	v0
9d00dfb8:	00002825 	move	a1,zero
9d00dfbc:	8e020004 	lw	v0,4(s0)
9d00dfc0:	ae000028 	sw	zero,40(s0)
9d00dfc4:	ae000018 	sw	zero,24(s0)
9d00dfc8:	30430002 	andi	v1,v0,0x2
9d00dfcc:	10600008 	beqz	v1,9d00dff0 <__toread+0x74>
9d00dfd0:	ae000014 	sw	zero,20(s0)
9d00dfd4:	34420010 	ori	v0,v0,0x10
9d00dfd8:	ae020004 	sw	v0,4(s0)
9d00dfdc:	2402ffff 	li	v0,-1
9d00dfe0:	8fbf0014 	lw	ra,20(sp)
9d00dfe4:	8fb00010 	lw	s0,16(sp)
9d00dfe8:	03e00008 	jr	ra
9d00dfec:	27bd0018 	addiu	sp,sp,24
9d00dff0:	8e030008 	lw	v1,8(s0)
9d00dff4:	8e04000c 	lw	a0,12(s0)
9d00dff8:	7c4200c0 	ext	v0,v0,0x3,0x1
9d00dffc:	00021023 	negu	v0,v0
9d00e000:	00641821 	addu	v1,v1,a0
9d00e004:	ae030040 	sw	v1,64(s0)
9d00e008:	1000fff5 	b	9d00dfe0 <__toread+0x64>
9d00e00c:	ae03003c 	sw	v1,60(s0)

Disassembly of section .text.__stdio_seek:

9d00e010 <__stdio_seek>:
9d00e010:	8c820004 	lw	v0,4(a0)
9d00e014:	27bdffe0 	addiu	sp,sp,-32
9d00e018:	afb20018 	sw	s2,24(sp)
9d00e01c:	30420020 	andi	v0,v0,0x20
9d00e020:	afb10014 	sw	s1,20(sp)
9d00e024:	afb00010 	sw	s0,16(sp)
9d00e028:	afbf001c 	sw	ra,28(sp)
9d00e02c:	00808025 	move	s0,a0
9d00e030:	00a08825 	move	s1,a1
9d00e034:	10400009 	beqz	v0,9d00e05c <__stdio_seek+0x4c>
9d00e038:	00c09025 	move	s2,a2
9d00e03c:	8c820014 	lw	v0,20(a0)
9d00e040:	8c830018 	lw	v1,24(a0)
9d00e044:	0062102b 	sltu	v0,v1,v0
9d00e048:	5440000a 	bnezl	v0,9d00e074 <__stdio_seek+0x64>
9d00e04c:	8c82002c 	lw	v0,44(a0)
9d00e050:	ae000028 	sw	zero,40(s0)
9d00e054:	ae000018 	sw	zero,24(s0)
9d00e058:	ae000014 	sw	zero,20(s0)
9d00e05c:	02403025 	move	a2,s2
9d00e060:	02202825 	move	a1,s1
9d00e064:	0f403b47 	jal	9d00ed1c <__stdio_seek_unbuffered>
9d00e068:	02002025 	move	a0,s0
9d00e06c:	10000008 	b	9d00e090 <__stdio_seek+0x80>
9d00e070:	8fbf001c 	lw	ra,28(sp)
9d00e074:	00003025 	move	a2,zero
9d00e078:	0040f809 	jalr	v0
9d00e07c:	00002825 	move	a1,zero
9d00e080:	8e030014 	lw	v1,20(s0)
9d00e084:	1460fff2 	bnez	v1,9d00e050 <__stdio_seek+0x40>
9d00e088:	2402ffff 	li	v0,-1
9d00e08c:	8fbf001c 	lw	ra,28(sp)
9d00e090:	8fb20018 	lw	s2,24(sp)
9d00e094:	8fb10014 	lw	s1,20(sp)
9d00e098:	8fb00010 	lw	s0,16(sp)
9d00e09c:	03e00008 	jr	ra
9d00e0a0:	27bd0020 	addiu	sp,sp,32

Disassembly of section .text.__overflow:

9d00e0a4 <__overflow>:
9d00e0a4:	8c820028 	lw	v0,40(a0)
9d00e0a8:	27bdffe0 	addiu	sp,sp,-32
9d00e0ac:	afb00018 	sw	s0,24(sp)
9d00e0b0:	afbf001c 	sw	ra,28(sp)
9d00e0b4:	00808025 	move	s0,a0
9d00e0b8:	10400010 	beqz	v0,9d00e0fc <__overflow+0x58>
9d00e0bc:	a3a50010 	sb	a1,16(sp)
9d00e0c0:	8e030014 	lw	v1,20(s0)
9d00e0c4:	8e020028 	lw	v0,40(s0)
9d00e0c8:	0062102b 	sltu	v0,v1,v0
9d00e0cc:	14400014 	bnez	v0,9d00e120 <__overflow+0x7c>
9d00e0d0:	93a20010 	lbu	v0,16(sp)
9d00e0d4:	8e02002c 	lw	v0,44(s0)
9d00e0d8:	24060001 	li	a2,1
9d00e0dc:	27a50010 	addiu	a1,sp,16
9d00e0e0:	0040f809 	jalr	v0
9d00e0e4:	02002025 	move	a0,s0
9d00e0e8:	24030001 	li	v1,1
9d00e0ec:	14430007 	bne	v0,v1,9d00e10c <__overflow+0x68>
9d00e0f0:	93a20010 	lbu	v0,16(sp)
9d00e0f4:	10000007 	b	9d00e114 <__overflow+0x70>
9d00e0f8:	8fbf001c 	lw	ra,28(sp)
9d00e0fc:	0f403b7b 	jal	9d00edec <__towrite>
9d00e100:	00000000 	nop
9d00e104:	5040ffef 	beqzl	v0,9d00e0c4 <__overflow+0x20>
9d00e108:	8e030014 	lw	v1,20(s0)
9d00e10c:	2402ffff 	li	v0,-1
9d00e110:	8fbf001c 	lw	ra,28(sp)
9d00e114:	8fb00018 	lw	s0,24(sp)
9d00e118:	03e00008 	jr	ra
9d00e11c:	27bd0020 	addiu	sp,sp,32
9d00e120:	82040034 	lb	a0,52(s0)
9d00e124:	1044ffeb 	beq	v0,a0,9d00e0d4 <__overflow+0x30>
9d00e128:	24640001 	addiu	a0,v1,1
9d00e12c:	ae040014 	sw	a0,20(s0)
9d00e130:	1000fff7 	b	9d00e110 <__overflow+0x6c>
9d00e134:	a0620000 	sb	v0,0(v1)

Disassembly of section .text.__out:

9d00e138 <__out>:
9d00e138:	8c820004 	lw	v0,4(a0)
9d00e13c:	27bdffe0 	addiu	sp,sp,-32
9d00e140:	afbf001c 	sw	ra,28(sp)
9d00e144:	30470100 	andi	a3,v0,0x100
9d00e148:	afb10018 	sw	s1,24(sp)
9d00e14c:	10e00017 	beqz	a3,9d00e1ac <__out+0x74>
9d00e150:	afb00014 	sw	s0,20(sp)
9d00e154:	8c820010 	lw	v0,16(a0)
9d00e158:	00c01825 	move	v1,a2
9d00e15c:	00c2882b 	sltu	s1,a2,v0
9d00e160:	0051180a 	movz	v1,v0,s1
9d00e164:	1060000c 	beqz	v1,9d00e198 <__out+0x60>
9d00e168:	00608825 	move	s1,v1
9d00e16c:	00808025 	move	s0,a0
9d00e170:	8c840014 	lw	a0,20(a0)
9d00e174:	0f403c8b 	jal	9d00f22c <memcpy>
9d00e178:	00603025 	move	a2,v1
9d00e17c:	8e020014 	lw	v0,20(s0)
9d00e180:	8e030010 	lw	v1,16(s0)
9d00e184:	00511021 	addu	v0,v0,s1
9d00e188:	00718823 	subu	s1,v1,s1
9d00e18c:	ae020014 	sw	v0,20(s0)
9d00e190:	ae110010 	sw	s1,16(s0)
9d00e194:	a0400000 	sb	zero,0(v0)
9d00e198:	8fbf001c 	lw	ra,28(sp)
9d00e19c:	8fb10018 	lw	s1,24(sp)
9d00e1a0:	8fb00014 	lw	s0,20(sp)
9d00e1a4:	03e00008 	jr	ra
9d00e1a8:	27bd0020 	addiu	sp,sp,32
9d00e1ac:	30420010 	andi	v0,v0,0x10
9d00e1b0:	5440fffa 	bnezl	v0,9d00e19c <__out+0x64>
9d00e1b4:	8fbf001c 	lw	ra,28(sp)
9d00e1b8:	0f403c25 	jal	9d00f094 <__fwrite>
9d00e1bc:	00000000 	nop
9d00e1c0:	1000fff6 	b	9d00e19c <__out+0x64>
9d00e1c4:	8fbf001c 	lw	ra,28(sp)

Disassembly of section .text.dptoli:

9d00e1c8 <__fixdfsi>:
9d00e1c8:	00053ac0 00045542 00ea3825 3c018000     .:..BU..%8.....<
9d00e1d8:	00e13825 00055040 000a5542 2406041e     %8..@P..BU.....$
9d00e1e8:	00ca3023 18c0000c 00000000 2cc10020     #0.......... ..,
9d00e1f8:	14200002 00000000 34070000              .. ........4

9d00e204 <L42>:
9d00e204:	04a10002 	bgez	a1,9d00e210 <i50>
9d00e208:	00c73806 	srlv	a3,a3,a2
9d00e20c:	00073823 	negu	a3,a3

9d00e210 <i50>:
9d00e210:	00071025 	or	v0,zero,a3

9d00e214 <I999>:
9d00e214:	03e00008 	jr	ra
9d00e218:	00000000 	nop
9d00e21c:	00000000 	nop

9d00e220 <Inaninf>:
9d00e220:	10800002 	beqz	a0,9d00e22c <i51>
9d00e224:	00000000 	nop
9d00e228:	34a50001 	ori	a1,a1,0x1

9d00e22c <i51>:
9d00e22c:	3c017ff0 	lui	at,0x7ff0
9d00e230:	34210001 	ori	at,at,0x1
9d00e234:	00a1082b 	sltu	at,a1,at
9d00e238:	14200003 	bnez	at,9d00e248 <i52>
9d00e23c:	00000000 	nop
9d00e240:	1000fff4 	b	9d00e214 <I999>
9d00e244:	3c028000 	lui	v0,0x8000

9d00e248 <i52>:
9d00e248:	3c027fff 	lui	v0,0x7fff
9d00e24c:	1000fff1 	b	9d00e214 <I999>
9d00e250:	3442ffff 	ori	v0,v0,0xffff
9d00e254:	00000000 	nop

Disassembly of section .text.__fopen_rw:

9d00e258 <__fopen_rw>:
9d00e258:	27bdffe8 	addiu	sp,sp,-24
9d00e25c:	afb00010 	sw	s0,16(sp)
9d00e260:	afbf0014 	sw	ra,20(sp)
9d00e264:	0f403667 	jal	9d00d99c <__simple_malloc>
9d00e268:	24040468 	li	a0,1128
9d00e26c:	10400017 	beqz	v0,9d00e2cc <__fopen_rw+0x74>
9d00e270:	00408025 	move	s0,v0
9d00e274:	24060060 	li	a2,96
9d00e278:	00002825 	move	a1,zero
9d00e27c:	0f403cbf 	jal	9d00f2fc <memset>
9d00e280:	00402025 	move	a0,v0
9d00e284:	3c029d01 	lui	v0,0x9d01
9d00e288:	2442f3e4 	addiu	v0,v0,-3100
9d00e28c:	ae02002c 	sw	v0,44(s0)
9d00e290:	3c029d01 	lui	v0,0x9d01
9d00e294:	2442d6ac 	addiu	v0,v0,-10580
9d00e298:	ae020030 	sw	v0,48(s0)
9d00e29c:	3c029d01 	lui	v0,0x9d01
9d00e2a0:	2442d770 	addiu	v0,v0,-10384
9d00e2a4:	ae02001c 	sw	v0,28(s0)
9d00e2a8:	3c029d01 	lui	v0,0x9d01
9d00e2ac:	2442d518 	addiu	v0,v0,-10984
9d00e2b0:	ae020044 	sw	v0,68(s0)
9d00e2b4:	2402ffff 	li	v0,-1
9d00e2b8:	a2020034 	sb	v0,52(s0)
9d00e2bc:	26020068 	addiu	v0,s0,104
9d00e2c0:	ae020008 	sw	v0,8(s0)
9d00e2c4:	24020400 	li	v0,1024
9d00e2c8:	ae02000c 	sw	v0,12(s0)
9d00e2cc:	8fbf0014 	lw	ra,20(sp)
9d00e2d0:	02001025 	move	v0,s0
9d00e2d4:	8fb00010 	lw	s0,16(sp)
9d00e2d8:	03e00008 	jr	ra
9d00e2dc:	27bd0018 	addiu	sp,sp,24

Disassembly of section .text.write:

9d00e2e0 <write>:
9d00e2e0:	27bdffe0 	addiu	sp,sp,-32
9d00e2e4:	afb10014 	sw	s1,20(sp)
9d00e2e8:	afbf001c 	sw	ra,28(sp)
9d00e2ec:	afb20018 	sw	s2,24(sp)
9d00e2f0:	afb00010 	sw	s0,16(sp)
9d00e2f4:	10a0000d 	beqz	a1,9d00e32c <write+0x4c>
9d00e2f8:	00008825 	move	s1,zero
9d00e2fc:	50c0000c 	beqzl	a2,9d00e330 <write+0x50>
9d00e300:	8fbf001c 	lw	ra,28(sp)
9d00e304:	2c840003 	sltiu	a0,a0,3
9d00e308:	10800008 	beqz	a0,9d00e32c <write+0x4c>
9d00e30c:	00c08825 	move	s1,a2
9d00e310:	3c020000 	lui	v0,0x0
9d00e314:	24420000 	addiu	v0,v0,0
9d00e318:	1040000b 	beqz	v0,9d00e348 <write+0x68>
9d00e31c:	00a08025 	move	s0,a1
9d00e320:	00c02825 	move	a1,a2
9d00e324:	0c000000 	jal	90000000 <_bmxdudba_address+0x8fff0000>
9d00e328:	02002025 	move	a0,s0
9d00e32c:	8fbf001c 	lw	ra,28(sp)
9d00e330:	02201025 	move	v0,s1
9d00e334:	8fb20018 	lw	s2,24(sp)
9d00e338:	8fb10014 	lw	s1,20(sp)
9d00e33c:	8fb00010 	lw	s0,16(sp)
9d00e340:	03e00008 	jr	ra
9d00e344:	27bd0020 	addiu	sp,sp,32
9d00e348:	00a69021 	addu	s2,a1,a2
9d00e34c:	82040000 	lb	a0,0(s0)
9d00e350:	0f40334a 	jal	9d00cd28 <_mon_putc>
9d00e354:	26100001 	addiu	s0,s0,1
9d00e358:	1650fffc 	bne	s2,s0,9d00e34c <write+0x6c>
9d00e35c:	8fbf001c 	lw	ra,28(sp)
9d00e360:	1000fff4 	b	9d00e334 <write+0x54>
9d00e364:	02201025 	move	v0,s1

Disassembly of section .text.__vsnprintf:

9d00e368 <__vsnprintf>:
9d00e368:	27bdffc8 	addiu	sp,sp,-56
9d00e36c:	2403ffff 	li	v1,-1
9d00e370:	afa30010 	sw	v1,16(sp)
9d00e374:	24030102 	li	v1,258
9d00e378:	00a01025 	move	v0,a1
9d00e37c:	afbf0034 	sw	ra,52(sp)
9d00e380:	00c02825 	move	a1,a2
9d00e384:	afa30014 	sw	v1,20(sp)
9d00e388:	14800002 	bnez	a0,9d00e394 <__vsnprintf+0x2c>
9d00e38c:	00e03025 	move	a2,a3
9d00e390:	27a4002c 	addiu	a0,sp,44
9d00e394:	afa40018 	sw	a0,24(sp)
9d00e398:	afa2001c 	sw	v0,28(sp)
9d00e39c:	10400002 	beqz	v0,9d00e3a8 <__vsnprintf+0x40>
9d00e3a0:	00001825 	move	v1,zero
9d00e3a4:	2443ffff 	addiu	v1,v0,-1
9d00e3a8:	04410008 	bgez	v0,9d00e3cc <__vsnprintf+0x64>
9d00e3ac:	afa30020 	sw	v1,32(sp)
9d00e3b0:	3c02a000 	lui	v0,0xa000
9d00e3b4:	2403004f 	li	v1,79
9d00e3b8:	ac430168 	sw	v1,360(v0)
9d00e3bc:	2402ffff 	li	v0,-1
9d00e3c0:	8fbf0034 	lw	ra,52(sp)
9d00e3c4:	03e00008 	jr	ra
9d00e3c8:	27bd0038 	addiu	sp,sp,56
9d00e3cc:	afa40028 	sw	a0,40(sp)
9d00e3d0:	afa40024 	sw	a0,36(sp)
9d00e3d4:	a0800000 	sb	zero,0(a0)
9d00e3d8:	0f403bdb 	jal	9d00ef6c <__vfprintf>
9d00e3dc:	27a40010 	addiu	a0,sp,16
9d00e3e0:	1000fff8 	b	9d00e3c4 <__vsnprintf+0x5c>
9d00e3e4:	8fbf0034 	lw	ra,52(sp)

Disassembly of section .text:

9d00e3e8 <__dinit_copy_emb>:
9d00e3e8:	03e00008 	jr	ra
9d00e3ec:	00000000 	nop

9d00e3f0 <__pic32_data_init>:
9d00e3f0:	03e01825 	move	v1,ra

9d00e3f4 <_dinit_init>:
9d00e3f4:	3c049d01 	lui	a0,0x9d01
9d00e3f8:	2484c5d4 	addiu	a0,a0,-14892
9d00e3fc:	10800016 	beqz	a0,9d00e458 <_dinit_init+0x64>
9d00e400:	00000000 	nop
9d00e404:	8c850000 	lw	a1,0(a0)
9d00e408:	10a00013 	beqz	a1,9d00e458 <_dinit_init+0x64>
9d00e40c:	24840004 	addiu	a0,a0,4
9d00e410:	8c860000 	lw	a2,0(a0)
9d00e414:	24840004 	addiu	a0,a0,4
9d00e418:	848b0000 	lh	t3,0(a0)
9d00e41c:	24840004 	addiu	a0,a0,4
9d00e420:	3c0c9d01 	lui	t4,0x9d01
9d00e424:	258cf5d8 	addiu	t4,t4,-2600
9d00e428:	000b5880 	sll	t3,t3,0x2
9d00e42c:	016c6021 	addu	t4,t3,t4
9d00e430:	8d8c0000 	lw	t4,0(t4)
9d00e434:	0180f809 	jalr	t4
9d00e438:	00000000 	nop
9d00e43c:	00402025 	move	a0,v0
9d00e440:	24840003 	addiu	a0,a0,3
9d00e444:	2406fffc 	li	a2,-4
9d00e448:	00c42024 	and	a0,a2,a0
9d00e44c:	8c850000 	lw	a1,0(a0)
9d00e450:	14a0ffec 	bnez	a1,9d00e404 <_dinit_init+0x10>
9d00e454:	00000000 	nop
9d00e458:	0060f825 	move	ra,v1
9d00e45c:	03e00008 	jr	ra
9d00e460:	00000000 	nop

Disassembly of section .text.atoi:

9d00e464 <atoi>:
9d00e464:	24050020 	li	a1,32
9d00e468:	80820000 	lb	v0,0(a0)
9d00e46c:	1045000d 	beq	v0,a1,9d00e4a4 <atoi+0x40>
9d00e470:	2443fff7 	addiu	v1,v0,-9
9d00e474:	2c630005 	sltiu	v1,v1,5
9d00e478:	1460000a 	bnez	v1,9d00e4a4 <atoi+0x40>
9d00e47c:	2403002b 	li	v1,43
9d00e480:	1043000a 	beq	v0,v1,9d00e4ac <atoi+0x48>
9d00e484:	2403002d 	li	v1,45
9d00e488:	14430003 	bne	v0,v1,9d00e498 <atoi+0x34>
9d00e48c:	00002825 	move	a1,zero
9d00e490:	24050001 	li	a1,1
9d00e494:	24840001 	addiu	a0,a0,1
9d00e498:	00001025 	move	v0,zero
9d00e49c:	10000007 	b	9d00e4bc <atoi+0x58>
9d00e4a0:	2407000a 	li	a3,10
9d00e4a4:	1000fff0 	b	9d00e468 <atoi+0x4>
9d00e4a8:	24840001 	addiu	a0,a0,1
9d00e4ac:	1000fff9 	b	9d00e494 <atoi+0x30>
9d00e4b0:	00002825 	move	a1,zero
9d00e4b4:	24840001 	addiu	a0,a0,1
9d00e4b8:	00431023 	subu	v0,v0,v1
9d00e4bc:	80830000 	lb	v1,0(a0)
9d00e4c0:	2463ffd0 	addiu	v1,v1,-48
9d00e4c4:	2c66000a 	sltiu	a2,v1,10
9d00e4c8:	54c0fffa 	bnezl	a2,9d00e4b4 <atoi+0x50>
9d00e4cc:	70471002 	mul	v0,v0,a3
9d00e4d0:	50a00001 	beqzl	a1,9d00e4d8 <atoi+0x74>
9d00e4d4:	00021023 	negu	v0,v0
9d00e4d8:	03e00008 	jr	ra
9d00e4dc:	00000000 	nop

Disassembly of section .text.__readv:

9d00e4e0 <readv>:
9d00e4e0:	27bdffd8 	addiu	sp,sp,-40
9d00e4e4:	afb40020 	sw	s4,32(sp)
9d00e4e8:	afb3001c 	sw	s3,28(sp)
9d00e4ec:	afb20018 	sw	s2,24(sp)
9d00e4f0:	afb10014 	sw	s1,20(sp)
9d00e4f4:	afb00010 	sw	s0,16(sp)
9d00e4f8:	afbf0024 	sw	ra,36(sp)
9d00e4fc:	0080a025 	move	s4,a0
9d00e500:	00c09825 	move	s3,a2
9d00e504:	00a08025 	move	s0,a1
9d00e508:	00008825 	move	s1,zero
9d00e50c:	00009025 	move	s2,zero
9d00e510:	0253102a 	slt	v0,s2,s3
9d00e514:	14400009 	bnez	v0,9d00e53c <readv+0x5c>
9d00e518:	8fbf0024 	lw	ra,36(sp)
9d00e51c:	02201025 	move	v0,s1
9d00e520:	8fb40020 	lw	s4,32(sp)
9d00e524:	8fb3001c 	lw	s3,28(sp)
9d00e528:	8fb20018 	lw	s2,24(sp)
9d00e52c:	8fb10014 	lw	s1,20(sp)
9d00e530:	8fb00010 	lw	s0,16(sp)
9d00e534:	03e00008 	jr	ra
9d00e538:	27bd0028 	addiu	sp,sp,40
9d00e53c:	8e060004 	lw	a2,4(s0)
9d00e540:	8e050000 	lw	a1,0(s0)
9d00e544:	02802025 	move	a0,s4
9d00e548:	0f403267 	jal	9d00c99c <read>
9d00e54c:	26520001 	addiu	s2,s2,1
9d00e550:	02228821 	addu	s1,s1,v0
9d00e554:	1000ffee 	b	9d00e510 <readv+0x30>
9d00e558:	26100008 	addiu	s0,s0,8

Disassembly of section .text.litodp:

9d00e55c <__floatsidf>:
9d00e55c:	24050000 00054825 00053825 00043025     ...$%H..%8..%0..
9d00e56c:	10c0000c 00000000 04c10006 00000000     ................
9d00e57c:	3c098000 0005502b 00052823 00063023     ...<+P..#(..#0..
9d00e58c:	00ca3023                                #0..

9d00e590 <i40>:
9d00e590:	2407041e 	li	a3,1054
9d00e594:	70c84020 	clz	t0,a2
9d00e598:	00e83823 	subu	a3,a3,t0
9d00e59c:	01063004 	sllv	a2,a2,t0

9d00e5a0 <i39>:
9d00e5a0:	000542c2 	srl	t0,a1,0xb
9d00e5a4:	00065540 	sll	t2,a2,0x15
9d00e5a8:	010a4025 	or	t0,t0,t2
9d00e5ac:	00065040 	sll	t2,a2,0x1
9d00e5b0:	000a5302 	srl	t2,t2,0xc
9d00e5b4:	012a4825 	or	t1,t1,t2
9d00e5b8:	00075500 	sll	t2,a3,0x14
9d00e5bc:	012a4825 	or	t1,t1,t2
9d00e5c0:	00081025 	or	v0,zero,t0
9d00e5c4:	00091825 	or	v1,zero,t1

9d00e5c8 <E999>:
9d00e5c8:	03e00008 	jr	ra
9d00e5cc:	00000000 	nop
9d00e5d0:	00000000 	nop

Disassembly of section .text:

9d00e5d4 <__floatdidf>:
9d00e5d4:	27bdffe0 	addiu	sp,sp,-32
9d00e5d8:	afb20018 	sw	s2,24(sp)
9d00e5dc:	00809025 	move	s2,a0
9d00e5e0:	00a02025 	move	a0,a1
9d00e5e4:	afbf001c 	sw	ra,28(sp)
9d00e5e8:	afb10014 	sw	s1,20(sp)
9d00e5ec:	0f403957 	jal	9d00e55c <__floatsidf>
9d00e5f0:	afb00010 	sw	s0,16(sp)
9d00e5f4:	3c049d00 	lui	a0,0x9d00
9d00e5f8:	8c867590 	lw	a2,30096(a0)
9d00e5fc:	8c877594 	lw	a3,30100(a0)
9d00e600:	00602825 	move	a1,v1
9d00e604:	0f402c42 	jal	9d00b108 <__muldf3>
9d00e608:	00402025 	move	a0,v0
9d00e60c:	02402025 	move	a0,s2
9d00e610:	00408025 	move	s0,v0
9d00e614:	0f403b9d 	jal	9d00ee74 <__floatunsidf>
9d00e618:	00608825 	move	s1,v1
9d00e61c:	00402025 	move	a0,v0
9d00e620:	02003025 	move	a2,s0
9d00e624:	02203825 	move	a3,s1
9d00e628:	0f40295b 	jal	9d00a56c <__adddf3>
9d00e62c:	00602825 	move	a1,v1
9d00e630:	8fbf001c 	lw	ra,28(sp)
9d00e634:	8fb20018 	lw	s2,24(sp)
9d00e638:	8fb10014 	lw	s1,20(sp)
9d00e63c:	8fb00010 	lw	s0,16(sp)
9d00e640:	03e00008 	jr	ra
9d00e644:	27bd0020 	addiu	sp,sp,32

Disassembly of section .text.__scan_d:

9d00e648 <__scan_d>:
9d00e648:	27bdffd8 	addiu	sp,sp,-40
9d00e64c:	afb10020 	sw	s1,32(sp)
9d00e650:	afb0001c 	sw	s0,28(sp)
9d00e654:	00a08825 	move	s1,a1
9d00e658:	8cd0000c 	lw	s0,12(a2)
9d00e65c:	00c02825 	move	a1,a2
9d00e660:	afbf0024 	sw	ra,36(sp)
9d00e664:	0f403218 	jal	9d00c860 <__read_int>
9d00e668:	00e03025 	move	a2,a3
9d00e66c:	2403ffff 	li	v1,-1
9d00e670:	1043000c 	beq	v0,v1,9d00e6a4 <__scan_d+0x5c>
9d00e674:	02002025 	move	a0,s0
9d00e678:	2406000a 	li	a2,10
9d00e67c:	0f403c49 	jal	9d00f124 <strtoll>
9d00e680:	27a50010 	addiu	a1,sp,16
9d00e684:	ae220000 	sw	v0,0(s1)
9d00e688:	8fa20010 	lw	v0,16(sp)
9d00e68c:	ae230004 	sw	v1,4(s1)
9d00e690:	2404fffe 	li	a0,-2
9d00e694:	00501026 	xor	v0,v0,s0
9d00e698:	24030001 	li	v1,1
9d00e69c:	0082180a 	movz	v1,a0,v0
9d00e6a0:	00601025 	move	v0,v1
9d00e6a4:	8fbf0024 	lw	ra,36(sp)
9d00e6a8:	8fb10020 	lw	s1,32(sp)
9d00e6ac:	8fb0001c 	lw	s0,28(sp)
9d00e6b0:	03e00008 	jr	ra
9d00e6b4:	27bd0028 	addiu	sp,sp,40

Disassembly of section .text.__consumews:

9d00e6b8 <__consumews>:
9d00e6b8:	8ca20000 	lw	v0,0(a1)
9d00e6bc:	24030020 	li	v1,32
9d00e6c0:	80420000 	lb	v0,0(v0)
9d00e6c4:	10430004 	beq	v0,v1,9d00e6d8 <__consumews+0x20>
9d00e6c8:	2442fff7 	addiu	v0,v0,-9
9d00e6cc:	2c430005 	sltiu	v1,v0,5
9d00e6d0:	10600013 	beqz	v1,9d00e720 <__consumews+0x68>
9d00e6d4:	00001025 	move	v0,zero
9d00e6d8:	27bdffe8 	addiu	sp,sp,-24
9d00e6dc:	afb00010 	sw	s0,16(sp)
9d00e6e0:	afbf0014 	sw	ra,20(sp)
9d00e6e4:	0f403767 	jal	9d00dd9c <__skipws>
9d00e6e8:	00a08025 	move	s0,a1
9d00e6ec:	24040020 	li	a0,32
9d00e6f0:	8e030000 	lw	v1,0(s0)
9d00e6f4:	24650001 	addiu	a1,v1,1
9d00e6f8:	ae050000 	sw	a1,0(s0)
9d00e6fc:	80630001 	lb	v1,1(v1)
9d00e700:	1064fffb 	beq	v1,a0,9d00e6f0 <__consumews+0x38>
9d00e704:	2463fff7 	addiu	v1,v1,-9
9d00e708:	2c630005 	sltiu	v1,v1,5
9d00e70c:	1460fff8 	bnez	v1,9d00e6f0 <__consumews+0x38>
9d00e710:	8fbf0014 	lw	ra,20(sp)
9d00e714:	8fb00010 	lw	s0,16(sp)
9d00e718:	03e00008 	jr	ra
9d00e71c:	27bd0018 	addiu	sp,sp,24
9d00e720:	03e00008 	jr	ra
9d00e724:	00000000 	nop

Disassembly of section .text.__putc:

9d00e728 <__putc>:
9d00e728:	8ca20004 	lw	v0,4(a1)
9d00e72c:	27bdffe8 	addiu	sp,sp,-24
9d00e730:	30420020 	andi	v0,v0,0x20
9d00e734:	14400006 	bnez	v0,9d00e750 <__putc+0x28>
9d00e738:	afbf0014 	sw	ra,20(sp)
9d00e73c:	0f403a50 	jal	9d00e940 <__putc_unbuffered>
9d00e740:	00000000 	nop
9d00e744:	8fbf0014 	lw	ra,20(sp)
9d00e748:	03e00008 	jr	ra
9d00e74c:	27bd0018 	addiu	sp,sp,24
9d00e750:	00803025 	move	a2,a0
9d00e754:	308200ff 	andi	v0,a0,0xff
9d00e758:	80a40034 	lb	a0,52(a1)
9d00e75c:	10820009 	beq	a0,v0,9d00e784 <__putc+0x5c>
9d00e760:	00a01825 	move	v1,a1
9d00e764:	8ca40014 	lw	a0,20(a1)
9d00e768:	8ca50028 	lw	a1,40(a1)
9d00e76c:	0085282b 	sltu	a1,a0,a1
9d00e770:	10a00004 	beqz	a1,9d00e784 <__putc+0x5c>
9d00e774:	24850001 	addiu	a1,a0,1
9d00e778:	ac650014 	sw	a1,20(v1)
9d00e77c:	1000fff1 	b	9d00e744 <__putc+0x1c>
9d00e780:	a0860000 	sb	a2,0(a0)
9d00e784:	00c02825 	move	a1,a2
9d00e788:	0f403829 	jal	9d00e0a4 <__overflow>
9d00e78c:	00602025 	move	a0,v1
9d00e790:	1000ffed 	b	9d00e748 <__putc+0x20>
9d00e794:	8fbf0014 	lw	ra,20(sp)

Disassembly of section .text.__simple_free:

9d00e798 <__simple_free>:
9d00e798:	10800017 	beqz	a0,9d00e7f8 <__simple_free+0x60>
9d00e79c:	3c07a000 	lui	a3,0xa000
9d00e7a0:	8ce2016c 	lw	v0,364(a3)
9d00e7a4:	2486fff0 	addiu	a2,a0,-16
9d00e7a8:	10400015 	beqz	v0,9d00e800 <__simple_free+0x68>
9d00e7ac:	00e04025 	move	t0,a3
9d00e7b0:	8c83fff0 	lw	v1,-16(a0)
9d00e7b4:	8c450000 	lw	a1,0(v0)
9d00e7b8:	00834821 	addu	t1,a0,v1
9d00e7bc:	14490007 	bne	v0,t1,9d00e7dc <__simple_free+0x44>
9d00e7c0:	24a50010 	addiu	a1,a1,16
9d00e7c4:	8c420010 	lw	v0,16(v0)
9d00e7c8:	00651821 	addu	v1,v1,a1
9d00e7cc:	ac83fff0 	sw	v1,-16(a0)
9d00e7d0:	ac820000 	sw	v0,0(a0)
9d00e7d4:	03e00008 	jr	ra
9d00e7d8:	ace6016c 	sw	a2,364(a3)
9d00e7dc:	00453821 	addu	a3,v0,a1
9d00e7e0:	14c70003 	bne	a2,a3,9d00e7f0 <__simple_free+0x58>
9d00e7e4:	00651821 	addu	v1,v1,a1
9d00e7e8:	03e00008 	jr	ra
9d00e7ec:	ac430000 	sw	v1,0(v0)
9d00e7f0:	ac820000 	sw	v0,0(a0)
9d00e7f4:	ad06016c 	sw	a2,364(t0)
9d00e7f8:	03e00008 	jr	ra
9d00e7fc:	00000000 	nop
9d00e800:	1000fffc 	b	9d00e7f4 <__simple_free+0x5c>
9d00e804:	ac800000 	sw	zero,0(a0)

Disassembly of section .text.__vsscanf:

9d00e808 <__vsscanf>:
9d00e808:	27bdff80 	addiu	sp,sp,-128
9d00e80c:	afb20078 	sw	s2,120(sp)
9d00e810:	afb10074 	sw	s1,116(sp)
9d00e814:	afb00070 	sw	s0,112(sp)
9d00e818:	00a08825 	move	s1,a1
9d00e81c:	00808025 	move	s0,a0
9d00e820:	00c09025 	move	s2,a2
9d00e824:	27a40010 	addiu	a0,sp,16
9d00e828:	24060060 	li	a2,96
9d00e82c:	afbf007c 	sw	ra,124(sp)
9d00e830:	0f403cbf 	jal	9d00f2fc <memset>
9d00e834:	00002825 	move	a1,zero
9d00e838:	3c029d01 	lui	v0,0x9d01
9d00e83c:	2442f4d0 	addiu	v0,v0,-2864
9d00e840:	02403025 	move	a2,s2
9d00e844:	02202825 	move	a1,s1
9d00e848:	27a40010 	addiu	a0,sp,16
9d00e84c:	afb00018 	sw	s0,24(sp)
9d00e850:	afb00048 	sw	s0,72(sp)
9d00e854:	0f403bcc 	jal	9d00ef30 <__vfscanf>
9d00e858:	afa20054 	sw	v0,84(sp)
9d00e85c:	8fbf007c 	lw	ra,124(sp)
9d00e860:	8fb20078 	lw	s2,120(sp)
9d00e864:	8fb10074 	lw	s1,116(sp)
9d00e868:	8fb00070 	lw	s0,112(sp)
9d00e86c:	03e00008 	jr	ra
9d00e870:	27bd0080 	addiu	sp,sp,128

Disassembly of section .text.a_clz_64:

9d00e874 <a_clz_64>:
9d00e874:	24030020 	li	v1,32
9d00e878:	00a5200b 	movn	a0,a1,a1
9d00e87c:	0005180b 	movn	v1,zero,a1
9d00e880:	00042c02 	srl	a1,a0,0x10
9d00e884:	14a00004 	bnez	a1,9d00e898 <a_clz_64+0x24>
9d00e888:	00051202 	srl	v0,a1,0x8
9d00e88c:	34630010 	ori	v1,v1,0x10
9d00e890:	00802825 	move	a1,a0
9d00e894:	00051202 	srl	v0,a1,0x8
9d00e898:	14400004 	bnez	v0,9d00e8ac <a_clz_64+0x38>
9d00e89c:	00022102 	srl	a0,v0,0x4
9d00e8a0:	34630008 	ori	v1,v1,0x8
9d00e8a4:	00a01025 	move	v0,a1
9d00e8a8:	00022102 	srl	a0,v0,0x4
9d00e8ac:	54800004 	bnezl	a0,9d00e8c0 <a_clz_64+0x4c>
9d00e8b0:	00041082 	srl	v0,a0,0x2
9d00e8b4:	34630004 	ori	v1,v1,0x4
9d00e8b8:	00402025 	move	a0,v0
9d00e8bc:	00041082 	srl	v0,a0,0x2
9d00e8c0:	54400004 	bnezl	v0,9d00e8d4 <a_clz_64+0x60>
9d00e8c4:	00021042 	srl	v0,v0,0x1
9d00e8c8:	34630002 	ori	v1,v1,0x2
9d00e8cc:	00801025 	move	v0,a0
9d00e8d0:	00021042 	srl	v0,v0,0x1
9d00e8d4:	38420001 	xori	v0,v0,0x1
9d00e8d8:	03e00008 	jr	ra
9d00e8dc:	00431025 	or	v0,v0,v1

Disassembly of section .text.__string_out:

9d00e8e0 <__string_out>:
9d00e8e0:	8c820010 	lw	v0,16(a0)
9d00e8e4:	27bdffe0 	addiu	sp,sp,-32
9d00e8e8:	afb10018 	sw	s1,24(sp)
9d00e8ec:	00c2882b 	sltu	s1,a2,v0
9d00e8f0:	0051300a 	movz	a2,v0,s1
9d00e8f4:	afbf001c 	sw	ra,28(sp)
9d00e8f8:	10c0000c 	beqz	a2,9d00e92c <__string_out+0x4c>
9d00e8fc:	afb00014 	sw	s0,20(sp)
9d00e900:	00808025 	move	s0,a0
9d00e904:	8c840014 	lw	a0,20(a0)
9d00e908:	0f403c8b 	jal	9d00f22c <memcpy>
9d00e90c:	00c08825 	move	s1,a2
9d00e910:	8e020014 	lw	v0,20(s0)
9d00e914:	8e060010 	lw	a2,16(s0)
9d00e918:	00511021 	addu	v0,v0,s1
9d00e91c:	00d18823 	subu	s1,a2,s1
9d00e920:	ae020014 	sw	v0,20(s0)
9d00e924:	ae110010 	sw	s1,16(s0)
9d00e928:	a0400000 	sb	zero,0(v0)
9d00e92c:	8fbf001c 	lw	ra,28(sp)
9d00e930:	8fb10018 	lw	s1,24(sp)
9d00e934:	8fb00014 	lw	s0,20(sp)
9d00e938:	03e00008 	jr	ra
9d00e93c:	27bd0020 	addiu	sp,sp,32

Disassembly of section .text.__putc_unbuffered:

9d00e940 <__putc_unbuffered>:
9d00e940:	8ca20004 	lw	v0,4(a1)
9d00e944:	27bdffe0 	addiu	sp,sp,-32
9d00e948:	308300ff 	andi	v1,a0,0xff
9d00e94c:	30420100 	andi	v0,v0,0x100
9d00e950:	afbf001c 	sw	ra,28(sp)
9d00e954:	1040000a 	beqz	v0,9d00e980 <__putc_unbuffered+0x40>
9d00e958:	a3a30010 	sb	v1,16(sp)
9d00e95c:	8ca20014 	lw	v0,20(a1)
9d00e960:	308400ff 	andi	a0,a0,0xff
9d00e964:	24460001 	addiu	a2,v0,1
9d00e968:	aca60014 	sw	a2,20(a1)
9d00e96c:	a0430000 	sb	v1,0(v0)
9d00e970:	8fbf001c 	lw	ra,28(sp)
9d00e974:	00801025 	move	v0,a0
9d00e978:	03e00008 	jr	ra
9d00e97c:	27bd0020 	addiu	sp,sp,32
9d00e980:	00a02025 	move	a0,a1
9d00e984:	24060001 	li	a2,1
9d00e988:	0f403c25 	jal	9d00f094 <__fwrite>
9d00e98c:	27a50010 	addiu	a1,sp,16
9d00e990:	1040fff7 	beqz	v0,9d00e970 <__putc_unbuffered+0x30>
9d00e994:	2404ffff 	li	a0,-1
9d00e998:	1000fff5 	b	9d00e970 <__putc_unbuffered+0x30>
9d00e99c:	93a40010 	lbu	a0,16(sp)

Disassembly of section .text.__fopen_std:

9d00e9a0 <__fopen_std>:
9d00e9a0:	27bdffe8 	addiu	sp,sp,-24
9d00e9a4:	afb00010 	sw	s0,16(sp)
9d00e9a8:	afbf0014 	sw	ra,20(sp)
9d00e9ac:	0f403667 	jal	9d00d99c <__simple_malloc>
9d00e9b0:	24040038 	li	a0,56
9d00e9b4:	1040000d 	beqz	v0,9d00e9ec <__fopen_std+0x4c>
9d00e9b8:	00408025 	move	s0,v0
9d00e9bc:	24060038 	li	a2,56
9d00e9c0:	00002825 	move	a1,zero
9d00e9c4:	0f403cbf 	jal	9d00f2fc <memset>
9d00e9c8:	00402025 	move	a0,v0
9d00e9cc:	3c029d01 	lui	v0,0x9d01
9d00e9d0:	2442f3e4 	addiu	v0,v0,-3100
9d00e9d4:	ae02002c 	sw	v0,44(s0)
9d00e9d8:	3c029d01 	lui	v0,0x9d01
9d00e9dc:	2442e010 	addiu	v0,v0,-8176
9d00e9e0:	ae020030 	sw	v0,48(s0)
9d00e9e4:	2402ffff 	li	v0,-1
9d00e9e8:	a2020034 	sb	v0,52(s0)
9d00e9ec:	8fbf0014 	lw	ra,20(sp)
9d00e9f0:	02001025 	move	v0,s0
9d00e9f4:	8fb00010 	lw	s0,16(sp)
9d00e9f8:	03e00008 	jr	ra
9d00e9fc:	27bd0018 	addiu	sp,sp,24

Disassembly of section .text.sitofp:

9d00ea00 <__floatsisf>:
9d00ea00:	3c018000 10800012 00813024 04810002     ...<....$0......
9d00ea10:	00000000 00042023                       ....# ..

9d00ea18 <i40>:
9d00ea18:	2405009e 	li	a1,158
9d00ea1c:	70873820 	clz	a3,a0
9d00ea20:	00a72823 	subu	a1,a1,a3
9d00ea24:	00e42004 	sllv	a0,a0,a3
9d00ea28:	24840080 	addiu	a0,a0,128
9d00ea2c:	2c880080 	sltiu	t0,a0,128
9d00ea30:	00a82821 	addu	a1,a1,t0
9d00ea34:	00044203 	sra	t0,a0,0x8
9d00ea38:	31080001 	andi	t0,t0,0x1
9d00ea3c:	00882023 	subu	a0,a0,t0
9d00ea40:	00042040 	sll	a0,a0,0x1
9d00ea44:	00042242 	srl	a0,a0,0x9
9d00ea48:	000545c0 	sll	t0,a1,0x17
9d00ea4c:	00882025 	or	a0,a0,t0

9d00ea50 <i39>:
9d00ea50:	00861025 	or	v0,a0,a2

9d00ea54 <E999>:
9d00ea54:	03e00008 	jr	ra
9d00ea58:	00000000 	nop
9d00ea5c:	00000000 	nop

Disassembly of section .text.__fmt_state:

9d00ea60 <__fmt_state>:
9d00ea60:	3c069d01 	lui	a2,0x9d01
9d00ea64:	00001025 	move	v0,zero
9d00ea68:	24c6f5a8 	addiu	a2,a2,-2648
9d00ea6c:	00021840 	sll	v1,v0,0x1
9d00ea70:	00661821 	addu	v1,v1,a2
9d00ea74:	80670000 	lb	a3,0(v1)
9d00ea78:	54e00003 	bnezl	a3,9d00ea88 <__fmt_state+0x28>
9d00ea7c:	8c850000 	lw	a1,0(a0)
9d00ea80:	03e00008 	jr	ra
9d00ea84:	90620001 	lbu	v0,1(v1)
9d00ea88:	24420001 	addiu	v0,v0,1
9d00ea8c:	80a80000 	lb	t0,0(a1)
9d00ea90:	15070004 	bne	t0,a3,9d00eaa4 <__fmt_state+0x44>
9d00ea94:	304200ff 	andi	v0,v0,0xff
9d00ea98:	90620001 	lbu	v0,1(v1)
9d00ea9c:	24a50001 	addiu	a1,a1,1
9d00eaa0:	ac850000 	sw	a1,0(a0)
9d00eaa4:	2c43000b 	sltiu	v1,v0,11
9d00eaa8:	1460fff1 	bnez	v1,9d00ea70 <__fmt_state+0x10>
9d00eaac:	00021840 	sll	v1,v0,0x1
9d00eab0:	03e00008 	jr	ra
9d00eab4:	00000000 	nop

Disassembly of section .text.main_entry:

9d00eab8 <_main_entry>:
9d00eab8:	3c040000 	lui	a0,0x0
9d00eabc:	27bdffe8 	addiu	sp,sp,-24
9d00eac0:	24840000 	addiu	a0,a0,0
9d00eac4:	10800003 	beqz	a0,9d00ead4 <_main_entry+0x1c>
9d00eac8:	afbf0014 	sw	ra,20(sp)
9d00eacc:	0080f809 	jalr	a0
9d00ead0:	00000000 	nop
9d00ead4:	30840000 	andi	a0,a0,0x0
9d00ead8:	30a50000 	andi	a1,a1,0x0
9d00eadc:	3c089d01 	lui	t0,0x9d01
9d00eae0:	250897ec 	addiu	t0,t0,-26644
9d00eae4:	0100f809 	jalr	t0
9d00eae8:	00000000 	nop

9d00eaec <__crt0_exit>:
9d00eaec:	3c020000 24420000 10400003 00000000     ...<..B$..@.....
9d00eafc:	0040f809 00000000 1000fff9 00000000     ..@.............

Disassembly of section .text.__uflow:

9d00eb0c <__uflow>:
9d00eb0c:	27bdffe0 	addiu	sp,sp,-32
9d00eb10:	afb00018 	sw	s0,24(sp)
9d00eb14:	afbf001c 	sw	ra,28(sp)
9d00eb18:	0f4037df 	jal	9d00df7c <__toread>
9d00eb1c:	00808025 	move	s0,a0
9d00eb20:	50400006 	beqzl	v0,9d00eb3c <__uflow+0x30>
9d00eb24:	8e020044 	lw	v0,68(s0)
9d00eb28:	2402ffff 	li	v0,-1
9d00eb2c:	8fbf001c 	lw	ra,28(sp)
9d00eb30:	8fb00018 	lw	s0,24(sp)
9d00eb34:	03e00008 	jr	ra
9d00eb38:	27bd0020 	addiu	sp,sp,32
9d00eb3c:	24060001 	li	a2,1
9d00eb40:	27a50010 	addiu	a1,sp,16
9d00eb44:	0040f809 	jalr	v0
9d00eb48:	02002025 	move	a0,s0
9d00eb4c:	24030001 	li	v1,1
9d00eb50:	1443fff5 	bne	v0,v1,9d00eb28 <__uflow+0x1c>
9d00eb54:	93a20010 	lbu	v0,16(sp)
9d00eb58:	1000fff5 	b	9d00eb30 <__uflow+0x24>
9d00eb5c:	8fbf001c 	lw	ra,28(sp)

Disassembly of section .text.__pop_float:

9d00eb60 <__pop_float>:
9d00eb60:	28a30080 	slti	v1,a1,128
9d00eb64:	14600010 	bnez	v1,9d00eba8 <__pop_float+0x48>
9d00eb68:	00001025 	move	v0,zero
9d00eb6c:	28a30082 	slti	v1,a1,130
9d00eb70:	14600003 	bnez	v1,9d00eb80 <__pop_float+0x20>
9d00eb74:	24030083 	li	v1,131
9d00eb78:	14a3000b 	bne	a1,v1,9d00eba8 <__pop_float+0x48>
9d00eb7c:	00000000 	nop
9d00eb80:	8cc20000 	lw	v0,0(a2)
9d00eb84:	24420007 	addiu	v0,v0,7
9d00eb88:	7c021004 	ins	v0,zero,0x0,0x3
9d00eb8c:	24430008 	addiu	v1,v0,8
9d00eb90:	acc30000 	sw	v1,0(a2)
9d00eb94:	8c430004 	lw	v1,4(v0)
9d00eb98:	8c420000 	lw	v0,0(v0)
9d00eb9c:	ac830004 	sw	v1,4(a0)
9d00eba0:	ac820000 	sw	v0,0(a0)
9d00eba4:	24020001 	li	v0,1
9d00eba8:	03e00008 	jr	ra
9d00ebac:	00000000 	nop

Disassembly of section .text.__stdio_exit:

9d00ebb0 <__stdio_exit>:
9d00ebb0:	27bdffe8 	addiu	sp,sp,-24
9d00ebb4:	afbf0014 	sw	ra,20(sp)
9d00ebb8:	0f403d91 	jal	9d00f644 <__stdio_exit_ofl>
9d00ebbc:	00000000 	nop
9d00ebc0:	3c02a000 	lui	v0,0xa000
9d00ebc4:	8c440164 	lw	a0,356(v0)
9d00ebc8:	0f403c17 	jal	9d00f05c <__fclose>
9d00ebcc:	00002825 	move	a1,zero
9d00ebd0:	3c02a000 	lui	v0,0xa000
9d00ebd4:	8c440164 	lw	a0,356(v0)
9d00ebd8:	0f403c17 	jal	9d00f05c <__fclose>
9d00ebdc:	00002825 	move	a1,zero
9d00ebe0:	3c02a000 	lui	v0,0xa000
9d00ebe4:	8c440164 	lw	a0,356(v0)
9d00ebe8:	0f403c17 	jal	9d00f05c <__fclose>
9d00ebec:	00002825 	move	a1,zero
9d00ebf0:	8fbf0014 	lw	ra,20(sp)
9d00ebf4:	03e00008 	jr	ra
9d00ebf8:	27bd0018 	addiu	sp,sp,24

Disassembly of section .text._bootstrap_exception_handler:

9d00ebfc <_bootstrap_exception_handler>:
9d00ebfc:	3c020000 	lui	v0,0x0
9d00ec00:	24420000 	addiu	v0,v0,0
9d00ec04:	10400005 	beqz	v0,9d00ec1c <_bootstrap_exception_handler+0x20>
9d00ec08:	3c020000 	lui	v0,0x0
9d00ec0c:	24420000 	addiu	v0,v0,0
9d00ec10:	10400003 	beqz	v0,9d00ec20 <_bootstrap_exception_handler+0x24>
9d00ec14:	3c029d01 	lui	v0,0x9d01
9d00ec18:	7000003f 	sdbbp
9d00ec1c:	3c029d01 	lui	v0,0x9d01
9d00ec20:	2442ed64 	addiu	v0,v0,-4764
9d00ec24:	10400005 	beqz	v0,9d00ec3c <_bootstrap_exception_handler+0x40>
9d00ec28:	00000000 	nop
9d00ec2c:	27bdffe8 	addiu	sp,sp,-24
9d00ec30:	afbf0014 	sw	ra,20(sp)
9d00ec34:	0040f809 	jalr	v0
9d00ec38:	00000000 	nop
9d00ec3c:	1000ffff 	b	9d00ec3c <_bootstrap_exception_handler+0x40>
9d00ec40:	00000000 	nop

Disassembly of section .text._general_exception_handler:

9d00ec44 <_general_exception_handler>:
9d00ec44:	3c020000 	lui	v0,0x0
9d00ec48:	24420000 	addiu	v0,v0,0
9d00ec4c:	10400005 	beqz	v0,9d00ec64 <_general_exception_handler+0x20>
9d00ec50:	3c020000 	lui	v0,0x0
9d00ec54:	24420000 	addiu	v0,v0,0
9d00ec58:	10400003 	beqz	v0,9d00ec68 <_general_exception_handler+0x24>
9d00ec5c:	3c029d01 	lui	v0,0x9d01
9d00ec60:	7000003f 	sdbbp
9d00ec64:	3c029d01 	lui	v0,0x9d01
9d00ec68:	2442ed64 	addiu	v0,v0,-4764
9d00ec6c:	10400005 	beqz	v0,9d00ec84 <_general_exception_handler+0x40>
9d00ec70:	00000000 	nop
9d00ec74:	27bdffe8 	addiu	sp,sp,-24
9d00ec78:	afbf0014 	sw	ra,20(sp)
9d00ec7c:	0040f809 	jalr	v0
9d00ec80:	00000000 	nop
9d00ec84:	1000ffff 	b	9d00ec84 <_general_exception_handler+0x40>
9d00ec88:	00000000 	nop

Disassembly of section .vector_default:

9d00ec8c <_DefaultInterrupt>:
9d00ec8c:	3c020000 	lui	v0,0x0
9d00ec90:	24420000 	addiu	v0,v0,0
9d00ec94:	10400007 	beqz	v0,9d00ecb4 <_DefaultInterrupt+0x28>
9d00ec98:	3c020000 	lui	v0,0x0
9d00ec9c:	24420000 	addiu	v0,v0,0
9d00eca0:	50400005 	beqzl	v0,9d00ecb8 <_DefaultInterrupt+0x2c>
9d00eca4:	3c029d01 	lui	v0,0x9d01
9d00eca8:	7000003f 	sdbbp
9d00ecac:	03e00008 	jr	ra
9d00ecb0:	00000000 	nop
9d00ecb4:	3c029d01 	lui	v0,0x9d01
9d00ecb8:	2442ed64 	addiu	v0,v0,-4764
9d00ecbc:	10400003 	beqz	v0,9d00eccc <_DefaultInterrupt+0x40>
9d00ecc0:	00000000 	nop
9d00ecc4:	0040f809 	jalr	v0
9d00ecc8:	00000000 	nop
9d00eccc:	03e00008 	jr	ra
9d00ecd0:	00000000 	nop

Disassembly of section .text.__ftello_adj_rw:

9d00ecd4 <__ftello_adj_rw>:
9d00ecd4:	8c820004 	lw	v0,4(a0)
9d00ecd8:	30460002 	andi	a2,v0,0x2
9d00ecdc:	14c00004 	bnez	a2,9d00ecf0 <__ftello_adj_rw+0x1c>
9d00ece0:	00001825 	move	v1,zero
9d00ece4:	8c830040 	lw	v1,64(a0)
9d00ece8:	8c86003c 	lw	a2,60(a0)
9d00ecec:	00661823 	subu	v1,v1,a2
9d00ecf0:	8c870014 	lw	a3,20(a0)
9d00ecf4:	8c860018 	lw	a2,24(a0)
9d00ecf8:	00e62023 	subu	a0,a3,a2
9d00ecfc:	00831821 	addu	v1,a0,v1
9d00ed00:	aca30000 	sw	v1,0(a1)
9d00ed04:	30430040 	andi	v1,v0,0x40
9d00ed08:	10600002 	beqz	v1,9d00ed14 <__ftello_adj_rw+0x40>
9d00ed0c:	00001025 	move	v0,zero
9d00ed10:	00c7102b 	sltu	v0,a2,a3
9d00ed14:	03e00008 	jr	ra
9d00ed18:	00000000 	nop

Disassembly of section .text.__stdio_seek_unbuffered:

9d00ed1c <__stdio_seek_unbuffered>:
9d00ed1c:	27bdffe8 	addiu	sp,sp,-24
9d00ed20:	afb00010 	sw	s0,16(sp)
9d00ed24:	00808025 	move	s0,a0
9d00ed28:	8c840000 	lw	a0,0(a0)
9d00ed2c:	afbf0014 	sw	ra,20(sp)
9d00ed30:	0f403d9d 	jal	9d00f674 <lseek>
9d00ed34:	00000000 	nop
9d00ed38:	04400005 	bltz	v0,9d00ed50 <__stdio_seek_unbuffered+0x34>
9d00ed3c:	2403ffff 	li	v1,-1
9d00ed40:	8e020004 	lw	v0,4(s0)
9d00ed44:	00001825 	move	v1,zero
9d00ed48:	7c0218c4 	ins	v0,zero,0x3,0x1
9d00ed4c:	ae020004 	sw	v0,4(s0)
9d00ed50:	8fbf0014 	lw	ra,20(sp)
9d00ed54:	00601025 	move	v0,v1
9d00ed58:	8fb00010 	lw	s0,16(sp)
9d00ed5c:	03e00008 	jr	ra
9d00ed60:	27bd0018 	addiu	sp,sp,24

Disassembly of section .text:

9d00ed64 <__pic32_software_reset>:
9d00ed64:	41606000 	di
9d00ed68:	000000c0 	ehb
9d00ed6c:	3c03aa99 	lui	v1,0xaa99
9d00ed70:	3c02bf81 	lui	v0,0xbf81
9d00ed74:	24636655 	addiu	v1,v1,26197
9d00ed78:	ac40f230 	sw	zero,-3536(v0)
9d00ed7c:	ac43f230 	sw	v1,-3536(v0)
9d00ed80:	3c035566 	lui	v1,0x5566
9d00ed84:	346399aa 	ori	v1,v1,0x99aa
9d00ed88:	ac43f230 	sw	v1,-3536(v0)
9d00ed8c:	3c02bf81 	lui	v0,0xbf81
9d00ed90:	24030001 	li	v1,1
9d00ed94:	ac43f618 	sw	v1,-2536(v0)
9d00ed98:	3c02bf81 	lui	v0,0xbf81
9d00ed9c:	8c42f610 	lw	v0,-2544(v0)
9d00eda0:	0b403b5b 	j	9d00ed6c <__pic32_software_reset+0x8>
9d00eda4:	00000000 	nop

Disassembly of section .text.__sio_sprintf_cdeEfFgGns:

9d00eda8 <__sio_sprintf_cdeEfFgGns>:
9d00eda8:	27bdffe8 	addiu	sp,sp,-24
9d00edac:	afbf0014 	sw	ra,20(sp)
9d00edb0:	0f403121 	jal	9d00c484 <__fmt_d>
9d00edb4:	00000000 	nop
9d00edb8:	0f401d68 	jal	9d0075a0 <__fmt_fp>
9d00edbc:	00000000 	nop
9d00edc0:	0f40373e 	jal	9d00dcf8 <__fmt_s>
9d00edc4:	00000000 	nop
9d00edc8:	0f403ad8 	jal	9d00eb60 <__pop_float>
9d00edcc:	00000000 	nop
9d00edd0:	0f402f56 	jal	9d00bd58 <__pop_int>
9d00edd4:	00000000 	nop
9d00edd8:	0f4034d6 	jal	9d00d358 <__pop_ptr>
9d00eddc:	00000000 	nop
9d00ede0:	8fbf0014 	lw	ra,20(sp)
9d00ede4:	03e00008 	jr	ra
9d00ede8:	27bd0018 	addiu	sp,sp,24

Disassembly of section .text.__towrite:

9d00edec <__towrite>:
9d00edec:	27bdffe8 	addiu	sp,sp,-24
9d00edf0:	afb00010 	sw	s0,16(sp)
9d00edf4:	afbf0014 	sw	ra,20(sp)
9d00edf8:	0f403bbd 	jal	9d00eef4 <__towrite_rw>
9d00edfc:	00808025 	move	s0,a0
9d00ee00:	14400008 	bnez	v0,9d00ee24 <__towrite+0x38>
9d00ee04:	8fbf0014 	lw	ra,20(sp)
9d00ee08:	8e030008 	lw	v1,8(s0)
9d00ee0c:	8e04000c 	lw	a0,12(s0)
9d00ee10:	ae030018 	sw	v1,24(s0)
9d00ee14:	ae030014 	sw	v1,20(s0)
9d00ee18:	00641821 	addu	v1,v1,a0
9d00ee1c:	ae030028 	sw	v1,40(s0)
9d00ee20:	8fbf0014 	lw	ra,20(sp)
9d00ee24:	8fb00010 	lw	s0,16(sp)
9d00ee28:	03e00008 	jr	ra
9d00ee2c:	27bd0018 	addiu	sp,sp,24

Disassembly of section .text._get_heap_left_space:

9d00ee30 <_get_heap_left_space>:
9d00ee30:	3c02a000 	lui	v0,0xa000
9d00ee34:	8c430158 	lw	v1,344(v0)
9d00ee38:	27bdffe8 	addiu	sp,sp,-24
9d00ee3c:	afb00010 	sw	s0,16(sp)
9d00ee40:	afbf0014 	sw	ra,20(sp)
9d00ee44:	14600003 	bnez	v1,9d00ee54 <_get_heap_left_space+0x24>
9d00ee48:	00408025 	move	s0,v0
9d00ee4c:	0f4030cc 	jal	9d00c330 <_sbrk_init>
9d00ee50:	00000000 	nop
9d00ee54:	3c02a000 	lui	v0,0xa000
9d00ee58:	8c43015c 	lw	v1,348(v0)
9d00ee5c:	8fbf0014 	lw	ra,20(sp)
9d00ee60:	8e020158 	lw	v0,344(s0)
9d00ee64:	8fb00010 	lw	s0,16(sp)
9d00ee68:	27bd0018 	addiu	sp,sp,24
9d00ee6c:	03e00008 	jr	ra
9d00ee70:	00621023 	subu	v0,v1,v0

Disassembly of section .text:

9d00ee74 <__floatunsidf>:
9d00ee74:	27bdffe8 	addiu	sp,sp,-24
9d00ee78:	afb00010 	sw	s0,16(sp)
9d00ee7c:	afbf0014 	sw	ra,20(sp)
9d00ee80:	0f403957 	jal	9d00e55c <__floatsidf>
9d00ee84:	00808025 	move	s0,a0
9d00ee88:	06010006 	bgez	s0,9d00eea4 <__floatunsidf+0x30>
9d00ee8c:	00602825 	move	a1,v1
9d00ee90:	3c049d00 	lui	a0,0x9d00
9d00ee94:	8c867598 	lw	a2,30104(a0)
9d00ee98:	8c87759c 	lw	a3,30108(a0)
9d00ee9c:	0f40295b 	jal	9d00a56c <__adddf3>
9d00eea0:	00402025 	move	a0,v0
9d00eea4:	8fbf0014 	lw	ra,20(sp)
9d00eea8:	8fb00010 	lw	s0,16(sp)
9d00eeac:	03e00008 	jr	ra
9d00eeb0:	27bd0018 	addiu	sp,sp,24

Disassembly of section .text.memchr:

9d00eeb4 <memchr>:
9d00eeb4:	10c0000b 	beqz	a2,9d00eee4 <memchr+0x30>
9d00eeb8:	30a500ff 	andi	a1,a1,0xff
9d00eebc:	90820000 	lbu	v0,0(a0)
9d00eec0:	1045000a 	beq	v0,a1,9d00eeec <memchr+0x38>
9d00eec4:	00863021 	addu	a2,a0,a2
9d00eec8:	10000004 	b	9d00eedc <memchr+0x28>
9d00eecc:	24840001 	addiu	a0,a0,1
9d00eed0:	10450006 	beq	v0,a1,9d00eeec <memchr+0x38>
9d00eed4:	00000000 	nop
9d00eed8:	24840001 	addiu	a0,a0,1
9d00eedc:	54c4fffc 	bnel	a2,a0,9d00eed0 <memchr+0x1c>
9d00eee0:	90820000 	lbu	v0,0(a0)
9d00eee4:	03e00008 	jr	ra
9d00eee8:	00001025 	move	v0,zero
9d00eeec:	03e00008 	jr	ra
9d00eef0:	00801025 	move	v0,a0

Disassembly of section .text.__towrite_rw:

9d00eef4 <__towrite_rw>:
9d00eef4:	80820048 	lb	v0,72(a0)
9d00eef8:	2443ffff 	addiu	v1,v0,-1
9d00eefc:	00431025 	or	v0,v0,v1
9d00ef00:	a0820048 	sb	v0,72(a0)
9d00ef04:	8c820004 	lw	v0,4(a0)
9d00ef08:	30430004 	andi	v1,v0,0x4
9d00ef0c:	50600005 	beqzl	v1,9d00ef24 <__towrite_rw+0x30>
9d00ef10:	ac800040 	sw	zero,64(a0)
9d00ef14:	34420010 	ori	v0,v0,0x10
9d00ef18:	ac820004 	sw	v0,4(a0)
9d00ef1c:	03e00008 	jr	ra
9d00ef20:	2402ffff 	li	v0,-1
9d00ef24:	ac80003c 	sw	zero,60(a0)
9d00ef28:	03e00008 	jr	ra
9d00ef2c:	00001025 	move	v0,zero

Disassembly of section .text.__vfscanf:

9d00ef30 <__vfscanf>:
9d00ef30:	27bdffe0 	addiu	sp,sp,-32
9d00ef34:	afb00018 	sw	s0,24(sp)
9d00ef38:	afa60010 	sw	a2,16(sp)
9d00ef3c:	00808025 	move	s0,a0
9d00ef40:	afbf001c 	sw	ra,28(sp)
9d00ef44:	0f40216f 	jal	9d0085bc <__scanf_core>
9d00ef48:	27a60010 	addiu	a2,sp,16
9d00ef4c:	8e030004 	lw	v1,4(s0)
9d00ef50:	8fbf001c 	lw	ra,28(sp)
9d00ef54:	2404ffff 	li	a0,-1
9d00ef58:	30630010 	andi	v1,v1,0x10
9d00ef5c:	0083100b 	movn	v0,a0,v1
9d00ef60:	8fb00018 	lw	s0,24(sp)
9d00ef64:	03e00008 	jr	ra
9d00ef68:	27bd0020 	addiu	sp,sp,32

Disassembly of section .text.__vfprintf:

9d00ef6c <__vfprintf>:
9d00ef6c:	27bdffe0 	addiu	sp,sp,-32
9d00ef70:	afb00018 	sw	s0,24(sp)
9d00ef74:	afa60010 	sw	a2,16(sp)
9d00ef78:	00808025 	move	s0,a0
9d00ef7c:	afbf001c 	sw	ra,28(sp)
9d00ef80:	0f4026c2 	jal	9d009b08 <__printf_core>
9d00ef84:	27a60010 	addiu	a2,sp,16
9d00ef88:	8e030004 	lw	v1,4(s0)
9d00ef8c:	8fbf001c 	lw	ra,28(sp)
9d00ef90:	2404ffff 	li	a0,-1
9d00ef94:	30630010 	andi	v1,v1,0x10
9d00ef98:	0083100b 	movn	v0,a0,v1
9d00ef9c:	8fb00018 	lw	s0,24(sp)
9d00efa0:	03e00008 	jr	ra
9d00efa4:	27bd0020 	addiu	sp,sp,32

Disassembly of section .text:

9d00efa8 <__lshrdi3>:
9d00efa8:	10c00008 	beqz	a2,9d00efcc <__lshrdi3+0x24>
9d00efac:	00801025 	move	v0,a0
9d00efb0:	24030020 	li	v1,32
9d00efb4:	00661823 	subu	v1,v1,a2
9d00efb8:	1c600006 	bgtz	v1,9d00efd4 <__lshrdi3+0x2c>
9d00efbc:	00c52006 	srlv	a0,a1,a2
9d00efc0:	00002025 	move	a0,zero
9d00efc4:	00c51006 	srlv	v0,a1,a2
9d00efc8:	00802825 	move	a1,a0
9d00efcc:	03e00008 	jr	ra
9d00efd0:	00a01825 	move	v1,a1
9d00efd4:	00c21006 	srlv	v0,v0,a2
9d00efd8:	00652804 	sllv	a1,a1,v1
9d00efdc:	1000fffa 	b	9d00efc8 <__lshrdi3+0x20>
9d00efe0:	00451025 	or	v0,v0,a1

9d00efe4 <__ashldi3>:
9d00efe4:	10c00008 	beqz	a2,9d00f008 <__ashldi3+0x24>
9d00efe8:	00801025 	move	v0,a0
9d00efec:	24040020 	li	a0,32
9d00eff0:	00862023 	subu	a0,a0,a2
9d00eff4:	5c800006 	bgtzl	a0,9d00f010 <__ashldi3+0x2c>
9d00eff8:	00c21804 	sllv	v1,v0,a2
9d00effc:	00001825 	move	v1,zero
9d00f000:	00c22804 	sllv	a1,v0,a2
9d00f004:	00601025 	move	v0,v1
9d00f008:	03e00008 	jr	ra
9d00f00c:	00a01825 	move	v1,a1
9d00f010:	00c52804 	sllv	a1,a1,a2
9d00f014:	00821006 	srlv	v0,v0,a0
9d00f018:	1000fffa 	b	9d00f004 <__ashldi3+0x20>
9d00f01c:	00a22825 	or	a1,a1,v0

Disassembly of section .text.__expand_heap:

9d00f020 <__expand_heap>:
9d00f020:	8c840000 	lw	a0,0(a0)
9d00f024:	04810003 	bgez	a0,9d00f034 <__expand_heap+0x14>
9d00f028:	00001025 	move	v0,zero
9d00f02c:	03e00008 	jr	ra
9d00f030:	00000000 	nop
9d00f034:	27bdffe8 	addiu	sp,sp,-24
9d00f038:	afbf0014 	sw	ra,20(sp)
9d00f03c:	0f403693 	jal	9d00da4c <_sbrk>
9d00f040:	00000000 	nop
9d00f044:	2403ffff 	li	v1,-1
9d00f048:	50430001 	beql	v0,v1,9d00f050 <__expand_heap+0x30>
9d00f04c:	00001025 	move	v0,zero
9d00f050:	8fbf0014 	lw	ra,20(sp)
9d00f054:	03e00008 	jr	ra
9d00f058:	27bd0018 	addiu	sp,sp,24

Disassembly of section .text.__fclose:

9d00f05c <__fclose>:
9d00f05c:	1080000b 	beqz	a0,9d00f08c <__fclose+0x30>
9d00f060:	00001025 	move	v0,zero
9d00f064:	8c83001c 	lw	v1,28(a0)
9d00f068:	10600008 	beqz	v1,9d00f08c <__fclose+0x30>
9d00f06c:	00000000 	nop
9d00f070:	27bdffe8 	addiu	sp,sp,-24
9d00f074:	afbf0014 	sw	ra,20(sp)
9d00f078:	0060f809 	jalr	v1
9d00f07c:	00000000 	nop
9d00f080:	8fbf0014 	lw	ra,20(sp)
9d00f084:	03e00008 	jr	ra
9d00f088:	27bd0018 	addiu	sp,sp,24
9d00f08c:	03e00008 	jr	ra
9d00f090:	00000000 	nop

Disassembly of section .text.__fwrite:

9d00f094 <__fwrite>:
9d00f094:	8c83002c 	lw	v1,44(a0)
9d00f098:	27bdffe8 	addiu	sp,sp,-24
9d00f09c:	10600006 	beqz	v1,9d00f0b8 <__fwrite+0x24>
9d00f0a0:	afbf0014 	sw	ra,20(sp)
9d00f0a4:	0060f809 	jalr	v1
9d00f0a8:	00000000 	nop
9d00f0ac:	8fbf0014 	lw	ra,20(sp)
9d00f0b0:	03e00008 	jr	ra
9d00f0b4:	27bd0018 	addiu	sp,sp,24
9d00f0b8:	0f4038b8 	jal	9d00e2e0 <write>
9d00f0bc:	8c840000 	lw	a0,0(a0)
9d00f0c0:	1000fffb 	b	9d00f0b0 <__fwrite+0x1c>
9d00f0c4:	8fbf0014 	lw	ra,20(sp)

Disassembly of section .text.strlen:

9d00f0c8 <strlen>:
9d00f0c8:	80820000 	lb	v0,0(a0)
9d00f0cc:	10400008 	beqz	v0,9d00f0f0 <strlen+0x28>
9d00f0d0:	00000000 	nop
9d00f0d4:	00801025 	move	v0,a0
9d00f0d8:	24420001 	addiu	v0,v0,1
9d00f0dc:	80430000 	lb	v1,0(v0)
9d00f0e0:	5460fffe 	bnezl	v1,9d00f0dc <strlen+0x14>
9d00f0e4:	24420001 	addiu	v0,v0,1
9d00f0e8:	03e00008 	jr	ra
9d00f0ec:	00441023 	subu	v0,v0,a0
9d00f0f0:	03e00008 	jr	ra
9d00f0f4:	00001025 	move	v0,zero

Disassembly of section .text.strtoull:

9d00f0f8 <strtoull>:
9d00f0f8:	27bdffe0 	addiu	sp,sp,-32
9d00f0fc:	2402ffff 	li	v0,-1
9d00f100:	2403ffff 	li	v1,-1
9d00f104:	afa20010 	sw	v0,16(sp)
9d00f108:	afa30014 	sw	v1,20(sp)
9d00f10c:	afbf001c 	sw	ra,28(sp)
9d00f110:	0f40360c 	jal	9d00d830 <strtox>
9d00f114:	00000000 	nop
9d00f118:	8fbf001c 	lw	ra,28(sp)
9d00f11c:	03e00008 	jr	ra
9d00f120:	27bd0020 	addiu	sp,sp,32

Disassembly of section .text.strtoll:

9d00f124 <strtoll>:
9d00f124:	27bdffe0 	addiu	sp,sp,-32
9d00f128:	00001025 	move	v0,zero
9d00f12c:	3c038000 	lui	v1,0x8000
9d00f130:	afa20010 	sw	v0,16(sp)
9d00f134:	afa30014 	sw	v1,20(sp)
9d00f138:	afbf001c 	sw	ra,28(sp)
9d00f13c:	0f40360c 	jal	9d00d830 <strtox>
9d00f140:	00000000 	nop
9d00f144:	8fbf001c 	lw	ra,28(sp)
9d00f148:	03e00008 	jr	ra
9d00f14c:	27bd0020 	addiu	sp,sp,32

Disassembly of section .text.strtoul:

9d00f150 <strtoul>:
9d00f150:	27bdffe0 	addiu	sp,sp,-32
9d00f154:	2402ffff 	li	v0,-1
9d00f158:	00001825 	move	v1,zero
9d00f15c:	afa20010 	sw	v0,16(sp)
9d00f160:	afa30014 	sw	v1,20(sp)
9d00f164:	afbf001c 	sw	ra,28(sp)
9d00f168:	0f40360c 	jal	9d00d830 <strtox>
9d00f16c:	00000000 	nop
9d00f170:	8fbf001c 	lw	ra,28(sp)
9d00f174:	03e00008 	jr	ra
9d00f178:	27bd0020 	addiu	sp,sp,32

Disassembly of section .text.strtol:

9d00f17c <strtol>:
9d00f17c:	27bdffe0 	addiu	sp,sp,-32
9d00f180:	3c028000 	lui	v0,0x8000
9d00f184:	00001825 	move	v1,zero
9d00f188:	afa20010 	sw	v0,16(sp)
9d00f18c:	afa30014 	sw	v1,20(sp)
9d00f190:	afbf001c 	sw	ra,28(sp)
9d00f194:	0f40360c 	jal	9d00d830 <strtox>
9d00f198:	00000000 	nop
9d00f19c:	8fbf001c 	lw	ra,28(sp)
9d00f1a0:	03e00008 	jr	ra
9d00f1a4:	27bd0020 	addiu	sp,sp,32

Disassembly of section .text.__shlim:

9d00f1a8 <__shlim>:
9d00f1a8:	8c830040 	lw	v1,64(a0)
9d00f1ac:	8c86003c 	lw	a2,60(a0)
9d00f1b0:	ac850050 	sw	a1,80(a0)
9d00f1b4:	00661023 	subu	v0,v1,a2
9d00f1b8:	10a00004 	beqz	a1,9d00f1cc <__shlim+0x24>
9d00f1bc:	ac820054 	sw	v0,84(a0)
9d00f1c0:	00a2102a 	slt	v0,a1,v0
9d00f1c4:	54400001 	bnezl	v0,9d00f1cc <__shlim+0x24>
9d00f1c8:	00c51821 	addu	v1,a2,a1
9d00f1cc:	03e00008 	jr	ra
9d00f1d0:	ac83004c 	sw	v1,76(a0)

Disassembly of section .text.__dummy:

9d00f1d4 <__dummy>:
9d00f1d4:	8c870014 	lw	a3,20(a0)
9d00f1d8:	8c860018 	lw	a2,24(a0)
9d00f1dc:	8c830004 	lw	v1,4(a0)
9d00f1e0:	00e61023 	subu	v0,a3,a2
9d00f1e4:	30630040 	andi	v1,v1,0x40
9d00f1e8:	aca20000 	sw	v0,0(a1)
9d00f1ec:	10600002 	beqz	v1,9d00f1f8 <__dummy+0x24>
9d00f1f0:	00001025 	move	v0,zero
9d00f1f4:	00c7102b 	sltu	v0,a2,a3
9d00f1f8:	03e00008 	jr	ra
9d00f1fc:	00000000 	nop

Disassembly of section .text.__init_stdio:

9d00f200 <__init_stdio>:
9d00f200:	27bdffe8 	addiu	sp,sp,-24
9d00f204:	afbf0014 	sw	ra,20(sp)
9d00f208:	0f403d9b 	jal	9d00f66c <__init_stderr>
9d00f20c:	00000000 	nop
9d00f210:	0f403d9b 	jal	9d00f66c <__init_stderr>
9d00f214:	00000000 	nop
9d00f218:	0f403d9b 	jal	9d00f66c <__init_stderr>
9d00f21c:	00000000 	nop
9d00f220:	8fbf0014 	lw	ra,20(sp)
9d00f224:	03e00008 	jr	ra
9d00f228:	27bd0018 	addiu	sp,sp,24

Disassembly of section .text.memcpy:

9d00f22c <memcpy>:
9d00f22c:	10c00008 	beqz	a2,9d00f250 <memcpy+0x24>
9d00f230:	00801025 	move	v0,a0
9d00f234:	00863021 	addu	a2,a0,a2
9d00f238:	00801825 	move	v1,a0
9d00f23c:	24a50001 	addiu	a1,a1,1
9d00f240:	90a7ffff 	lbu	a3,-1(a1)
9d00f244:	24630001 	addiu	v1,v1,1
9d00f248:	1466fffc 	bne	v1,a2,9d00f23c <memcpy+0x10>
9d00f24c:	a067ffff 	sb	a3,-1(v1)
9d00f250:	03e00008 	jr	ra
9d00f254:	00000000 	nop

Disassembly of section .text._stub_sbd_memlayout:

9d00f258 <_stub_sbd_memlayout>:
9d00f258:	3c04a000 	lui	a0,0xa000
9d00f25c:	24820140 	addiu	v0,a0,320
9d00f260:	24030001 	li	v1,1
9d00f264:	ac430008 	sw	v1,8(v0)
9d00f268:	3c03a000 	lui	v1,0xa000
9d00f26c:	24630178 	addiu	v1,v1,376
9d00f270:	ac830140 	sw	v1,320(a0)
9d00f274:	3c030000 	lui	v1,0x0
9d00f278:	24630000 	addiu	v1,v1,0
9d00f27c:	03e00008 	jr	ra
9d00f280:	ac430004 	sw	v1,4(v0)

Disassembly of section .text.__wrap_sprintf:

9d00f284 <_dsprintf_cdeEfFgGns>:
9d00f284:	27bdffe0 	addiu	sp,sp,-32
9d00f288:	afa60028 	sw	a2,40(sp)
9d00f28c:	27a60028 	addiu	a2,sp,40
9d00f290:	afbf001c 	sw	ra,28(sp)
9d00f294:	afa7002c 	sw	a3,44(sp)
9d00f298:	0f403cb5 	jal	9d00f2d4 <__vsprintf>
9d00f29c:	afa60010 	sw	a2,16(sp)
9d00f2a0:	8fbf001c 	lw	ra,28(sp)
9d00f2a4:	03e00008 	jr	ra
9d00f2a8:	27bd0020 	addiu	sp,sp,32

Disassembly of section .text.__wrap_sscanf:

9d00f2ac <_dsscanf_dn>:
9d00f2ac:	27bdffe0 	addiu	sp,sp,-32
9d00f2b0:	afa60028 	sw	a2,40(sp)
9d00f2b4:	27a60028 	addiu	a2,sp,40
9d00f2b8:	afbf001c 	sw	ra,28(sp)
9d00f2bc:	afa7002c 	sw	a3,44(sp)
9d00f2c0:	0f403a02 	jal	9d00e808 <__vsscanf>
9d00f2c4:	afa60010 	sw	a2,16(sp)
9d00f2c8:	8fbf001c 	lw	ra,28(sp)
9d00f2cc:	03e00008 	jr	ra
9d00f2d0:	27bd0020 	addiu	sp,sp,32

Disassembly of section .text.__vsprintf:

9d00f2d4 <__vsprintf>:
9d00f2d4:	00c03825 	move	a3,a2
9d00f2d8:	00a03025 	move	a2,a1
9d00f2dc:	3c057fff 	lui	a1,0x7fff
9d00f2e0:	27bdffe8 	addiu	sp,sp,-24
9d00f2e4:	afbf0014 	sw	ra,20(sp)
9d00f2e8:	0f4038da 	jal	9d00e368 <__vsnprintf>
9d00f2ec:	34a5ffff 	ori	a1,a1,0xffff
9d00f2f0:	8fbf0014 	lw	ra,20(sp)
9d00f2f4:	03e00008 	jr	ra
9d00f2f8:	27bd0018 	addiu	sp,sp,24

Disassembly of section .text.memset:

9d00f2fc <memset>:
9d00f2fc:	10c00007 	beqz	a2,9d00f31c <memset+0x20>
9d00f300:	00801025 	move	v0,a0
9d00f304:	7c052c20 	seb	a1,a1
9d00f308:	00863021 	addu	a2,a0,a2
9d00f30c:	00801825 	move	v1,a0
9d00f310:	24630001 	addiu	v1,v1,1
9d00f314:	1466fffe 	bne	v1,a2,9d00f310 <memset+0x14>
9d00f318:	a065ffff 	sb	a1,-1(v1)
9d00f31c:	03e00008 	jr	ra
9d00f320:	00000000 	nop

Disassembly of section .text.strcpy:

9d00f324 <strcpy>:
9d00f324:	27bdffe8 	addiu	sp,sp,-24
9d00f328:	afb00010 	sw	s0,16(sp)
9d00f32c:	afbf0014 	sw	ra,20(sp)
9d00f330:	0f403cd3 	jal	9d00f34c <stpcpy>
9d00f334:	00808025 	move	s0,a0
9d00f338:	8fbf0014 	lw	ra,20(sp)
9d00f33c:	02001025 	move	v0,s0
9d00f340:	8fb00010 	lw	s0,16(sp)
9d00f344:	03e00008 	jr	ra
9d00f348:	27bd0018 	addiu	sp,sp,24

Disassembly of section .text.stpcpy:

9d00f34c <stpcpy>:
9d00f34c:	10000002 	b	9d00f358 <stpcpy+0xc>
9d00f350:	00801025 	move	v0,a0
9d00f354:	00c01025 	move	v0,a2
9d00f358:	24a50001 	addiu	a1,a1,1
9d00f35c:	80a3ffff 	lb	v1,-1(a1)
9d00f360:	24460001 	addiu	a2,v0,1
9d00f364:	1460fffb 	bnez	v1,9d00f354 <stpcpy+0x8>
9d00f368:	a0c3ffff 	sb	v1,-1(a2)
9d00f36c:	03e00008 	jr	ra
9d00f370:	00000000 	nop

Disassembly of section .text.__init_search_fl:

9d00f374 <__init_search_fl>:
9d00f374:	3c03a000 	lui	v1,0xa000
9d00f378:	8c66016c 	lw	a2,364(v1)
9d00f37c:	14c00005 	bnez	a2,9d00f394 <__init_search_fl+0x20>
9d00f380:	00001025 	move	v0,zero
9d00f384:	ac64016c 	sw	a0,364(v1)
9d00f388:	ac800010 	sw	zero,16(a0)
9d00f38c:	ac850000 	sw	a1,0(a0)
9d00f390:	24020001 	li	v0,1
9d00f394:	03e00008 	jr	ra
9d00f398:	00000000 	nop

Disassembly of section .text.__sio_sscanf_dn:

9d00f39c <__sio_sscanf_dn>:
9d00f39c:	27bdffe8 	addiu	sp,sp,-24
9d00f3a0:	afbf0014 	sw	ra,20(sp)
9d00f3a4:	0f403992 	jal	9d00e648 <__scan_d>
9d00f3a8:	00000000 	nop
9d00f3ac:	0f402dcc 	jal	9d00b730 <__scan_i>
9d00f3b0:	00000000 	nop
9d00f3b4:	8fbf0014 	lw	ra,20(sp)
9d00f3b8:	03e00008 	jr	ra
9d00f3bc:	27bd0018 	addiu	sp,sp,24

Disassembly of section .text.isxdigit:

9d00f3c0 <isxdigit>:
9d00f3c0:	2483ffd0 	addiu	v1,a0,-48
9d00f3c4:	2c63000a 	sltiu	v1,v1,10
9d00f3c8:	14600004 	bnez	v1,9d00f3dc <isxdigit+0x1c>
9d00f3cc:	24020001 	li	v0,1
9d00f3d0:	34840020 	ori	a0,a0,0x20
9d00f3d4:	2482ff9f 	addiu	v0,a0,-97
9d00f3d8:	2c420006 	sltiu	v0,v0,6
9d00f3dc:	03e00008 	jr	ra
9d00f3e0:	00000000 	nop

Disassembly of section .text.__fwrite_min:

9d00f3e4 <__stdio_write>:
9d00f3e4:	8c840000 	lw	a0,0(a0)
9d00f3e8:	27bdffe8 	addiu	sp,sp,-24
9d00f3ec:	afbf0014 	sw	ra,20(sp)
9d00f3f0:	0f4038b8 	jal	9d00e2e0 <write>
9d00f3f4:	00000000 	nop
9d00f3f8:	8fbf0014 	lw	ra,20(sp)
9d00f3fc:	03e00008 	jr	ra
9d00f400:	27bd0018 	addiu	sp,sp,24

Disassembly of section .text.__fseeko:

9d00f404 <__fseeko>:
9d00f404:	8c820030 	lw	v0,48(a0)
9d00f408:	27bdffe8 	addiu	sp,sp,-24
9d00f40c:	afbf0014 	sw	ra,20(sp)
9d00f410:	0040f809 	jalr	v0
9d00f414:	00000000 	nop
9d00f418:	8fbf0014 	lw	ra,20(sp)
9d00f41c:	03e00008 	jr	ra
9d00f420:	27bd0018 	addiu	sp,sp,24

Disassembly of section .text:

9d00f424 <__dinit_copy>:
9d00f424:	908c0000 	lbu	t4,0(a0)
9d00f428:	24c6ffff 	addiu	a2,a2,-1
9d00f42c:	24840001 	addiu	a0,a0,1
9d00f430:	a0ac0000 	sb	t4,0(a1)
9d00f434:	14c0fffb 	bnez	a2,9d00f424 <__dinit_copy>
9d00f438:	24a50001 	addiu	a1,a1,1
9d00f43c:	03e00008 	jr	ra
9d00f440:	00801025 	move	v0,a0

Disassembly of section .text.strtoimax:

9d00f444 <strtoimax>:
9d00f444:	27bdffe8 	addiu	sp,sp,-24
9d00f448:	afbf0014 	sw	ra,20(sp)
9d00f44c:	0f403c49 	jal	9d00f124 <strtoll>
9d00f450:	00000000 	nop
9d00f454:	8fbf0014 	lw	ra,20(sp)
9d00f458:	03e00008 	jr	ra
9d00f45c:	27bd0018 	addiu	sp,sp,24

Disassembly of section .text.strtoumax:

9d00f460 <strtoumax>:
9d00f460:	27bdffe8 	addiu	sp,sp,-24
9d00f464:	afbf0014 	sw	ra,20(sp)
9d00f468:	0f403c3e 	jal	9d00f0f8 <strtoull>
9d00f46c:	00000000 	nop
9d00f470:	8fbf0014 	lw	ra,20(sp)
9d00f474:	03e00008 	jr	ra
9d00f478:	27bd0018 	addiu	sp,sp,24

Disassembly of section .text.__isxdigit_l:

9d00f47c <__isxdigit_l>:
9d00f47c:	27bdffe8 	addiu	sp,sp,-24
9d00f480:	afbf0014 	sw	ra,20(sp)
9d00f484:	0f403cf0 	jal	9d00f3c0 <isxdigit>
9d00f488:	00000000 	nop
9d00f48c:	8fbf0014 	lw	ra,20(sp)
9d00f490:	03e00008 	jr	ra
9d00f494:	27bd0018 	addiu	sp,sp,24

Disassembly of section .text.tolower:

9d00f498 <tolower>:
9d00f498:	2483ffbf 	addiu	v1,a0,-65
9d00f49c:	2c63001a 	sltiu	v1,v1,26
9d00f4a0:	10600002 	beqz	v1,9d00f4ac <tolower+0x14>
9d00f4a4:	00801025 	move	v0,a0
9d00f4a8:	34820020 	ori	v0,a0,0x20
9d00f4ac:	03e00008 	jr	ra
9d00f4b0:	00000000 	nop

Disassembly of section .text.__tolower_l:

9d00f4b4 <__tolower_l>:
9d00f4b4:	27bdffe8 	addiu	sp,sp,-24
9d00f4b8:	afbf0014 	sw	ra,20(sp)
9d00f4bc:	0f403d26 	jal	9d00f498 <tolower>
9d00f4c0:	00000000 	nop
9d00f4c4:	8fbf0014 	lw	ra,20(sp)
9d00f4c8:	03e00008 	jr	ra
9d00f4cc:	27bd0018 	addiu	sp,sp,24

Disassembly of section .text.do_read:

9d00f4d0 <do_read>:
9d00f4d0:	27bdffe8 	addiu	sp,sp,-24
9d00f4d4:	afbf0014 	sw	ra,20(sp)
9d00f4d8:	0f40378f 	jal	9d00de3c <__string_read>
9d00f4dc:	00000000 	nop
9d00f4e0:	8fbf0014 	lw	ra,20(sp)
9d00f4e4:	03e00008 	jr	ra
9d00f4e8:	27bd0018 	addiu	sp,sp,24

Disassembly of section .text.__toread_needs_stdio_exit:

9d00f4ec <__toread_needs_stdio_exit>:
9d00f4ec:	27bdffe8 	addiu	sp,sp,-24
9d00f4f0:	afbf0014 	sw	ra,20(sp)
9d00f4f4:	0f403aec 	jal	9d00ebb0 <__stdio_exit>
9d00f4f8:	00000000 	nop
9d00f4fc:	8fbf0014 	lw	ra,20(sp)
9d00f500:	03e00008 	jr	ra
9d00f504:	27bd0018 	addiu	sp,sp,24

Disassembly of section .text.putc:

9d00f508 <putc>:
9d00f508:	27bdffe8 	addiu	sp,sp,-24
9d00f50c:	afbf0014 	sw	ra,20(sp)
9d00f510:	0f4039ca 	jal	9d00e728 <__putc>
9d00f514:	00000000 	nop
9d00f518:	8fbf0014 	lw	ra,20(sp)
9d00f51c:	03e00008 	jr	ra
9d00f520:	27bd0018 	addiu	sp,sp,24

Disassembly of section .text.__fopen:

9d00f524 <__fopen>:
9d00f524:	27bdffe8 	addiu	sp,sp,-24
9d00f528:	afbf0014 	sw	ra,20(sp)
9d00f52c:	0f403896 	jal	9d00e258 <__fopen_rw>
9d00f530:	00000000 	nop
9d00f534:	8fbf0014 	lw	ra,20(sp)
9d00f538:	03e00008 	jr	ra
9d00f53c:	27bd0018 	addiu	sp,sp,24

Disassembly of section .text.__ftello_adj:

9d00f540 <__ftello_adj>:
9d00f540:	27bdffe8 	addiu	sp,sp,-24
9d00f544:	afbf0014 	sw	ra,20(sp)
9d00f548:	0f403b35 	jal	9d00ecd4 <__ftello_adj_rw>
9d00f54c:	00000000 	nop
9d00f550:	8fbf0014 	lw	ra,20(sp)
9d00f554:	03e00008 	jr	ra
9d00f558:	27bd0018 	addiu	sp,sp,24

Disassembly of section .text:

9d00f578 <get_mode>:
#include "utilities.h"

volatile enum mode_t mode;

enum mode_t get_mode(){
    return mode;
9d00f578:	8f828024 	lw	v0,-32732(gp)
}
9d00f57c:	03e00008 	jr	ra
9d00f580:	00000000 	nop

9d00f584 <set_mode>:

void set_mode(enum mode_t md){
    mode = md;
9d00f584:	af848024 	sw	a0,-32732(gp)
9d00f588:	03e00008 	jr	ra
9d00f58c:	00000000 	nop

9d00f590 <_nmi_handler>:
9d00f590:	401a6000 	mfc0	k0,c0_status
9d00f594:	3c1bffbf 	lui	k1,0xffbf
9d00f598:	377bffff 	ori	k1,k1,0xffff
9d00f59c:	035bd024 	and	k0,k0,k1
9d00f5a0:	409a6000 	mtc0	k0,c0_status
9d00f5a4:	42000018 	eret

Disassembly of section .rodata:

9d00f5a8 <state_table>:
9d00f5a8:	096c0768 906a834c c07aa074 88688000     h.l.L.j.t.z...h.
9d00f5b8:	826c8400 00008100                       ..l.....

Disassembly of section .text:

9d00f5c0 <__dinit_clear>:
9d00f5c0:	24c6ffff 	addiu	a2,a2,-1
9d00f5c4:	a0a00000 	sb	zero,0(a1)
9d00f5c8:	14c0fffd 	bnez	a2,9d00f5c0 <__dinit_clear>
9d00f5cc:	24a50001 	addiu	a1,a1,1
9d00f5d0:	03e00008 	jr	ra
9d00f5d4:	00801025 	move	v0,a0

Disassembly of section .rodata:

9d00f5d8 <_dinit_func_table>:
9d00f5d8:	9d00f5c0 9d00f424 9d00e3e8 9d00e3e8     ....$...........
9d00f5e8:	9d00e3e8                                ....

Disassembly of section .text.__get_stderr:

9d00f5ec <__get_stderr>:
9d00f5ec:	3c02a000 	lui	v0,0xa000
9d00f5f0:	03e00008 	jr	ra
9d00f5f4:	2442007c 	addiu	v0,v0,124

Disassembly of section .text.__get_stdout:

9d00f5f8 <__get_stdout>:
9d00f5f8:	3c02a000 	lui	v0,0xa000
9d00f5fc:	03e00008 	jr	ra
9d00f600:	244200dc 	addiu	v0,v0,220

Disassembly of section .text._on_reset:

9d00f604 <_on_reset>:
9d00f604:	03e00008 	jr	ra
9d00f608:	00000000 	nop

Disassembly of section .text._on_bootstrap:

9d00f60c <_on_bootstrap>:
9d00f60c:	03e00008 	jr	ra
9d00f610:	00000000 	nop

Disassembly of section .text.__dummy_fmt3:

9d00f614 <__fmt_o>:
9d00f614:	03e00008 	jr	ra
9d00f618:	00001025 	move	v0,zero

Disassembly of section .text.__dummy_fmt4:

9d00f61c <__fmt_a>:
9d00f61c:	03e00008 	jr	ra
9d00f620:	00001025 	move	v0,zero

Disassembly of section .text.__dummy_fmts:

9d00f624 <__dummy_fmts>:
9d00f624:	03e00008 	jr	ra
9d00f628:	00001025 	move	v0,zero

Disassembly of section .text.__dummy_scan:

9d00f62c <__scan_a>:
9d00f62c:	03e00008 	jr	ra
9d00f630:	00001025 	move	v0,zero

Disassembly of section .text.__dummy_scan_s:

9d00f634 <__scan_s>:
9d00f634:	03e00008 	jr	ra
9d00f638:	00001025 	move	v0,zero

Disassembly of section .text.__dummy:

9d00f63c <__dummy>:
9d00f63c:	03e00008 	jr	ra
9d00f640:	00000000 	nop

9d00f644 <__stdio_exit_ofl>:
9d00f644:	03e00008 	jr	ra
9d00f648:	00000000 	nop

Disassembly of section .text.__dummy1:

9d00f64c <__dummy1>:
9d00f64c:	03e00008 	jr	ra
9d00f650:	00001025 	move	v0,zero

Disassembly of section .text.__dummy:

9d00f654 <__dummy>:
9d00f654:	03e00008 	jr	ra
9d00f658:	00000000 	nop

9d00f65c <__dummy>:
9d00f65c:	03e00008 	jr	ra
9d00f660:	00001025 	move	v0,zero

Disassembly of section .text.__dummy:

9d00f664 <__dummy>:
9d00f664:	03e00008 	jr	ra
9d00f668:	00001025 	move	v0,zero

9d00f66c <__init_stderr>:
9d00f66c:	03e00008 	jr	ra
9d00f670:	00000000 	nop

Disassembly of section .text.lseek:

9d00f674 <lseek>:
9d00f674:	03e00008 	jr	ra
9d00f678:	00001025 	move	v0,zero

Disassembly of section .text.close:

9d00f67c <close>:
9d00f67c:	03e00008 	jr	ra
9d00f680:	00001025 	move	v0,zero

Disassembly of section .text.getpagesize:

9d00f684 <getpagesize>:
9d00f684:	03e00008 	jr	ra
9d00f688:	24020080 	li	v0,128
